EXPORTS
    ZZN5boost9function1IiP9lua_StateSaINS_13function_baseEEE9assign_toIN7luabind6detail14mem_fn_matcherIM12AudioManagerFvSsESA_NS8_9null_typeEEEEEvT_E13stored_vtable @1 DATA
    ZZN5boost9function1IiP9lua_StateSaINS_13function_baseEEE9assign_toIN7luabind6detail14mem_fn_matcherIM12AudioManagerFvSsbESA_NS8_9null_typeEEEEEvT_E13stored_vtable @2 DATA
    ZZN5boost9function1IiP9lua_StateSaINS_13function_baseEEE9assign_toIN7luabind6detail14mem_fn_matcherIM12AudioManagerFvvESA_NS8_9null_typeEEEEEvT_E13stored_vtable @3 DATA
    ZZN5boost9function1IiP9lua_StateSaINS_13function_baseEEE9assign_toIN7luabind6detail14mem_fn_matcherIMN6Hinage12InputManagerEFbiESB_NS8_9null_typeEEEEEvT_E13stored_vtable @4 DATA
    ZZN5boost9function1IiP9lua_StateSaINS_13function_baseEEE9assign_toIN7luabind6detail14mem_fn_matcherIMN6Hinage14PhysicalEntityEFSsvESB_NS8_9null_typeEEEEEvT_E13stored_vtable @5 DATA
    ZZN5boost9function1IiP9lua_StateSaINS_13function_baseEEE9assign_toIN7luabind6detail14mem_fn_matcherIMN6Hinage14PhysicalEntityEFbSsbdESB_NS8_9null_typeEEEEEvT_E13stored_vtable @6 DATA
    ZZN5boost9function1IiP9lua_StateSaINS_13function_baseEEE9assign_toIN7luabind6detail14mem_fn_matcherIMN6Hinage14PhysicalEntityEFdvESB_NS8_9null_typeEEEEEvT_E13stored_vtable @7 DATA
    ZZN5boost9function1IiP9lua_StateSaINS_13function_baseEEE9assign_toIN7luabind6detail14mem_fn_matcherIMN6Hinage14PhysicalEntityEFivESB_NS8_9null_typeEEEEEvT_E13stored_vtable @8 DATA
    ZZN5boost9function1IiP9lua_StateSaINS_13function_baseEEE9assign_toIN7luabind6detail14mem_fn_matcherIMN6Hinage14PhysicalEntityEFvbESB_NS8_9null_typeEEEEEvT_E13stored_vtable @9 DATA
    ZZN5boost9function1IiP9lua_StateSaINS_13function_baseEEE9assign_toIN7luabind6detail14mem_fn_matcherIMN6Hinage14PhysicalEntityEFvdESB_NS8_9null_typeEEEEEvT_E13stored_vtable @10 DATA
    ZZN5boost9function1IiP9lua_StateSaINS_13function_baseEEE9assign_toIN7luabind6detail14mem_fn_matcherIMN6Hinage14PhysicalEntityEFvddESB_NS8_9null_typeEEEEEvT_E13stored_vtable @11 DATA
    ZZN5boost9function1IiP9lua_StateSaINS_13function_baseEEE9assign_toIN7luabind6detail14mem_fn_matcherIMN6Hinage14PhysicalEntityEFvdddESB_NS8_9null_typeEEEEEvT_E13stored_vtable @12 DATA
    ZZN5boost9function1IiP9lua_StateSaINS_13function_baseEEE9assign_toIN7luabind6detail14mem_fn_matcherIMN6Hinage3MapEFRNSA_14PhysicalEntityESsddESB_NS8_9null_typeEEEEEvT_E13stored_vtable @13 DATA
    ZZN5boost9function1IiP9lua_StateSaINS_13function_baseEEE9assign_toIN7luabind6detail14mem_fn_matcherIMN6Hinage3MapEFRNSA_14PhysicalEntityEiESB_NS8_9null_typeEEEEEvT_E13stored_vtable @14 DATA
    ZZN5boost9function1IiP9lua_StateSaINS_13function_baseEEE9assign_toIN7luabind6detail14mem_fn_matcherIMN6Hinage3MapEFivESB_NS8_9null_typeEEEEEvT_E13stored_vtable @15 DATA
    ZZN5boost9function1IiP9lua_StateSaINS_13function_baseEEE9assign_toIN7luabind6detail14mem_fn_matcherIMN6Hinage3MapEFvSsESB_NS8_9null_typeEEEEEvT_E13stored_vtable @16 DATA
    ZZN5boost9function1IiP9lua_StateSaINS_13function_baseEEE9assign_toIN7luabind6detail14mem_fn_matcherIMN6Hinage3MapEFvSsbESB_NS8_9null_typeEEEEEvT_E13stored_vtable @17 DATA
    ZZN5boost9function1IiP9lua_StateSaINS_13function_baseEEE9assign_toIN7luabind6detail14mem_fn_matcherIMN6Hinage3MapEFviESB_NS8_9null_typeEEEEEvT_E13stored_vtable @18 DATA
    ZZN5boost9function1IiP9lua_StateSaINS_13function_baseEEE9assign_toIN7luabind6detail14mem_fn_matcherIMN6Hinage3MapEFvvESB_NS8_9null_typeEEEEEvT_E13stored_vtable @19 DATA
    ZZN5boost9function1IiP9lua_StateSaINS_13function_baseEEE9assign_toIN7luabind6detail14mem_fn_matcherIMN6Hinage3MapEKFivESB_NS8_9null_typeEEEEEvT_E13stored_vtable @20 DATA
    ZZN5boost9function1IiP9lua_StateSaINS_13function_baseEEE9assign_toIN7luabind6detail14mem_fn_matcherIMN6Hinage4GameEFRNSA_4FontESsESB_NS8_9null_typeEEEEEvT_E13stored_vtable @21 DATA
    ZZN5boost9function1IiP9lua_StateSaINS_13function_baseEEE9assign_toIN7luabind6detail14mem_fn_matcherIMN6Hinage4GameEFdvESB_NS8_9null_typeEEEEEvT_E13stored_vtable @22 DATA
    ZZN5boost9function1IiP9lua_StateSaINS_13function_baseEEE9assign_toIN7luabind6detail14mem_fn_matcherIMN6Hinage4GameEFvRNSA_4FontESsddddESB_NS8_9null_typeEEEEEvT_E13stored_vtable @23 DATA
    ZZN5boost9function1IiP9lua_StateSaINS_13function_baseEEE9assign_toIN7luabind6detail14mem_fn_matcherIMN6Hinage4GameEFvdESB_NS8_9null_typeEEEEEvT_E13stored_vtable @24 DATA
    ZZN5boost9function1IiP9lua_StateSaINS_13function_baseEEE9assign_toIN7luabind6detail14mem_fn_matcherIMN6Hinage4GameEFvvESB_NS8_9null_typeEEEEEvT_E13stored_vtable @25 DATA
    ZZN5boost9function1IiP9lua_StateSaINS_13function_baseEEE9assign_toIN7luabind6detail14mem_fn_matcherIMN6Hinage5TimerEFbdESB_NS8_9null_typeEEEEEvT_E13stored_vtable @26 DATA
    ZZN5boost9function1IiP9lua_StateSaINS_13function_baseEEE9assign_toIN7luabind6detail14mem_fn_matcherIMN6Hinage5TimerEFdvESB_NS8_9null_typeEEEEEvT_E13stored_vtable @27 DATA
    ZZN5boost9function1IiP9lua_StateSaINS_13function_baseEEE9assign_toIN7luabind6detail14mem_fn_matcherIMN6Hinage5TimerEFvvESB_NS8_9null_typeEEEEEvT_E13stored_vtable @28 DATA
    ZZN5boost9function1IiP9lua_StateSaINS_13function_baseEEE9assign_toIN7luabind6detail14mem_fn_matcherIMN6Hinage7DisplayEFdvESB_NS8_9null_typeEEEEEvT_E13stored_vtable @29 DATA
    ZZN5boost9function1IiP9lua_StateSaINS_13function_baseEEE9assign_toIN7luabind6detail14mem_fn_matcherIMN6Hinage7DisplayEFfvESB_NS8_9null_typeEEEEEvT_E13stored_vtable @30 DATA
    ZZN5boost9function1IiP9lua_StateSaINS_13function_baseEEE9assign_toIN7luabind6detail14mem_fn_matcherIMN6Hinage7DisplayEFvdESB_NS8_9null_typeEEEEEvT_E13stored_vtable @31 DATA
    ZZN5boost9function1IiP9lua_StateSaINS_13function_baseEEE9assign_toIN7luabind6detail14mem_fn_matcherIMN6Hinage7DisplayEFvffESB_NS8_9null_typeEEEEEvT_E13stored_vtable @32 DATA
    ZZN5boost9function1IiP9lua_StateSaINS_13function_baseEEE9assign_toIN7luabind6detail14mem_fn_matcherIMN6Hinage7Vector2IdEEFvdESC_NS8_9null_typeEEEEEvT_E13stored_vtable @33 DATA
    ZZN5boost9function1IiP9lua_StateSaINS_13function_baseEEE9assign_toIN7luabind6detail14mem_fn_matcherIMN6Hinage7Vector2IdEEFvddESC_NS8_9null_typeEEEEEvT_E13stored_vtable @34 DATA
    ZZN5boost9function1IiP9lua_StateSaINS_13function_baseEEE9assign_toIN7luabind6detail14mem_fn_matcherIMN6Hinage7Vector2IdEEKFdvESC_NS8_9null_typeEEEEEvT_E13stored_vtable @35 DATA
    ZZN5boost9function1IiP9lua_StateSaINS_13function_baseEEE9assign_toIN7luabind6detail15mem_fn_callbackIM12AudioManagerFvSsESA_NS8_9null_typeEEEEEvT_E13stored_vtable @36 DATA
    ZZN5boost9function1IiP9lua_StateSaINS_13function_baseEEE9assign_toIN7luabind6detail15mem_fn_callbackIM12AudioManagerFvSsbESA_NS8_9null_typeEEEEEvT_E13stored_vtable @37 DATA
    ZZN5boost9function1IiP9lua_StateSaINS_13function_baseEEE9assign_toIN7luabind6detail15mem_fn_callbackIM12AudioManagerFvvESA_NS8_9null_typeEEEEEvT_E13stored_vtable @38 DATA
    ZZN5boost9function1IiP9lua_StateSaINS_13function_baseEEE9assign_toIN7luabind6detail15mem_fn_callbackIMN6Hinage12InputManagerEFbiESB_NS8_9null_typeEEEEEvT_E13stored_vtable @39 DATA
    ZZN5boost9function1IiP9lua_StateSaINS_13function_baseEEE9assign_toIN7luabind6detail15mem_fn_callbackIMN6Hinage14PhysicalEntityEFSsvESB_NS8_9null_typeEEEEEvT_E13stored_vtable @40 DATA
    ZZN5boost9function1IiP9lua_StateSaINS_13function_baseEEE9assign_toIN7luabind6detail15mem_fn_callbackIMN6Hinage14PhysicalEntityEFbSsbdESB_NS8_9null_typeEEEEEvT_E13stored_vtable @41 DATA
    ZZN5boost9function1IiP9lua_StateSaINS_13function_baseEEE9assign_toIN7luabind6detail15mem_fn_callbackIMN6Hinage14PhysicalEntityEFdvESB_NS8_9null_typeEEEEEvT_E13stored_vtable @42 DATA
    ZZN5boost9function1IiP9lua_StateSaINS_13function_baseEEE9assign_toIN7luabind6detail15mem_fn_callbackIMN6Hinage14PhysicalEntityEFivESB_NS8_9null_typeEEEEEvT_E13stored_vtable @43 DATA
    ZZN5boost9function1IiP9lua_StateSaINS_13function_baseEEE9assign_toIN7luabind6detail15mem_fn_callbackIMN6Hinage14PhysicalEntityEFvbESB_NS8_9null_typeEEEEEvT_E13stored_vtable @44 DATA
    ZZN5boost9function1IiP9lua_StateSaINS_13function_baseEEE9assign_toIN7luabind6detail15mem_fn_callbackIMN6Hinage14PhysicalEntityEFvdESB_NS8_9null_typeEEEEEvT_E13stored_vtable @45 DATA
    ZZN5boost9function1IiP9lua_StateSaINS_13function_baseEEE9assign_toIN7luabind6detail15mem_fn_callbackIMN6Hinage14PhysicalEntityEFvddESB_NS8_9null_typeEEEEEvT_E13stored_vtable @46 DATA
    ZZN5boost9function1IiP9lua_StateSaINS_13function_baseEEE9assign_toIN7luabind6detail15mem_fn_callbackIMN6Hinage14PhysicalEntityEFvdddESB_NS8_9null_typeEEEEEvT_E13stored_vtable @47 DATA
    ZZN5boost9function1IiP9lua_StateSaINS_13function_baseEEE9assign_toIN7luabind6detail15mem_fn_callbackIMN6Hinage3MapEFRNSA_14PhysicalEntityESsddESB_NS8_9null_typeEEEEEvT_E13stored_vtable @48 DATA
    ZZN5boost9function1IiP9lua_StateSaINS_13function_baseEEE9assign_toIN7luabind6detail15mem_fn_callbackIMN6Hinage3MapEFRNSA_14PhysicalEntityEiESB_NS8_9null_typeEEEEEvT_E13stored_vtable @49 DATA
    ZZN5boost9function1IiP9lua_StateSaINS_13function_baseEEE9assign_toIN7luabind6detail15mem_fn_callbackIMN6Hinage3MapEFivESB_NS8_9null_typeEEEEEvT_E13stored_vtable @50 DATA
    ZZN5boost9function1IiP9lua_StateSaINS_13function_baseEEE9assign_toIN7luabind6detail15mem_fn_callbackIMN6Hinage3MapEFvSsESB_NS8_9null_typeEEEEEvT_E13stored_vtable @51 DATA
    ZZN5boost9function1IiP9lua_StateSaINS_13function_baseEEE9assign_toIN7luabind6detail15mem_fn_callbackIMN6Hinage3MapEFvSsbESB_NS8_9null_typeEEEEEvT_E13stored_vtable @52 DATA
    ZZN5boost9function1IiP9lua_StateSaINS_13function_baseEEE9assign_toIN7luabind6detail15mem_fn_callbackIMN6Hinage3MapEFviESB_NS8_9null_typeEEEEEvT_E13stored_vtable @53 DATA
    ZZN5boost9function1IiP9lua_StateSaINS_13function_baseEEE9assign_toIN7luabind6detail15mem_fn_callbackIMN6Hinage3MapEFvvESB_NS8_9null_typeEEEEEvT_E13stored_vtable @54 DATA
    ZZN5boost9function1IiP9lua_StateSaINS_13function_baseEEE9assign_toIN7luabind6detail15mem_fn_callbackIMN6Hinage3MapEKFivESB_NS8_9null_typeEEEEEvT_E13stored_vtable @55 DATA
    ZZN5boost9function1IiP9lua_StateSaINS_13function_baseEEE9assign_toIN7luabind6detail15mem_fn_callbackIMN6Hinage4GameEFRNSA_4FontESsESB_NS8_9null_typeEEEEEvT_E13stored_vtable @56 DATA
    ZZN5boost9function1IiP9lua_StateSaINS_13function_baseEEE9assign_toIN7luabind6detail15mem_fn_callbackIMN6Hinage4GameEFdvESB_NS8_9null_typeEEEEEvT_E13stored_vtable @57 DATA
    ZZN5boost9function1IiP9lua_StateSaINS_13function_baseEEE9assign_toIN7luabind6detail15mem_fn_callbackIMN6Hinage4GameEFvRNSA_4FontESsddddESB_NS8_9null_typeEEEEEvT_E13stored_vtable @58 DATA
    ZZN5boost9function1IiP9lua_StateSaINS_13function_baseEEE9assign_toIN7luabind6detail15mem_fn_callbackIMN6Hinage4GameEFvdESB_NS8_9null_typeEEEEEvT_E13stored_vtable @59 DATA
    ZZN5boost9function1IiP9lua_StateSaINS_13function_baseEEE9assign_toIN7luabind6detail15mem_fn_callbackIMN6Hinage4GameEFvvESB_NS8_9null_typeEEEEEvT_E13stored_vtable @60 DATA
    ZZN5boost9function1IiP9lua_StateSaINS_13function_baseEEE9assign_toIN7luabind6detail15mem_fn_callbackIMN6Hinage5TimerEFbdESB_NS8_9null_typeEEEEEvT_E13stored_vtable @61 DATA
    ZZN5boost9function1IiP9lua_StateSaINS_13function_baseEEE9assign_toIN7luabind6detail15mem_fn_callbackIMN6Hinage5TimerEFdvESB_NS8_9null_typeEEEEEvT_E13stored_vtable @62 DATA
    ZZN5boost9function1IiP9lua_StateSaINS_13function_baseEEE9assign_toIN7luabind6detail15mem_fn_callbackIMN6Hinage5TimerEFvvESB_NS8_9null_typeEEEEEvT_E13stored_vtable @63 DATA
    ZZN5boost9function1IiP9lua_StateSaINS_13function_baseEEE9assign_toIN7luabind6detail15mem_fn_callbackIMN6Hinage7DisplayEFdvESB_NS8_9null_typeEEEEEvT_E13stored_vtable @64 DATA
    ZZN5boost9function1IiP9lua_StateSaINS_13function_baseEEE9assign_toIN7luabind6detail15mem_fn_callbackIMN6Hinage7DisplayEFfvESB_NS8_9null_typeEEEEEvT_E13stored_vtable @65 DATA
    ZZN5boost9function1IiP9lua_StateSaINS_13function_baseEEE9assign_toIN7luabind6detail15mem_fn_callbackIMN6Hinage7DisplayEFvdESB_NS8_9null_typeEEEEEvT_E13stored_vtable @66 DATA
    ZZN5boost9function1IiP9lua_StateSaINS_13function_baseEEE9assign_toIN7luabind6detail15mem_fn_callbackIMN6Hinage7DisplayEFvffESB_NS8_9null_typeEEEEEvT_E13stored_vtable @67 DATA
    ZZN5boost9function1IiP9lua_StateSaINS_13function_baseEEE9assign_toIN7luabind6detail15mem_fn_callbackIMN6Hinage7Vector2IdEEFvdESC_NS8_9null_typeEEEEEvT_E13stored_vtable @68 DATA
    ZZN5boost9function1IiP9lua_StateSaINS_13function_baseEEE9assign_toIN7luabind6detail15mem_fn_callbackIMN6Hinage7Vector2IdEEFvddESC_NS8_9null_typeEEEEEvT_E13stored_vtable @69 DATA
    ZZN5boost9function1IiP9lua_StateSaINS_13function_baseEEE9assign_toIN7luabind6detail15mem_fn_callbackIMN6Hinage7Vector2IdEEKFdvESC_NS8_9null_typeEEEEEvT_E13stored_vtable @70 DATA
    ZZN5boost9function1IiP9lua_StateSaINS_13function_baseEEE9assign_toIPFiS2_EEEvT_E13stored_vtable @71 DATA
    ZZN5boost9function2IiP9lua_StateiSaINS_13function_baseEEE9assign_toINS_3_bi6bind_tIiN7luabind6detail8auto_getIN6Hinage14PhysicalEntityEbNSA_9null_typeEEENS7_5list3IPFNS_3argILi1EEEvEPFNSH_ILi2EEEvENS7_5valueIMSD_bEEEEEEEEvT_E13stored_vtable @72 DATA
    _Z10TiXmlFOpenPKcS0_ @73
    _ZGVZN5boost10filesystem12initial_pathINS0_10basic_pathISsNS0_11path_traitsEEEEERKT_vE9init_path @74 DATA
    _ZGVZN5boost10filesystem6detail14remove_all_auxINS0_10basic_pathISsNS0_11path_traitsEEEEEmRKT_E7end_itr @75 DATA
    _ZGVZN5boost9function1IiP9lua_StateSaINS_13function_baseEEE9assign_toIN7luabind6detail14mem_fn_matcherIM12AudioManagerFvSsESA_NS8_9null_typeEEEEEvT_E13stored_vtable @76 DATA
    _ZGVZN5boost9function1IiP9lua_StateSaINS_13function_baseEEE9assign_toIN7luabind6detail14mem_fn_matcherIM12AudioManagerFvSsbESA_NS8_9null_typeEEEEEvT_E13stored_vtable @77 DATA
    _ZGVZN5boost9function1IiP9lua_StateSaINS_13function_baseEEE9assign_toIN7luabind6detail14mem_fn_matcherIM12AudioManagerFvvESA_NS8_9null_typeEEEEEvT_E13stored_vtable @78 DATA
    _ZGVZN5boost9function1IiP9lua_StateSaINS_13function_baseEEE9assign_toIN7luabind6detail14mem_fn_matcherIMN6Hinage12InputManagerEFbiESB_NS8_9null_typeEEEEEvT_E13stored_vtable @79 DATA
    _ZGVZN5boost9function1IiP9lua_StateSaINS_13function_baseEEE9assign_toIN7luabind6detail14mem_fn_matcherIMN6Hinage14PhysicalEntityEFSsvESB_NS8_9null_typeEEEEEvT_E13stored_vtable @80 DATA
    _ZGVZN5boost9function1IiP9lua_StateSaINS_13function_baseEEE9assign_toIN7luabind6detail14mem_fn_matcherIMN6Hinage14PhysicalEntityEFbSsbdESB_NS8_9null_typeEEEEEvT_E13stored_vtable @81 DATA
    _ZGVZN5boost9function1IiP9lua_StateSaINS_13function_baseEEE9assign_toIN7luabind6detail14mem_fn_matcherIMN6Hinage14PhysicalEntityEFdvESB_NS8_9null_typeEEEEEvT_E13stored_vtable @82 DATA
    _ZGVZN5boost9function1IiP9lua_StateSaINS_13function_baseEEE9assign_toIN7luabind6detail14mem_fn_matcherIMN6Hinage14PhysicalEntityEFivESB_NS8_9null_typeEEEEEvT_E13stored_vtable @83 DATA
    _ZGVZN5boost9function1IiP9lua_StateSaINS_13function_baseEEE9assign_toIN7luabind6detail14mem_fn_matcherIMN6Hinage14PhysicalEntityEFvbESB_NS8_9null_typeEEEEEvT_E13stored_vtable @84 DATA
    _ZGVZN5boost9function1IiP9lua_StateSaINS_13function_baseEEE9assign_toIN7luabind6detail14mem_fn_matcherIMN6Hinage14PhysicalEntityEFvdESB_NS8_9null_typeEEEEEvT_E13stored_vtable @85 DATA
    _ZGVZN5boost9function1IiP9lua_StateSaINS_13function_baseEEE9assign_toIN7luabind6detail14mem_fn_matcherIMN6Hinage14PhysicalEntityEFvddESB_NS8_9null_typeEEEEEvT_E13stored_vtable @86 DATA
    _ZGVZN5boost9function1IiP9lua_StateSaINS_13function_baseEEE9assign_toIN7luabind6detail14mem_fn_matcherIMN6Hinage14PhysicalEntityEFvdddESB_NS8_9null_typeEEEEEvT_E13stored_vtable @87 DATA
    _ZGVZN5boost9function1IiP9lua_StateSaINS_13function_baseEEE9assign_toIN7luabind6detail14mem_fn_matcherIMN6Hinage3MapEFRNSA_14PhysicalEntityESsddESB_NS8_9null_typeEEEEEvT_E13stored_vtable @88 DATA
    _ZGVZN5boost9function1IiP9lua_StateSaINS_13function_baseEEE9assign_toIN7luabind6detail14mem_fn_matcherIMN6Hinage3MapEFRNSA_14PhysicalEntityEiESB_NS8_9null_typeEEEEEvT_E13stored_vtable @89 DATA
    _ZGVZN5boost9function1IiP9lua_StateSaINS_13function_baseEEE9assign_toIN7luabind6detail14mem_fn_matcherIMN6Hinage3MapEFivESB_NS8_9null_typeEEEEEvT_E13stored_vtable @90 DATA
    _ZGVZN5boost9function1IiP9lua_StateSaINS_13function_baseEEE9assign_toIN7luabind6detail14mem_fn_matcherIMN6Hinage3MapEFvSsESB_NS8_9null_typeEEEEEvT_E13stored_vtable @91 DATA
    _ZGVZN5boost9function1IiP9lua_StateSaINS_13function_baseEEE9assign_toIN7luabind6detail14mem_fn_matcherIMN6Hinage3MapEFvSsbESB_NS8_9null_typeEEEEEvT_E13stored_vtable @92 DATA
    _ZGVZN5boost9function1IiP9lua_StateSaINS_13function_baseEEE9assign_toIN7luabind6detail14mem_fn_matcherIMN6Hinage3MapEFviESB_NS8_9null_typeEEEEEvT_E13stored_vtable @93 DATA
    _ZGVZN5boost9function1IiP9lua_StateSaINS_13function_baseEEE9assign_toIN7luabind6detail14mem_fn_matcherIMN6Hinage3MapEFvvESB_NS8_9null_typeEEEEEvT_E13stored_vtable @94 DATA
    _ZGVZN5boost9function1IiP9lua_StateSaINS_13function_baseEEE9assign_toIN7luabind6detail14mem_fn_matcherIMN6Hinage3MapEKFivESB_NS8_9null_typeEEEEEvT_E13stored_vtable @95 DATA
    _ZGVZN5boost9function1IiP9lua_StateSaINS_13function_baseEEE9assign_toIN7luabind6detail14mem_fn_matcherIMN6Hinage4GameEFRNSA_4FontESsESB_NS8_9null_typeEEEEEvT_E13stored_vtable @96 DATA
    _ZGVZN5boost9function1IiP9lua_StateSaINS_13function_baseEEE9assign_toIN7luabind6detail14mem_fn_matcherIMN6Hinage4GameEFdvESB_NS8_9null_typeEEEEEvT_E13stored_vtable @97 DATA
    _ZGVZN5boost9function1IiP9lua_StateSaINS_13function_baseEEE9assign_toIN7luabind6detail14mem_fn_matcherIMN6Hinage4GameEFvRNSA_4FontESsddddESB_NS8_9null_typeEEEEEvT_E13stored_vtable @98 DATA
    _ZGVZN5boost9function1IiP9lua_StateSaINS_13function_baseEEE9assign_toIN7luabind6detail14mem_fn_matcherIMN6Hinage4GameEFvdESB_NS8_9null_typeEEEEEvT_E13stored_vtable @99 DATA
    _ZGVZN5boost9function1IiP9lua_StateSaINS_13function_baseEEE9assign_toIN7luabind6detail14mem_fn_matcherIMN6Hinage4GameEFvvESB_NS8_9null_typeEEEEEvT_E13stored_vtable @100 DATA
    _ZGVZN5boost9function1IiP9lua_StateSaINS_13function_baseEEE9assign_toIN7luabind6detail14mem_fn_matcherIMN6Hinage5TimerEFbdESB_NS8_9null_typeEEEEEvT_E13stored_vtable @101 DATA
    _ZGVZN5boost9function1IiP9lua_StateSaINS_13function_baseEEE9assign_toIN7luabind6detail14mem_fn_matcherIMN6Hinage5TimerEFdvESB_NS8_9null_typeEEEEEvT_E13stored_vtable @102 DATA
    _ZGVZN5boost9function1IiP9lua_StateSaINS_13function_baseEEE9assign_toIN7luabind6detail14mem_fn_matcherIMN6Hinage5TimerEFvvESB_NS8_9null_typeEEEEEvT_E13stored_vtable @103 DATA
    _ZGVZN5boost9function1IiP9lua_StateSaINS_13function_baseEEE9assign_toIN7luabind6detail14mem_fn_matcherIMN6Hinage7DisplayEFdvESB_NS8_9null_typeEEEEEvT_E13stored_vtable @104 DATA
    _ZGVZN5boost9function1IiP9lua_StateSaINS_13function_baseEEE9assign_toIN7luabind6detail14mem_fn_matcherIMN6Hinage7DisplayEFfvESB_NS8_9null_typeEEEEEvT_E13stored_vtable @105 DATA
    _ZGVZN5boost9function1IiP9lua_StateSaINS_13function_baseEEE9assign_toIN7luabind6detail14mem_fn_matcherIMN6Hinage7DisplayEFvdESB_NS8_9null_typeEEEEEvT_E13stored_vtable @106 DATA
    _ZGVZN5boost9function1IiP9lua_StateSaINS_13function_baseEEE9assign_toIN7luabind6detail14mem_fn_matcherIMN6Hinage7DisplayEFvffESB_NS8_9null_typeEEEEEvT_E13stored_vtable @107 DATA
    _ZGVZN5boost9function1IiP9lua_StateSaINS_13function_baseEEE9assign_toIN7luabind6detail14mem_fn_matcherIMN6Hinage7Vector2IdEEFvdESC_NS8_9null_typeEEEEEvT_E13stored_vtable @108 DATA
    _ZGVZN5boost9function1IiP9lua_StateSaINS_13function_baseEEE9assign_toIN7luabind6detail14mem_fn_matcherIMN6Hinage7Vector2IdEEFvddESC_NS8_9null_typeEEEEEvT_E13stored_vtable @109 DATA
    _ZGVZN5boost9function1IiP9lua_StateSaINS_13function_baseEEE9assign_toIN7luabind6detail14mem_fn_matcherIMN6Hinage7Vector2IdEEKFdvESC_NS8_9null_typeEEEEEvT_E13stored_vtable @110 DATA
    _ZGVZN5boost9function1IiP9lua_StateSaINS_13function_baseEEE9assign_toIN7luabind6detail15mem_fn_callbackIM12AudioManagerFvSsESA_NS8_9null_typeEEEEEvT_E13stored_vtable @111 DATA
    _ZGVZN5boost9function1IiP9lua_StateSaINS_13function_baseEEE9assign_toIN7luabind6detail15mem_fn_callbackIM12AudioManagerFvSsbESA_NS8_9null_typeEEEEEvT_E13stored_vtable @112 DATA
    _ZGVZN5boost9function1IiP9lua_StateSaINS_13function_baseEEE9assign_toIN7luabind6detail15mem_fn_callbackIM12AudioManagerFvvESA_NS8_9null_typeEEEEEvT_E13stored_vtable @113 DATA
    _ZGVZN5boost9function1IiP9lua_StateSaINS_13function_baseEEE9assign_toIN7luabind6detail15mem_fn_callbackIMN6Hinage12InputManagerEFbiESB_NS8_9null_typeEEEEEvT_E13stored_vtable @114 DATA
    _ZGVZN5boost9function1IiP9lua_StateSaINS_13function_baseEEE9assign_toIN7luabind6detail15mem_fn_callbackIMN6Hinage14PhysicalEntityEFSsvESB_NS8_9null_typeEEEEEvT_E13stored_vtable @115 DATA
    _ZGVZN5boost9function1IiP9lua_StateSaINS_13function_baseEEE9assign_toIN7luabind6detail15mem_fn_callbackIMN6Hinage14PhysicalEntityEFbSsbdESB_NS8_9null_typeEEEEEvT_E13stored_vtable @116 DATA
    _ZGVZN5boost9function1IiP9lua_StateSaINS_13function_baseEEE9assign_toIN7luabind6detail15mem_fn_callbackIMN6Hinage14PhysicalEntityEFdvESB_NS8_9null_typeEEEEEvT_E13stored_vtable @117 DATA
    _ZGVZN5boost9function1IiP9lua_StateSaINS_13function_baseEEE9assign_toIN7luabind6detail15mem_fn_callbackIMN6Hinage14PhysicalEntityEFivESB_NS8_9null_typeEEEEEvT_E13stored_vtable @118 DATA
    _ZGVZN5boost9function1IiP9lua_StateSaINS_13function_baseEEE9assign_toIN7luabind6detail15mem_fn_callbackIMN6Hinage14PhysicalEntityEFvbESB_NS8_9null_typeEEEEEvT_E13stored_vtable @119 DATA
    _ZGVZN5boost9function1IiP9lua_StateSaINS_13function_baseEEE9assign_toIN7luabind6detail15mem_fn_callbackIMN6Hinage14PhysicalEntityEFvdESB_NS8_9null_typeEEEEEvT_E13stored_vtable @120 DATA
    _ZGVZN5boost9function1IiP9lua_StateSaINS_13function_baseEEE9assign_toIN7luabind6detail15mem_fn_callbackIMN6Hinage14PhysicalEntityEFvddESB_NS8_9null_typeEEEEEvT_E13stored_vtable @121 DATA
    _ZGVZN5boost9function1IiP9lua_StateSaINS_13function_baseEEE9assign_toIN7luabind6detail15mem_fn_callbackIMN6Hinage14PhysicalEntityEFvdddESB_NS8_9null_typeEEEEEvT_E13stored_vtable @122 DATA
    _ZGVZN5boost9function1IiP9lua_StateSaINS_13function_baseEEE9assign_toIN7luabind6detail15mem_fn_callbackIMN6Hinage3MapEFRNSA_14PhysicalEntityESsddESB_NS8_9null_typeEEEEEvT_E13stored_vtable @123 DATA
    _ZGVZN5boost9function1IiP9lua_StateSaINS_13function_baseEEE9assign_toIN7luabind6detail15mem_fn_callbackIMN6Hinage3MapEFRNSA_14PhysicalEntityEiESB_NS8_9null_typeEEEEEvT_E13stored_vtable @124 DATA
    _ZGVZN5boost9function1IiP9lua_StateSaINS_13function_baseEEE9assign_toIN7luabind6detail15mem_fn_callbackIMN6Hinage3MapEFivESB_NS8_9null_typeEEEEEvT_E13stored_vtable @125 DATA
    _ZGVZN5boost9function1IiP9lua_StateSaINS_13function_baseEEE9assign_toIN7luabind6detail15mem_fn_callbackIMN6Hinage3MapEFvSsESB_NS8_9null_typeEEEEEvT_E13stored_vtable @126 DATA
    _ZGVZN5boost9function1IiP9lua_StateSaINS_13function_baseEEE9assign_toIN7luabind6detail15mem_fn_callbackIMN6Hinage3MapEFvSsbESB_NS8_9null_typeEEEEEvT_E13stored_vtable @127 DATA
    _ZGVZN5boost9function1IiP9lua_StateSaINS_13function_baseEEE9assign_toIN7luabind6detail15mem_fn_callbackIMN6Hinage3MapEFviESB_NS8_9null_typeEEEEEvT_E13stored_vtable @128 DATA
    _ZGVZN5boost9function1IiP9lua_StateSaINS_13function_baseEEE9assign_toIN7luabind6detail15mem_fn_callbackIMN6Hinage3MapEFvvESB_NS8_9null_typeEEEEEvT_E13stored_vtable @129 DATA
    _ZGVZN5boost9function1IiP9lua_StateSaINS_13function_baseEEE9assign_toIN7luabind6detail15mem_fn_callbackIMN6Hinage3MapEKFivESB_NS8_9null_typeEEEEEvT_E13stored_vtable @130 DATA
    _ZGVZN5boost9function1IiP9lua_StateSaINS_13function_baseEEE9assign_toIN7luabind6detail15mem_fn_callbackIMN6Hinage4GameEFRNSA_4FontESsESB_NS8_9null_typeEEEEEvT_E13stored_vtable @131 DATA
    _ZGVZN5boost9function1IiP9lua_StateSaINS_13function_baseEEE9assign_toIN7luabind6detail15mem_fn_callbackIMN6Hinage4GameEFdvESB_NS8_9null_typeEEEEEvT_E13stored_vtable @132 DATA
    _ZGVZN5boost9function1IiP9lua_StateSaINS_13function_baseEEE9assign_toIN7luabind6detail15mem_fn_callbackIMN6Hinage4GameEFvRNSA_4FontESsddddESB_NS8_9null_typeEEEEEvT_E13stored_vtable @133 DATA
    _ZGVZN5boost9function1IiP9lua_StateSaINS_13function_baseEEE9assign_toIN7luabind6detail15mem_fn_callbackIMN6Hinage4GameEFvdESB_NS8_9null_typeEEEEEvT_E13stored_vtable @134 DATA
    _ZGVZN5boost9function1IiP9lua_StateSaINS_13function_baseEEE9assign_toIN7luabind6detail15mem_fn_callbackIMN6Hinage4GameEFvvESB_NS8_9null_typeEEEEEvT_E13stored_vtable @135 DATA
    _ZGVZN5boost9function1IiP9lua_StateSaINS_13function_baseEEE9assign_toIN7luabind6detail15mem_fn_callbackIMN6Hinage5TimerEFbdESB_NS8_9null_typeEEEEEvT_E13stored_vtable @136 DATA
    _ZGVZN5boost9function1IiP9lua_StateSaINS_13function_baseEEE9assign_toIN7luabind6detail15mem_fn_callbackIMN6Hinage5TimerEFdvESB_NS8_9null_typeEEEEEvT_E13stored_vtable @137 DATA
    _ZGVZN5boost9function1IiP9lua_StateSaINS_13function_baseEEE9assign_toIN7luabind6detail15mem_fn_callbackIMN6Hinage5TimerEFvvESB_NS8_9null_typeEEEEEvT_E13stored_vtable @138 DATA
    _ZGVZN5boost9function1IiP9lua_StateSaINS_13function_baseEEE9assign_toIN7luabind6detail15mem_fn_callbackIMN6Hinage7DisplayEFdvESB_NS8_9null_typeEEEEEvT_E13stored_vtable @139 DATA
    _ZGVZN5boost9function1IiP9lua_StateSaINS_13function_baseEEE9assign_toIN7luabind6detail15mem_fn_callbackIMN6Hinage7DisplayEFfvESB_NS8_9null_typeEEEEEvT_E13stored_vtable @140 DATA
    _ZGVZN5boost9function1IiP9lua_StateSaINS_13function_baseEEE9assign_toIN7luabind6detail15mem_fn_callbackIMN6Hinage7DisplayEFvdESB_NS8_9null_typeEEEEEvT_E13stored_vtable @141 DATA
    _ZGVZN5boost9function1IiP9lua_StateSaINS_13function_baseEEE9assign_toIN7luabind6detail15mem_fn_callbackIMN6Hinage7DisplayEFvffESB_NS8_9null_typeEEEEEvT_E13stored_vtable @142 DATA
    _ZGVZN5boost9function1IiP9lua_StateSaINS_13function_baseEEE9assign_toIN7luabind6detail15mem_fn_callbackIMN6Hinage7Vector2IdEEFvdESC_NS8_9null_typeEEEEEvT_E13stored_vtable @143 DATA
    _ZGVZN5boost9function1IiP9lua_StateSaINS_13function_baseEEE9assign_toIN7luabind6detail15mem_fn_callbackIMN6Hinage7Vector2IdEEFvddESC_NS8_9null_typeEEEEEvT_E13stored_vtable @144 DATA
    _ZGVZN5boost9function1IiP9lua_StateSaINS_13function_baseEEE9assign_toIN7luabind6detail15mem_fn_callbackIMN6Hinage7Vector2IdEEKFdvESC_NS8_9null_typeEEEEEvT_E13stored_vtable @145 DATA
    _ZGVZN5boost9function1IiP9lua_StateSaINS_13function_baseEEE9assign_toIPFiS2_EEEvT_E13stored_vtable @146 DATA
    _ZGVZN5boost9function2IiP9lua_StateiSaINS_13function_baseEEE9assign_toINS_3_bi6bind_tIiN7luabind6detail8auto_getIN6Hinage14PhysicalEntityEbNSA_9null_typeEEENS7_5list3IPFNS_3argILi1EEEvEPFNSH_ILi2EEEvENS7_5valueIMSD_bEEEEEEEEvT_E13stored_vtable @147 DATA
    _ZN11TiXmlCursor5ClearEv @148
    _ZN11TiXmlCursorC1Ev @149
    _ZN11TiXmlHandleC1EP9TiXmlNode @150
    _ZN11TiXmlString4initEj @151
    _ZN11TiXmlString4initEjj @152
    _ZN11TiXmlString4nposE @153 DATA
    _ZN11TiXmlString4quitEv @154
    _ZN11TiXmlString4swapERS_ @155
    _ZN11TiXmlString6appendEPKcj @156
    _ZN11TiXmlString6assignEPKcj @157
    _ZN11TiXmlString7reserveEj @158
    _ZN11TiXmlString8nullrep_E @159 DATA
    _ZN11TiXmlString8set_sizeEj @160
    _ZN11TiXmlStringC1EPKc @161
    _ZN11TiXmlStringC1Ev @162
    _ZN11TiXmlStringD1Ev @163
    _ZN11TiXmlStringaSEPKc @164
    _ZN11TiXmlStringaSERKS_ @165
    _ZN11TiXmlStringpLEPKc @166
    _ZN11TiXmlStringpLERKS_ @167
    _ZN11TiXmlStringpLEc @168
    _ZN12AudioManager10initializeEii @169
    _ZN12AudioManager7loadOggESsSs @170
    _ZN12AudioManager7loadWavESsSs @171
    _ZN12AudioManager7playOggESsb @172
    _ZN12AudioManager7playWavESs @173
    _ZN12AudioManager7stopOggEv @174
    _ZN12AudioManagerC1Ev @175
    _ZN12AudioManagerD1Ev @176
    _ZN12TiXmlComment5ParseEPKcP16TiXmlParsingData13TiXmlEncoding @177
    _ZN12TiXmlComment9ToCommentEv @178
    _ZN12TiXmlCommentC1ERKS_ @179
    _ZN12TiXmlCommentC1Ev @180
    _ZN12TiXmlCommentC2ERKS_ @181
    _ZN12TiXmlCommentD0Ev @182
    _ZN12TiXmlCommentD1Ev @183
    _ZN12TiXmlCommentaSERKS_ @184
    _ZN12TiXmlElement12SetAttributeEPKcS1_ @185
    _ZN12TiXmlElement12SetAttributeEPKci @186
    _ZN12TiXmlElement15RemoveAttributeEPKc @187
    _ZN12TiXmlElement18SetDoubleAttributeEPKcd @188
    _ZN12TiXmlElement5ParseEPKcP16TiXmlParsingData13TiXmlEncoding @189
    _ZN12TiXmlElement9ClearThisEv @190
    _ZN12TiXmlElement9ReadValueEPKcP16TiXmlParsingData13TiXmlEncoding @191
    _ZN12TiXmlElement9ToElementEv @192
    _ZN12TiXmlElementC1EPKc @193
    _ZN12TiXmlElementC1ERKS_ @194
    _ZN12TiXmlElementC2EPKc @195
    _ZN12TiXmlElementC2ERKS_ @196
    _ZN12TiXmlElementD0Ev @197
    _ZN12TiXmlElementD1Ev @198
    _ZN12TiXmlElementD2Ev @199
    _ZN12TiXmlElementaSERKS_ @200
    _ZN12TiXmlPrinter10VisitEnterERK12TiXmlElementPK14TiXmlAttribute @201
    _ZN12TiXmlPrinter10VisitEnterERK13TiXmlDocument @202
    _ZN12TiXmlPrinter11DoLineBreakEv @203
    _ZN12TiXmlPrinter5VisitERK12TiXmlComment @204
    _ZN12TiXmlPrinter5VisitERK12TiXmlUnknown @205
    _ZN12TiXmlPrinter5VisitERK16TiXmlDeclaration @206
    _ZN12TiXmlPrinter5VisitERK9TiXmlText @207
    _ZN12TiXmlPrinter8DoIndentEv @208
    _ZN12TiXmlPrinter9VisitExitERK12TiXmlElement @209
    _ZN12TiXmlPrinter9VisitExitERK13TiXmlDocument @210
    _ZN12TiXmlPrinterD0Ev @211
    _ZN12TiXmlPrinterD1Ev @212
    _ZN12TiXmlUnknown5ParseEPKcP16TiXmlParsingData13TiXmlEncoding @213
    _ZN12TiXmlUnknown9ToUnknownEv @214
    _ZN12TiXmlUnknownC1Ev @215
    _ZN12TiXmlUnknownD0Ev @216
    _ZN12TiXmlUnknownD1Ev @217
    _ZN12TiXmlVisitor10VisitEnterERK12TiXmlElementPK14TiXmlAttribute @218
    _ZN12TiXmlVisitor10VisitEnterERK13TiXmlDocument @219
    _ZN12TiXmlVisitor5VisitERK12TiXmlComment @220
    _ZN12TiXmlVisitor5VisitERK12TiXmlUnknown @221
    _ZN12TiXmlVisitor5VisitERK16TiXmlDeclaration @222
    _ZN12TiXmlVisitor5VisitERK9TiXmlText @223
    _ZN12TiXmlVisitor9VisitExitERK12TiXmlElement @224
    _ZN12TiXmlVisitor9VisitExitERK13TiXmlDocument @225
    _ZN12TiXmlVisitorD0Ev @226
    _ZN12TiXmlVisitorD1Ev @227
    _ZN12TiXmlVisitorD2Ev @228
    _ZN13TiXmlDocument10ClearErrorEv @229
    _ZN13TiXmlDocument10ToDocumentEv @230
    _ZN13TiXmlDocument5ParseEPKcP16TiXmlParsingData13TiXmlEncoding @231
    _ZN13TiXmlDocument8LoadFileE13TiXmlEncoding @232
    _ZN13TiXmlDocument8LoadFileEP6_iobuf13TiXmlEncoding @233
    _ZN13TiXmlDocument8LoadFileEPKc13TiXmlEncoding @234
    _ZN13TiXmlDocument8SetErrorEiPKcP16TiXmlParsingData13TiXmlEncoding @235
    _ZN13TiXmlDocumentC1EPKc @236
    _ZN13TiXmlDocumentC1ERKS_ @237
    _ZN13TiXmlDocumentC1Ev @238
    _ZN13TiXmlDocumentC2EPKc @239
    _ZN13TiXmlDocumentC2ERKS_ @240
    _ZN13TiXmlDocumentC2Ev @241
    _ZN13TiXmlDocumentD0Ev @242
    _ZN13TiXmlDocumentD1Ev @243
    _ZN13TiXmlDocumentaSERKS_ @244
    _ZN14TiXmlAttribute11SetDocumentEP13TiXmlDocument @245
    _ZN14TiXmlAttribute11SetIntValueEi @246
    _ZN14TiXmlAttribute14SetDoubleValueEd @247
    _ZN14TiXmlAttribute5ParseEPKcP16TiXmlParsingData13TiXmlEncoding @248
    _ZN14TiXmlAttribute8SetValueEPKc @249
    _ZN14TiXmlAttributeC1EPKcS1_ @250
    _ZN14TiXmlAttributeC1Ev @251
    _ZN14TiXmlAttributeD0Ev @252
    _ZN14TiXmlAttributeD1Ev @253
    _ZN16TiXmlDeclaration13ToDeclarationEv @254
    _ZN16TiXmlDeclaration5ParseEPKcP16TiXmlParsingData13TiXmlEncoding @255
    _ZN16TiXmlDeclarationC1EPKcS1_S1_ @256
    _ZN16TiXmlDeclarationC1ERKS_ @257
    _ZN16TiXmlDeclarationC1Ev @258
    _ZN16TiXmlDeclarationC2EPKcS1_S1_ @259
    _ZN16TiXmlDeclarationC2ERKS_ @260
    _ZN16TiXmlDeclarationD0Ev @261
    _ZN16TiXmlDeclarationD1Ev @262
    _ZN16TiXmlDeclarationaSERKS_ @263
    _ZN16TiXmlParsingData5StampEPKc13TiXmlEncoding @264
    _ZN16TiXmlParsingData6CursorEv @265
    _ZN16TiXmlParsingDataC1EPKciii @266
    _ZN17TiXmlAttributeSet3AddEP14TiXmlAttribute @267
    _ZN17TiXmlAttributeSet4FindEPKc @268
    _ZN17TiXmlAttributeSet5FirstEv @269
    _ZN17TiXmlAttributeSet6RemoveEP14TiXmlAttribute @270
    _ZN17TiXmlAttributeSetC1Ev @271
    _ZN17TiXmlAttributeSetC2Ev @272
    _ZN17TiXmlAttributeSetD1Ev @273
    _ZN17TiXmlAttributeSetD2Ev @274
    _ZN5boost10filesystem10basic_pathISsNS0_11path_traitsEE11remove_leafEv @275
    _ZN5boost10filesystem10basic_pathISsNS0_11path_traitsEE28m_append_separator_if_neededEv @276
    _ZN5boost10filesystem10basic_pathISsNS0_11path_traitsEE8m_appendEc @277
    _ZN5boost10filesystem10basic_pathISsNS0_11path_traitsEEC1ERKS3_ @278
    _ZN5boost10filesystem10basic_pathISsNS0_11path_traitsEEC1ERKSs @279
    _ZN5boost10filesystem10basic_pathISsNS0_11path_traitsEEC1Ev @280
    _ZN5boost10filesystem10basic_pathISsNS0_11path_traitsEED1Ev @281
    _ZN5boost10filesystem10basic_pathISsNS0_11path_traitsEEaSERKS3_ @282
    _ZN5boost10filesystem10basic_pathISsNS0_11path_traitsEEdVEPKc @283
    _ZN5boost10filesystem10basic_pathISsNS0_11path_traitsEEdVERKS3_ @284
    _ZN5boost10filesystem10basic_pathISsNS0_11path_traitsEEdVERKSs @285
    _ZN5boost10filesystem11file_statusC1ENS0_9file_typeE @286
    _ZN5boost10filesystem11path_traits11to_externalERKNS0_10basic_pathISsS1_EERKSs @287
    _ZN5boost10filesystem11path_traits11to_internalERKSs @288
    _ZN5boost10filesystem12is_directoryENS0_11file_statusE @289
    _ZN5boost10filesystem12status_knownENS0_11file_statusE @290
    _ZN5boost10filesystem16filesystem_errorC2ERKS1_ @291
    _ZN5boost10filesystem16filesystem_errorC2ERKSsj @292
    _ZN5boost10filesystem16filesystem_errorD0Ev @293
    _ZN5boost10filesystem16filesystem_errorD1Ev @294
    _ZN5boost10filesystem16filesystem_errorD2Ev @295
    _ZN5boost10filesystem21basic_directory_entryINS0_10basic_pathISsNS0_11path_traitsEEEE12replace_leafERKSsNS0_11file_statusES8_ @296
    _ZN5boost10filesystem21basic_directory_entryINS0_10basic_pathISsNS0_11path_traitsEEEE6assignERKS4_NS0_11file_statusES8_ @297
    _ZN5boost10filesystem21basic_directory_entryINS0_10basic_pathISsNS0_11path_traitsEEEEC1ERKS5_ @298
    _ZN5boost10filesystem21basic_directory_entryINS0_10basic_pathISsNS0_11path_traitsEEEEC1Ev @299
    _ZN5boost10filesystem21basic_directory_entryINS0_10basic_pathISsNS0_11path_traitsEEEED1Ev @300
    _ZN5boost10filesystem22basic_filesystem_errorINS0_10basic_pathISsNS0_11path_traitsEEEE5m_impC1Ev @301
    _ZN5boost10filesystem22basic_filesystem_errorINS0_10basic_pathISsNS0_11path_traitsEEEE5m_impD1Ev @302
    _ZN5boost10filesystem22basic_filesystem_errorINS0_10basic_pathISsNS0_11path_traitsEEEEC1ERKS5_ @303
    _ZN5boost10filesystem22basic_filesystem_errorINS0_10basic_pathISsNS0_11path_traitsEEEEC1ERKSsRKS4_j @304
    _ZN5boost10filesystem22basic_filesystem_errorINS0_10basic_pathISsNS0_11path_traitsEEEED0Ev @305
    _ZN5boost10filesystem22basic_filesystem_errorINS0_10basic_pathISsNS0_11path_traitsEEEED1Ev @306
    _ZN5boost10filesystem24basic_directory_iteratorINS0_10basic_pathISsNS0_11path_traitsEEEE6m_initERKS4_ @307
    _ZN5boost10filesystem24basic_directory_iteratorINS0_10basic_pathISsNS0_11path_traitsEEEE9incrementEv @308
    _ZN5boost10filesystem24basic_directory_iteratorINS0_10basic_pathISsNS0_11path_traitsEEEEC1ERKS4_ @309
    _ZN5boost10filesystem24basic_directory_iteratorINS0_10basic_pathISsNS0_11path_traitsEEEEC1Ev @310
    _ZN5boost10filesystem24basic_directory_iteratorINS0_10basic_pathISsNS0_11path_traitsEEEED1Ev @311
    _ZN5boost10filesystem6detail11dir_itr_impINS0_10basic_pathISsNS0_11path_traitsEEEEC1Ev @312
    _ZN5boost10filesystem6detail11dir_itr_impINS0_10basic_pathISsNS0_11path_traitsEEEED1Ev @313
    _ZN5boost10filesystem6detail12is_separatorINS0_10basic_pathISsNS0_11path_traitsEEEEEbNT_11string_type10value_typeE @314
    _ZN5boost10filesystem6detail17is_non_root_slashISsNS0_11path_traitsEEEbRKT_NS4_9size_typeE @315
    _ZN5boost10filesystem6detail20root_directory_startISsNS0_11path_traitsEEENT_9size_typeERKS4_S5_ @316
    _ZN5boost10filesystem6detail8leaf_posISsNS0_11path_traitsEEENT_9size_typeERKS4_S5_ @317
    _ZN5boost10filesystem6statusERKNS0_10basic_pathISsNS0_11path_traitsEEE @318
    _ZN5boost10filesystem8basenameERKNS0_10basic_pathISsNS0_11path_traitsEEE @319
    _ZN5boost10filesystem9extensionERKNS0_10basic_pathISsNS0_11path_traitsEEE @320
    _ZN5boost10filesystemdvISsNS0_11path_traitsEEENS0_10basic_pathIT_T0_EERKS6_RKS4_ @321
    _ZN5boost10shared_ptrIN6Hinage8ParticleEEC1ERKS3_ @322
    _ZN5boost10shared_ptrIN6Hinage8ParticleEEC1IS2_EEPT_ @323
    _ZN5boost10shared_ptrIN6Hinage8ParticleEED1Ev @324
    _ZN5boost10shared_ptrINS_10filesystem22basic_filesystem_errorINS1_10basic_pathISsNS1_11path_traitsEEEE5m_impEE4swapERS8_ @325
    _ZN5boost10shared_ptrINS_10filesystem22basic_filesystem_errorINS1_10basic_pathISsNS1_11path_traitsEEEE5m_impEE5resetEv @326
    _ZN5boost10shared_ptrINS_10filesystem22basic_filesystem_errorINS1_10basic_pathISsNS1_11path_traitsEEEE5m_impEE5resetIS7_EEvPT_ @327
    _ZN5boost10shared_ptrINS_10filesystem22basic_filesystem_errorINS1_10basic_pathISsNS1_11path_traitsEEEE5m_impEEC1ERKS8_ @328
    _ZN5boost10shared_ptrINS_10filesystem22basic_filesystem_errorINS1_10basic_pathISsNS1_11path_traitsEEEE5m_impEEC1Ev @329
    _ZN5boost10shared_ptrINS_10filesystem22basic_filesystem_errorINS1_10basic_pathISsNS1_11path_traitsEEEE5m_impEEC1IS7_EEPT_ @330
    _ZN5boost10shared_ptrINS_10filesystem22basic_filesystem_errorINS1_10basic_pathISsNS1_11path_traitsEEEE5m_impEED1Ev @331
    _ZN5boost10shared_ptrINS_10filesystem6detail11dir_itr_impINS1_10basic_pathISsNS1_11path_traitsEEEEEE4swapERS8_ @332
    _ZN5boost10shared_ptrINS_10filesystem6detail11dir_itr_impINS1_10basic_pathISsNS1_11path_traitsEEEEEE5resetEv @333
    _ZN5boost10shared_ptrINS_10filesystem6detail11dir_itr_impINS1_10basic_pathISsNS1_11path_traitsEEEEEEC1Ev @334
    _ZN5boost10shared_ptrINS_10filesystem6detail11dir_itr_impINS1_10basic_pathISsNS1_11path_traitsEEEEEEC1IS7_EEPT_ @335
    _ZN5boost10shared_ptrINS_10filesystem6detail11dir_itr_impINS1_10basic_pathISsNS1_11path_traitsEEEEEED1Ev @336
    _ZN5boost11get_pointerI12AudioManagerEEPT_S3_ @337
    _ZN5boost11get_pointerIN6Hinage12InputManagerEEEPT_S4_ @338
    _ZN5boost11get_pointerIN6Hinage3MapEEEPT_S4_ @339
    _ZN5boost11get_pointerIN6Hinage4GameEEEPT_S4_ @340
    _ZN5boost11get_pointerIN6Hinage5TimerEEEPT_S4_ @341
    _ZN5boost11get_pointerIN6Hinage7DisplayEEEPT_S4_ @342
    _ZN5boost13function_baseC2Ev @343
    _ZN5boost13implicit_castIPNS_10filesystem21basic_directory_entryINS1_10basic_pathISsNS1_11path_traitsEEEEEEET_NS_3mpl8identityIS8_E4typeE @344
    _ZN5boost13implicit_castIRA10_KcEET_NS_3mpl8identityIS4_E4typeE @345
    _ZN5boost13implicit_castIRA4_KcEET_NS_3mpl8identityIS4_E4typeE @346
    _ZN5boost13implicit_castIRA5_KcEET_NS_3mpl8identityIS4_E4typeE @347
    _ZN5boost13implicit_castIRA6_KcEET_NS_3mpl8identityIS4_E4typeE @348
    _ZN5boost13implicit_castIRA7_KcEET_NS_3mpl8identityIS4_E4typeE @349
    _ZN5boost13implicit_castIRKP12AudioManagerEET_NS_3mpl8identityIS5_E4typeE @350
    _ZN5boost13implicit_castIRKPN6Hinage12InputManagerEEET_NS_3mpl8identityIS6_E4typeE @351
    _ZN5boost13implicit_castIRKPN6Hinage3MapEEET_NS_3mpl8identityIS6_E4typeE @352
    _ZN5boost13implicit_castIRKPN6Hinage4GameEEET_NS_3mpl8identityIS6_E4typeE @353
    _ZN5boost13implicit_castIRKPN6Hinage5TimerEEET_NS_3mpl8identityIS6_E4typeE @354
    _ZN5boost13implicit_castIRKPN6Hinage7DisplayEEET_NS_3mpl8identityIS6_E4typeE @355
    _ZN5boost14checked_deleteIN6Hinage8ParticleEEEvPT_ @356
    _ZN5boost14checked_deleteINS_10filesystem22basic_filesystem_errorINS1_10basic_pathISsNS1_11path_traitsEEEE5m_impEEEvPT_ @357
    _ZN5boost14checked_deleteINS_10filesystem6detail11dir_itr_impINS1_10basic_pathISsNS1_11path_traitsEEEEEEEvPT_ @358
    _ZN5boost15iterator_facadeINS_10filesystem24basic_directory_iteratorINS1_10basic_pathISsNS1_11path_traitsEEEEENS1_21basic_directory_entryIS5_EENS_25single_pass_traversal_tagERS8_iE7derivedEv @359
    _ZN5boost15iterator_facadeINS_10filesystem24basic_directory_iteratorINS1_10basic_pathISsNS1_11path_traitsEEEEENS1_21basic_directory_entryIS5_EENS_25single_pass_traversal_tagERS8_iEC2Ev @360
    _ZN5boost15iterator_facadeINS_10filesystem24basic_directory_iteratorINS1_10basic_pathISsNS1_11path_traitsEEEEENS1_21basic_directory_entryIS5_EENS_25single_pass_traversal_tagERS8_iEppEv @361
    _ZN5boost15throw_exceptionINS_10filesystem22basic_filesystem_errorINS1_10basic_pathISsNS1_11path_traitsEEEEEEEvRKT_ @362
    _ZN5boost20iterator_core_access11dereferenceINS_10filesystem24basic_directory_iteratorINS2_10basic_pathISsNS2_11path_traitsEEEEEEENT_9referenceERKS8_ @363
    _ZN5boost20iterator_core_access5equalINS_10filesystem24basic_directory_iteratorINS2_10basic_pathISsNS2_11path_traitsEEEEES7_EEbRKT_RKT0_N4mpl_5bool_ILb1EEE @364
    _ZN5boost20iterator_core_access9incrementINS_10filesystem24basic_directory_iteratorINS2_10basic_pathISsNS2_11path_traitsEEEEEEEvRT_ @365
    _ZN5boost3_bi5list2IRP9lua_StateRiEC1ES4_S5_ @366
    _ZN5boost3_bi5list3IPFNS_3argILi1EEEvEPFNS2_ILi2EEEvENS0_5valueIMN6Hinage14PhysicalEntityEbEEEC1ES5_S8_SD_ @367
    _ZN5boost3_bi5list3IPFNS_3argILi1EEEvEPFNS2_ILi2EEEvENS0_5valueIMN6Hinage14PhysicalEntityEbEEEclIiN7luabind6detail8auto_getISB_bNSH_9null_typeEEENS0_5list2IRP9lua_StateRiEEEET_NS0_4typeISR_EERT0_RT1_l @368
    _ZN5boost3_bi5valueIMN6Hinage14PhysicalEntityEbE3getEv @369
    _ZN5boost3_bi5valueIMN6Hinage14PhysicalEntityEbEC1ERKS4_ @370
    _ZN5boost3_bi6bind_tIiN7luabind6detail8auto_getIN6Hinage14PhysicalEntityEbNS3_9null_typeEEENS0_5list3IPFNS_3argILi1EEEvEPFNSA_ILi2EEEvENS0_5valueIMS6_bEEEEEC1ES8_RKSK_ @371
    _ZN5boost3_bi6bind_tIiN7luabind6detail8auto_getIN6Hinage14PhysicalEntityEbNS3_9null_typeEEENS0_5list3IPFNS_3argILi1EEEvEPFNSA_ILi2EEEvENS0_5valueIMS6_bEEEEEclIP9lua_StateiEEiRT_RT0_ @372
    _ZN5boost3_bi8storage1IPFNS_3argILi1EEEvEE3a1_Ev @373
    _ZN5boost3_bi8storage1IPFNS_3argILi1EEEvEEC2ES5_ @374
    _ZN5boost3_bi8storage1IRP9lua_StateEC2ES4_ @375
    _ZN5boost3_bi8storage2IPFNS_3argILi1EEEvEPFNS2_ILi2EEEvEE3a2_Ev @376
    _ZN5boost3_bi8storage2IPFNS_3argILi1EEEvEPFNS2_ILi2EEEvEEC2ES5_S8_ @377
    _ZN5boost3_bi8storage2IRP9lua_StateRiEC2ES4_S5_ @378
    _ZN5boost3_bi8storage3IPFNS_3argILi1EEEvEPFNS2_ILi2EEEvENS0_5valueIMN6Hinage14PhysicalEntityEbEEEC2ES5_S8_SD_ @379
    _ZN5boost3_bi9unwrapperIN7luabind6detail8auto_getIN6Hinage14PhysicalEntityEbNS3_9null_typeEEEE6unwrapERS8_l @380
    _ZN5boost4bindIiN7luabind6detail8auto_getIN6Hinage14PhysicalEntityEbNS2_9null_typeEEEPFNS_3argILi1EEEvEPFNS8_ILi2EEEvEMS5_bEENS_3_bi6bind_tIT_T0_NSG_9list_av_3IT1_T2_T3_E4typeEEESJ_SL_SM_SN_ @381
    _ZN5boost6detail12shared_count4swapERS1_ @382
    _ZN5boost6detail12shared_countC1ERKS1_ @383
    _ZN5boost6detail12shared_countC1Ev @384
    _ZN5boost6detail12shared_countC1IN6Hinage8ParticleEEEPT_ @385
    _ZN5boost6detail12shared_countC1INS_10filesystem22basic_filesystem_errorINS3_10basic_pathISsNS3_11path_traitsEEEE5m_impEEEPT_ @386
    _ZN5boost6detail12shared_countC1INS_10filesystem6detail11dir_itr_impINS3_10basic_pathISsNS3_11path_traitsEEEEEEEPT_ @387
    _ZN5boost6detail12shared_countD1Ev @388
    _ZN5boost6detail15sp_counted_base12add_ref_copyEv @389
    _ZN5boost6detail15sp_counted_base12weak_releaseEv @390
    _ZN5boost6detail15sp_counted_base7destroyEv @391
    _ZN5boost6detail15sp_counted_base7releaseEv @392
    _ZN5boost6detail15sp_counted_baseC2Ev @393
    _ZN5boost6detail15sp_counted_baseD0Ev @394
    _ZN5boost6detail15sp_counted_baseD1Ev @395
    _ZN5boost6detail15sp_counted_baseD2Ev @396
    _ZN5boost6detail16atomic_incrementEPi @397
    _ZN5boost6detail17sp_counted_impl_pIN6Hinage8ParticleEE11get_deleterERKSt9type_info @398
    _ZN5boost6detail17sp_counted_impl_pIN6Hinage8ParticleEE7disposeEv @399
    _ZN5boost6detail17sp_counted_impl_pIN6Hinage8ParticleEEC1EPS3_ @400
    _ZN5boost6detail17sp_counted_impl_pIN6Hinage8ParticleEED0Ev @401
    _ZN5boost6detail17sp_counted_impl_pIN6Hinage8ParticleEED1Ev @402
    _ZN5boost6detail17sp_counted_impl_pINS_10filesystem22basic_filesystem_errorINS2_10basic_pathISsNS2_11path_traitsEEEE5m_impEE11get_deleterERKSt9type_info @403
    _ZN5boost6detail17sp_counted_impl_pINS_10filesystem22basic_filesystem_errorINS2_10basic_pathISsNS2_11path_traitsEEEE5m_impEE7disposeEv @404
    _ZN5boost6detail17sp_counted_impl_pINS_10filesystem22basic_filesystem_errorINS2_10basic_pathISsNS2_11path_traitsEEEE5m_impEEC1EPS8_ @405
    _ZN5boost6detail17sp_counted_impl_pINS_10filesystem22basic_filesystem_errorINS2_10basic_pathISsNS2_11path_traitsEEEE5m_impEED0Ev @406
    _ZN5boost6detail17sp_counted_impl_pINS_10filesystem22basic_filesystem_errorINS2_10basic_pathISsNS2_11path_traitsEEEE5m_impEED1Ev @407
    _ZN5boost6detail17sp_counted_impl_pINS_10filesystem6detail11dir_itr_impINS2_10basic_pathISsNS2_11path_traitsEEEEEE11get_deleterERKSt9type_info @408
    _ZN5boost6detail17sp_counted_impl_pINS_10filesystem6detail11dir_itr_impINS2_10basic_pathISsNS2_11path_traitsEEEEEE7disposeEv @409
    _ZN5boost6detail17sp_counted_impl_pINS_10filesystem6detail11dir_itr_impINS2_10basic_pathISsNS2_11path_traitsEEEEEEC1EPS8_ @410
    _ZN5boost6detail17sp_counted_impl_pINS_10filesystem6detail11dir_itr_impINS2_10basic_pathISsNS2_11path_traitsEEEEEED0Ev @411
    _ZN5boost6detail17sp_counted_impl_pINS_10filesystem6detail11dir_itr_impINS2_10basic_pathISsNS2_11path_traitsEEEEEED1Ev @412
    _ZN5boost6detail21operator_arrow_resultINS_10filesystem21basic_directory_entryINS2_10basic_pathISsNS2_11path_traitsEEEEERS7_PS7_E4makeES8_ @413
    _ZN5boost6detail23atomic_exchange_and_addEPii @414
    _ZN5boost6detail23postfix_increment_proxyINS_10filesystem24basic_directory_iteratorINS2_10basic_pathISsNS2_11path_traitsEEEEEEC1ERKS7_ @415
    _ZN5boost6detail23postfix_increment_proxyINS_10filesystem24basic_directory_iteratorINS2_10basic_pathISsNS2_11path_traitsEEEEEED1Ev @416
    _ZN5boost6detail26sp_enable_shared_from_thisERKNS0_12shared_countEz @417
    _ZN5boost6detail8function11vtable_baseC2Ev @418
    _ZN5boost6detail8function13basic_vtable1IiP9lua_StateSaINS_13function_baseEEE14assign_functorIN7luabind6detail14mem_fn_matcherIM12AudioManagerFvSsESC_NSA_9null_typeEEEEEvT_RNS1_15function_bufferEN4mpl_5bool_ILb1EEE @419
    _ZN5boost6detail8function13basic_vtable1IiP9lua_StateSaINS_13function_baseEEE14assign_functorIN7luabind6detail14mem_fn_matcherIM12AudioManagerFvSsbESC_NSA_9null_typeEEEEEvT_RNS1_15function_bufferEN4mpl_5bool_ILb1EEE @420
    _ZN5boost6detail8function13basic_vtable1IiP9lua_StateSaINS_13function_baseEEE14assign_functorIN7luabind6detail14mem_fn_matcherIM12AudioManagerFvvESC_NSA_9null_typeEEEEEvT_RNS1_15function_bufferEN4mpl_5bool_ILb1EEE @421
    _ZN5boost6detail8function13basic_vtable1IiP9lua_StateSaINS_13function_baseEEE14assign_functorIN7luabind6detail14mem_fn_matcherIMN6Hinage12InputManagerEFbiESD_NSA_9null_typeEEEEEvT_RNS1_15function_bufferEN4mpl_5bool_ILb1EEE @422
    _ZN5boost6detail8function13basic_vtable1IiP9lua_StateSaINS_13function_baseEEE14assign_functorIN7luabind6detail14mem_fn_matcherIMN6Hinage14PhysicalEntityEFSsvESD_NSA_9null_typeEEEEEvT_RNS1_15function_bufferEN4mpl_5bool_ILb1EEE @423
    _ZN5boost6detail8function13basic_vtable1IiP9lua_StateSaINS_13function_baseEEE14assign_functorIN7luabind6detail14mem_fn_matcherIMN6Hinage14PhysicalEntityEFbSsbdESD_NSA_9null_typeEEEEEvT_RNS1_15function_bufferEN4mpl_5bool_ILb1EEE @424
    _ZN5boost6detail8function13basic_vtable1IiP9lua_StateSaINS_13function_baseEEE14assign_functorIN7luabind6detail14mem_fn_matcherIMN6Hinage14PhysicalEntityEFdvESD_NSA_9null_typeEEEEEvT_RNS1_15function_bufferEN4mpl_5bool_ILb1EEE @425
    _ZN5boost6detail8function13basic_vtable1IiP9lua_StateSaINS_13function_baseEEE14assign_functorIN7luabind6detail14mem_fn_matcherIMN6Hinage14PhysicalEntityEFivESD_NSA_9null_typeEEEEEvT_RNS1_15function_bufferEN4mpl_5bool_ILb1EEE @426
    _ZN5boost6detail8function13basic_vtable1IiP9lua_StateSaINS_13function_baseEEE14assign_functorIN7luabind6detail14mem_fn_matcherIMN6Hinage14PhysicalEntityEFvbESD_NSA_9null_typeEEEEEvT_RNS1_15function_bufferEN4mpl_5bool_ILb1EEE @427
    _ZN5boost6detail8function13basic_vtable1IiP9lua_StateSaINS_13function_baseEEE14assign_functorIN7luabind6detail14mem_fn_matcherIMN6Hinage14PhysicalEntityEFvdESD_NSA_9null_typeEEEEEvT_RNS1_15function_bufferEN4mpl_5bool_ILb1EEE @428
    _ZN5boost6detail8function13basic_vtable1IiP9lua_StateSaINS_13function_baseEEE14assign_functorIN7luabind6detail14mem_fn_matcherIMN6Hinage14PhysicalEntityEFvddESD_NSA_9null_typeEEEEEvT_RNS1_15function_bufferEN4mpl_5bool_ILb1EEE @429
    _ZN5boost6detail8function13basic_vtable1IiP9lua_StateSaINS_13function_baseEEE14assign_functorIN7luabind6detail14mem_fn_matcherIMN6Hinage14PhysicalEntityEFvdddESD_NSA_9null_typeEEEEEvT_RNS1_15function_bufferEN4mpl_5bool_ILb1EEE @430
    _ZN5boost6detail8function13basic_vtable1IiP9lua_StateSaINS_13function_baseEEE14assign_functorIN7luabind6detail14mem_fn_matcherIMN6Hinage3MapEFRNSC_14PhysicalEntityESsddESD_NSA_9null_typeEEEEEvT_RNS1_15function_bufferEN4mpl_5bool_ILb1EEE @431
    _ZN5boost6detail8function13basic_vtable1IiP9lua_StateSaINS_13function_baseEEE14assign_functorIN7luabind6detail14mem_fn_matcherIMN6Hinage3MapEFRNSC_14PhysicalEntityEiESD_NSA_9null_typeEEEEEvT_RNS1_15function_bufferEN4mpl_5bool_ILb1EEE @432
    _ZN5boost6detail8function13basic_vtable1IiP9lua_StateSaINS_13function_baseEEE14assign_functorIN7luabind6detail14mem_fn_matcherIMN6Hinage3MapEFivESD_NSA_9null_typeEEEEEvT_RNS1_15function_bufferEN4mpl_5bool_ILb1EEE @433
    _ZN5boost6detail8function13basic_vtable1IiP9lua_StateSaINS_13function_baseEEE14assign_functorIN7luabind6detail14mem_fn_matcherIMN6Hinage3MapEFvSsESD_NSA_9null_typeEEEEEvT_RNS1_15function_bufferEN4mpl_5bool_ILb1EEE @434
    _ZN5boost6detail8function13basic_vtable1IiP9lua_StateSaINS_13function_baseEEE14assign_functorIN7luabind6detail14mem_fn_matcherIMN6Hinage3MapEFvSsbESD_NSA_9null_typeEEEEEvT_RNS1_15function_bufferEN4mpl_5bool_ILb1EEE @435
    _ZN5boost6detail8function13basic_vtable1IiP9lua_StateSaINS_13function_baseEEE14assign_functorIN7luabind6detail14mem_fn_matcherIMN6Hinage3MapEFviESD_NSA_9null_typeEEEEEvT_RNS1_15function_bufferEN4mpl_5bool_ILb1EEE @436
    _ZN5boost6detail8function13basic_vtable1IiP9lua_StateSaINS_13function_baseEEE14assign_functorIN7luabind6detail14mem_fn_matcherIMN6Hinage3MapEFvvESD_NSA_9null_typeEEEEEvT_RNS1_15function_bufferEN4mpl_5bool_ILb1EEE @437
    _ZN5boost6detail8function13basic_vtable1IiP9lua_StateSaINS_13function_baseEEE14assign_functorIN7luabind6detail14mem_fn_matcherIMN6Hinage3MapEKFivESD_NSA_9null_typeEEEEEvT_RNS1_15function_bufferEN4mpl_5bool_ILb1EEE @438
    _ZN5boost6detail8function13basic_vtable1IiP9lua_StateSaINS_13function_baseEEE14assign_functorIN7luabind6detail14mem_fn_matcherIMN6Hinage4GameEFRNSC_4FontESsESD_NSA_9null_typeEEEEEvT_RNS1_15function_bufferEN4mpl_5bool_ILb1EEE @439
    _ZN5boost6detail8function13basic_vtable1IiP9lua_StateSaINS_13function_baseEEE14assign_functorIN7luabind6detail14mem_fn_matcherIMN6Hinage4GameEFdvESD_NSA_9null_typeEEEEEvT_RNS1_15function_bufferEN4mpl_5bool_ILb1EEE @440
    _ZN5boost6detail8function13basic_vtable1IiP9lua_StateSaINS_13function_baseEEE14assign_functorIN7luabind6detail14mem_fn_matcherIMN6Hinage4GameEFvRNSC_4FontESsddddESD_NSA_9null_typeEEEEEvT_RNS1_15function_bufferEN4mpl_5bool_ILb1EEE @441
    _ZN5boost6detail8function13basic_vtable1IiP9lua_StateSaINS_13function_baseEEE14assign_functorIN7luabind6detail14mem_fn_matcherIMN6Hinage4GameEFvdESD_NSA_9null_typeEEEEEvT_RNS1_15function_bufferEN4mpl_5bool_ILb1EEE @442
    _ZN5boost6detail8function13basic_vtable1IiP9lua_StateSaINS_13function_baseEEE14assign_functorIN7luabind6detail14mem_fn_matcherIMN6Hinage4GameEFvvESD_NSA_9null_typeEEEEEvT_RNS1_15function_bufferEN4mpl_5bool_ILb1EEE @443
    _ZN5boost6detail8function13basic_vtable1IiP9lua_StateSaINS_13function_baseEEE14assign_functorIN7luabind6detail14mem_fn_matcherIMN6Hinage5TimerEFbdESD_NSA_9null_typeEEEEEvT_RNS1_15function_bufferEN4mpl_5bool_ILb1EEE @444
    _ZN5boost6detail8function13basic_vtable1IiP9lua_StateSaINS_13function_baseEEE14assign_functorIN7luabind6detail14mem_fn_matcherIMN6Hinage5TimerEFdvESD_NSA_9null_typeEEEEEvT_RNS1_15function_bufferEN4mpl_5bool_ILb1EEE @445
    _ZN5boost6detail8function13basic_vtable1IiP9lua_StateSaINS_13function_baseEEE14assign_functorIN7luabind6detail14mem_fn_matcherIMN6Hinage5TimerEFvvESD_NSA_9null_typeEEEEEvT_RNS1_15function_bufferEN4mpl_5bool_ILb1EEE @446
    _ZN5boost6detail8function13basic_vtable1IiP9lua_StateSaINS_13function_baseEEE14assign_functorIN7luabind6detail14mem_fn_matcherIMN6Hinage7DisplayEFdvESD_NSA_9null_typeEEEEEvT_RNS1_15function_bufferEN4mpl_5bool_ILb1EEE @447
    _ZN5boost6detail8function13basic_vtable1IiP9lua_StateSaINS_13function_baseEEE14assign_functorIN7luabind6detail14mem_fn_matcherIMN6Hinage7DisplayEFfvESD_NSA_9null_typeEEEEEvT_RNS1_15function_bufferEN4mpl_5bool_ILb1EEE @448
    _ZN5boost6detail8function13basic_vtable1IiP9lua_StateSaINS_13function_baseEEE14assign_functorIN7luabind6detail14mem_fn_matcherIMN6Hinage7DisplayEFvdESD_NSA_9null_typeEEEEEvT_RNS1_15function_bufferEN4mpl_5bool_ILb1EEE @449
    _ZN5boost6detail8function13basic_vtable1IiP9lua_StateSaINS_13function_baseEEE14assign_functorIN7luabind6detail14mem_fn_matcherIMN6Hinage7DisplayEFvffESD_NSA_9null_typeEEEEEvT_RNS1_15function_bufferEN4mpl_5bool_ILb1EEE @450
    _ZN5boost6detail8function13basic_vtable1IiP9lua_StateSaINS_13function_baseEEE14assign_functorIN7luabind6detail14mem_fn_matcherIMN6Hinage7Vector2IdEEFvdESE_NSA_9null_typeEEEEEvT_RNS1_15function_bufferEN4mpl_5bool_ILb1EEE @451
    _ZN5boost6detail8function13basic_vtable1IiP9lua_StateSaINS_13function_baseEEE14assign_functorIN7luabind6detail14mem_fn_matcherIMN6Hinage7Vector2IdEEFvddESE_NSA_9null_typeEEEEEvT_RNS1_15function_bufferEN4mpl_5bool_ILb1EEE @452
    _ZN5boost6detail8function13basic_vtable1IiP9lua_StateSaINS_13function_baseEEE14assign_functorIN7luabind6detail14mem_fn_matcherIMN6Hinage7Vector2IdEEKFdvESE_NSA_9null_typeEEEEEvT_RNS1_15function_bufferEN4mpl_5bool_ILb1EEE @453
    _ZN5boost6detail8function13basic_vtable1IiP9lua_StateSaINS_13function_baseEEE14assign_functorIN7luabind6detail15mem_fn_callbackIM12AudioManagerFvSsESC_NSA_9null_typeEEEEEvT_RNS1_15function_bufferEN4mpl_5bool_ILb1EEE @454
    _ZN5boost6detail8function13basic_vtable1IiP9lua_StateSaINS_13function_baseEEE14assign_functorIN7luabind6detail15mem_fn_callbackIM12AudioManagerFvSsbESC_NSA_9null_typeEEEEEvT_RNS1_15function_bufferEN4mpl_5bool_ILb1EEE @455
    _ZN5boost6detail8function13basic_vtable1IiP9lua_StateSaINS_13function_baseEEE14assign_functorIN7luabind6detail15mem_fn_callbackIM12AudioManagerFvvESC_NSA_9null_typeEEEEEvT_RNS1_15function_bufferEN4mpl_5bool_ILb1EEE @456
    _ZN5boost6detail8function13basic_vtable1IiP9lua_StateSaINS_13function_baseEEE14assign_functorIN7luabind6detail15mem_fn_callbackIMN6Hinage12InputManagerEFbiESD_NSA_9null_typeEEEEEvT_RNS1_15function_bufferEN4mpl_5bool_ILb1EEE @457
    _ZN5boost6detail8function13basic_vtable1IiP9lua_StateSaINS_13function_baseEEE14assign_functorIN7luabind6detail15mem_fn_callbackIMN6Hinage14PhysicalEntityEFSsvESD_NSA_9null_typeEEEEEvT_RNS1_15function_bufferEN4mpl_5bool_ILb1EEE @458
    _ZN5boost6detail8function13basic_vtable1IiP9lua_StateSaINS_13function_baseEEE14assign_functorIN7luabind6detail15mem_fn_callbackIMN6Hinage14PhysicalEntityEFbSsbdESD_NSA_9null_typeEEEEEvT_RNS1_15function_bufferEN4mpl_5bool_ILb1EEE @459
    _ZN5boost6detail8function13basic_vtable1IiP9lua_StateSaINS_13function_baseEEE14assign_functorIN7luabind6detail15mem_fn_callbackIMN6Hinage14PhysicalEntityEFdvESD_NSA_9null_typeEEEEEvT_RNS1_15function_bufferEN4mpl_5bool_ILb1EEE @460
    _ZN5boost6detail8function13basic_vtable1IiP9lua_StateSaINS_13function_baseEEE14assign_functorIN7luabind6detail15mem_fn_callbackIMN6Hinage14PhysicalEntityEFivESD_NSA_9null_typeEEEEEvT_RNS1_15function_bufferEN4mpl_5bool_ILb1EEE @461
    _ZN5boost6detail8function13basic_vtable1IiP9lua_StateSaINS_13function_baseEEE14assign_functorIN7luabind6detail15mem_fn_callbackIMN6Hinage14PhysicalEntityEFvbESD_NSA_9null_typeEEEEEvT_RNS1_15function_bufferEN4mpl_5bool_ILb1EEE @462
    _ZN5boost6detail8function13basic_vtable1IiP9lua_StateSaINS_13function_baseEEE14assign_functorIN7luabind6detail15mem_fn_callbackIMN6Hinage14PhysicalEntityEFvdESD_NSA_9null_typeEEEEEvT_RNS1_15function_bufferEN4mpl_5bool_ILb1EEE @463
    _ZN5boost6detail8function13basic_vtable1IiP9lua_StateSaINS_13function_baseEEE14assign_functorIN7luabind6detail15mem_fn_callbackIMN6Hinage14PhysicalEntityEFvddESD_NSA_9null_typeEEEEEvT_RNS1_15function_bufferEN4mpl_5bool_ILb1EEE @464
    _ZN5boost6detail8function13basic_vtable1IiP9lua_StateSaINS_13function_baseEEE14assign_functorIN7luabind6detail15mem_fn_callbackIMN6Hinage14PhysicalEntityEFvdddESD_NSA_9null_typeEEEEEvT_RNS1_15function_bufferEN4mpl_5bool_ILb1EEE @465
    _ZN5boost6detail8function13basic_vtable1IiP9lua_StateSaINS_13function_baseEEE14assign_functorIN7luabind6detail15mem_fn_callbackIMN6Hinage3MapEFRNSC_14PhysicalEntityESsddESD_NSA_9null_typeEEEEEvT_RNS1_15function_bufferEN4mpl_5bool_ILb1EEE @466
    _ZN5boost6detail8function13basic_vtable1IiP9lua_StateSaINS_13function_baseEEE14assign_functorIN7luabind6detail15mem_fn_callbackIMN6Hinage3MapEFRNSC_14PhysicalEntityEiESD_NSA_9null_typeEEEEEvT_RNS1_15function_bufferEN4mpl_5bool_ILb1EEE @467
    _ZN5boost6detail8function13basic_vtable1IiP9lua_StateSaINS_13function_baseEEE14assign_functorIN7luabind6detail15mem_fn_callbackIMN6Hinage3MapEFivESD_NSA_9null_typeEEEEEvT_RNS1_15function_bufferEN4mpl_5bool_ILb1EEE @468
    _ZN5boost6detail8function13basic_vtable1IiP9lua_StateSaINS_13function_baseEEE14assign_functorIN7luabind6detail15mem_fn_callbackIMN6Hinage3MapEFvSsESD_NSA_9null_typeEEEEEvT_RNS1_15function_bufferEN4mpl_5bool_ILb1EEE @469
    _ZN5boost6detail8function13basic_vtable1IiP9lua_StateSaINS_13function_baseEEE14assign_functorIN7luabind6detail15mem_fn_callbackIMN6Hinage3MapEFvSsbESD_NSA_9null_typeEEEEEvT_RNS1_15function_bufferEN4mpl_5bool_ILb1EEE @470
    _ZN5boost6detail8function13basic_vtable1IiP9lua_StateSaINS_13function_baseEEE14assign_functorIN7luabind6detail15mem_fn_callbackIMN6Hinage3MapEFviESD_NSA_9null_typeEEEEEvT_RNS1_15function_bufferEN4mpl_5bool_ILb1EEE @471
    _ZN5boost6detail8function13basic_vtable1IiP9lua_StateSaINS_13function_baseEEE14assign_functorIN7luabind6detail15mem_fn_callbackIMN6Hinage3MapEFvvESD_NSA_9null_typeEEEEEvT_RNS1_15function_bufferEN4mpl_5bool_ILb1EEE @472
    _ZN5boost6detail8function13basic_vtable1IiP9lua_StateSaINS_13function_baseEEE14assign_functorIN7luabind6detail15mem_fn_callbackIMN6Hinage3MapEKFivESD_NSA_9null_typeEEEEEvT_RNS1_15function_bufferEN4mpl_5bool_ILb1EEE @473
    _ZN5boost6detail8function13basic_vtable1IiP9lua_StateSaINS_13function_baseEEE14assign_functorIN7luabind6detail15mem_fn_callbackIMN6Hinage4GameEFRNSC_4FontESsESD_NSA_9null_typeEEEEEvT_RNS1_15function_bufferEN4mpl_5bool_ILb1EEE @474
    _ZN5boost6detail8function13basic_vtable1IiP9lua_StateSaINS_13function_baseEEE14assign_functorIN7luabind6detail15mem_fn_callbackIMN6Hinage4GameEFdvESD_NSA_9null_typeEEEEEvT_RNS1_15function_bufferEN4mpl_5bool_ILb1EEE @475
    _ZN5boost6detail8function13basic_vtable1IiP9lua_StateSaINS_13function_baseEEE14assign_functorIN7luabind6detail15mem_fn_callbackIMN6Hinage4GameEFvRNSC_4FontESsddddESD_NSA_9null_typeEEEEEvT_RNS1_15function_bufferEN4mpl_5bool_ILb1EEE @476
    _ZN5boost6detail8function13basic_vtable1IiP9lua_StateSaINS_13function_baseEEE14assign_functorIN7luabind6detail15mem_fn_callbackIMN6Hinage4GameEFvdESD_NSA_9null_typeEEEEEvT_RNS1_15function_bufferEN4mpl_5bool_ILb1EEE @477
    _ZN5boost6detail8function13basic_vtable1IiP9lua_StateSaINS_13function_baseEEE14assign_functorIN7luabind6detail15mem_fn_callbackIMN6Hinage4GameEFvvESD_NSA_9null_typeEEEEEvT_RNS1_15function_bufferEN4mpl_5bool_ILb1EEE @478
    _ZN5boost6detail8function13basic_vtable1IiP9lua_StateSaINS_13function_baseEEE14assign_functorIN7luabind6detail15mem_fn_callbackIMN6Hinage5TimerEFbdESD_NSA_9null_typeEEEEEvT_RNS1_15function_bufferEN4mpl_5bool_ILb1EEE @479
    _ZN5boost6detail8function13basic_vtable1IiP9lua_StateSaINS_13function_baseEEE14assign_functorIN7luabind6detail15mem_fn_callbackIMN6Hinage5TimerEFdvESD_NSA_9null_typeEEEEEvT_RNS1_15function_bufferEN4mpl_5bool_ILb1EEE @480
    _ZN5boost6detail8function13basic_vtable1IiP9lua_StateSaINS_13function_baseEEE14assign_functorIN7luabind6detail15mem_fn_callbackIMN6Hinage5TimerEFvvESD_NSA_9null_typeEEEEEvT_RNS1_15function_bufferEN4mpl_5bool_ILb1EEE @481
    _ZN5boost6detail8function13basic_vtable1IiP9lua_StateSaINS_13function_baseEEE14assign_functorIN7luabind6detail15mem_fn_callbackIMN6Hinage7DisplayEFdvESD_NSA_9null_typeEEEEEvT_RNS1_15function_bufferEN4mpl_5bool_ILb1EEE @482
    _ZN5boost6detail8function13basic_vtable1IiP9lua_StateSaINS_13function_baseEEE14assign_functorIN7luabind6detail15mem_fn_callbackIMN6Hinage7DisplayEFfvESD_NSA_9null_typeEEEEEvT_RNS1_15function_bufferEN4mpl_5bool_ILb1EEE @483
    _ZN5boost6detail8function13basic_vtable1IiP9lua_StateSaINS_13function_baseEEE14assign_functorIN7luabind6detail15mem_fn_callbackIMN6Hinage7DisplayEFvdESD_NSA_9null_typeEEEEEvT_RNS1_15function_bufferEN4mpl_5bool_ILb1EEE @484
    _ZN5boost6detail8function13basic_vtable1IiP9lua_StateSaINS_13function_baseEEE14assign_functorIN7luabind6detail15mem_fn_callbackIMN6Hinage7DisplayEFvffESD_NSA_9null_typeEEEEEvT_RNS1_15function_bufferEN4mpl_5bool_ILb1EEE @485
    _ZN5boost6detail8function13basic_vtable1IiP9lua_StateSaINS_13function_baseEEE14assign_functorIN7luabind6detail15mem_fn_callbackIMN6Hinage7Vector2IdEEFvdESE_NSA_9null_typeEEEEEvT_RNS1_15function_bufferEN4mpl_5bool_ILb1EEE @486
    _ZN5boost6detail8function13basic_vtable1IiP9lua_StateSaINS_13function_baseEEE14assign_functorIN7luabind6detail15mem_fn_callbackIMN6Hinage7Vector2IdEEFvddESE_NSA_9null_typeEEEEEvT_RNS1_15function_bufferEN4mpl_5bool_ILb1EEE @487
    _ZN5boost6detail8function13basic_vtable1IiP9lua_StateSaINS_13function_baseEEE14assign_functorIN7luabind6detail15mem_fn_callbackIMN6Hinage7Vector2IdEEKFdvESE_NSA_9null_typeEEEEEvT_RNS1_15function_bufferEN4mpl_5bool_ILb1EEE @488
    _ZN5boost6detail8function13basic_vtable1IiP9lua_StateSaINS_13function_baseEEE4initIN7luabind6detail14mem_fn_matcherIM12AudioManagerFvSsESC_NSA_9null_typeEEEEEvT_ @489
    _ZN5boost6detail8function13basic_vtable1IiP9lua_StateSaINS_13function_baseEEE4initIN7luabind6detail14mem_fn_matcherIM12AudioManagerFvSsESC_NSA_9null_typeEEEEEvT_NS1_16function_obj_tagE @490
    _ZN5boost6detail8function13basic_vtable1IiP9lua_StateSaINS_13function_baseEEE4initIN7luabind6detail14mem_fn_matcherIM12AudioManagerFvSsbESC_NSA_9null_typeEEEEEvT_ @491
    _ZN5boost6detail8function13basic_vtable1IiP9lua_StateSaINS_13function_baseEEE4initIN7luabind6detail14mem_fn_matcherIM12AudioManagerFvSsbESC_NSA_9null_typeEEEEEvT_NS1_16function_obj_tagE @492
    _ZN5boost6detail8function13basic_vtable1IiP9lua_StateSaINS_13function_baseEEE4initIN7luabind6detail14mem_fn_matcherIM12AudioManagerFvvESC_NSA_9null_typeEEEEEvT_ @493
    _ZN5boost6detail8function13basic_vtable1IiP9lua_StateSaINS_13function_baseEEE4initIN7luabind6detail14mem_fn_matcherIM12AudioManagerFvvESC_NSA_9null_typeEEEEEvT_NS1_16function_obj_tagE @494
    _ZN5boost6detail8function13basic_vtable1IiP9lua_StateSaINS_13function_baseEEE4initIN7luabind6detail14mem_fn_matcherIMN6Hinage12InputManagerEFbiESD_NSA_9null_typeEEEEEvT_ @495
    _ZN5boost6detail8function13basic_vtable1IiP9lua_StateSaINS_13function_baseEEE4initIN7luabind6detail14mem_fn_matcherIMN6Hinage12InputManagerEFbiESD_NSA_9null_typeEEEEEvT_NS1_16function_obj_tagE @496
    _ZN5boost6detail8function13basic_vtable1IiP9lua_StateSaINS_13function_baseEEE4initIN7luabind6detail14mem_fn_matcherIMN6Hinage14PhysicalEntityEFSsvESD_NSA_9null_typeEEEEEvT_ @497
    _ZN5boost6detail8function13basic_vtable1IiP9lua_StateSaINS_13function_baseEEE4initIN7luabind6detail14mem_fn_matcherIMN6Hinage14PhysicalEntityEFSsvESD_NSA_9null_typeEEEEEvT_NS1_16function_obj_tagE @498
    _ZN5boost6detail8function13basic_vtable1IiP9lua_StateSaINS_13function_baseEEE4initIN7luabind6detail14mem_fn_matcherIMN6Hinage14PhysicalEntityEFbSsbdESD_NSA_9null_typeEEEEEvT_ @499
    _ZN5boost6detail8function13basic_vtable1IiP9lua_StateSaINS_13function_baseEEE4initIN7luabind6detail14mem_fn_matcherIMN6Hinage14PhysicalEntityEFbSsbdESD_NSA_9null_typeEEEEEvT_NS1_16function_obj_tagE @500
    _ZN5boost6detail8function13basic_vtable1IiP9lua_StateSaINS_13function_baseEEE4initIN7luabind6detail14mem_fn_matcherIMN6Hinage14PhysicalEntityEFdvESD_NSA_9null_typeEEEEEvT_ @501
    _ZN5boost6detail8function13basic_vtable1IiP9lua_StateSaINS_13function_baseEEE4initIN7luabind6detail14mem_fn_matcherIMN6Hinage14PhysicalEntityEFdvESD_NSA_9null_typeEEEEEvT_NS1_16function_obj_tagE @502
    _ZN5boost6detail8function13basic_vtable1IiP9lua_StateSaINS_13function_baseEEE4initIN7luabind6detail14mem_fn_matcherIMN6Hinage14PhysicalEntityEFivESD_NSA_9null_typeEEEEEvT_ @503
    _ZN5boost6detail8function13basic_vtable1IiP9lua_StateSaINS_13function_baseEEE4initIN7luabind6detail14mem_fn_matcherIMN6Hinage14PhysicalEntityEFivESD_NSA_9null_typeEEEEEvT_NS1_16function_obj_tagE @504
    _ZN5boost6detail8function13basic_vtable1IiP9lua_StateSaINS_13function_baseEEE4initIN7luabind6detail14mem_fn_matcherIMN6Hinage14PhysicalEntityEFvbESD_NSA_9null_typeEEEEEvT_ @505
    _ZN5boost6detail8function13basic_vtable1IiP9lua_StateSaINS_13function_baseEEE4initIN7luabind6detail14mem_fn_matcherIMN6Hinage14PhysicalEntityEFvbESD_NSA_9null_typeEEEEEvT_NS1_16function_obj_tagE @506
    _ZN5boost6detail8function13basic_vtable1IiP9lua_StateSaINS_13function_baseEEE4initIN7luabind6detail14mem_fn_matcherIMN6Hinage14PhysicalEntityEFvdESD_NSA_9null_typeEEEEEvT_ @507
    _ZN5boost6detail8function13basic_vtable1IiP9lua_StateSaINS_13function_baseEEE4initIN7luabind6detail14mem_fn_matcherIMN6Hinage14PhysicalEntityEFvdESD_NSA_9null_typeEEEEEvT_NS1_16function_obj_tagE @508
    _ZN5boost6detail8function13basic_vtable1IiP9lua_StateSaINS_13function_baseEEE4initIN7luabind6detail14mem_fn_matcherIMN6Hinage14PhysicalEntityEFvddESD_NSA_9null_typeEEEEEvT_ @509
    _ZN5boost6detail8function13basic_vtable1IiP9lua_StateSaINS_13function_baseEEE4initIN7luabind6detail14mem_fn_matcherIMN6Hinage14PhysicalEntityEFvddESD_NSA_9null_typeEEEEEvT_NS1_16function_obj_tagE @510
    _ZN5boost6detail8function13basic_vtable1IiP9lua_StateSaINS_13function_baseEEE4initIN7luabind6detail14mem_fn_matcherIMN6Hinage14PhysicalEntityEFvdddESD_NSA_9null_typeEEEEEvT_ @511
    _ZN5boost6detail8function13basic_vtable1IiP9lua_StateSaINS_13function_baseEEE4initIN7luabind6detail14mem_fn_matcherIMN6Hinage14PhysicalEntityEFvdddESD_NSA_9null_typeEEEEEvT_NS1_16function_obj_tagE @512
    _ZN5boost6detail8function13basic_vtable1IiP9lua_StateSaINS_13function_baseEEE4initIN7luabind6detail14mem_fn_matcherIMN6Hinage3MapEFRNSC_14PhysicalEntityESsddESD_NSA_9null_typeEEEEEvT_ @513
    _ZN5boost6detail8function13basic_vtable1IiP9lua_StateSaINS_13function_baseEEE4initIN7luabind6detail14mem_fn_matcherIMN6Hinage3MapEFRNSC_14PhysicalEntityESsddESD_NSA_9null_typeEEEEEvT_NS1_16function_obj_tagE @514
    _ZN5boost6detail8function13basic_vtable1IiP9lua_StateSaINS_13function_baseEEE4initIN7luabind6detail14mem_fn_matcherIMN6Hinage3MapEFRNSC_14PhysicalEntityEiESD_NSA_9null_typeEEEEEvT_ @515
    _ZN5boost6detail8function13basic_vtable1IiP9lua_StateSaINS_13function_baseEEE4initIN7luabind6detail14mem_fn_matcherIMN6Hinage3MapEFRNSC_14PhysicalEntityEiESD_NSA_9null_typeEEEEEvT_NS1_16function_obj_tagE @516
    _ZN5boost6detail8function13basic_vtable1IiP9lua_StateSaINS_13function_baseEEE4initIN7luabind6detail14mem_fn_matcherIMN6Hinage3MapEFivESD_NSA_9null_typeEEEEEvT_ @517
    _ZN5boost6detail8function13basic_vtable1IiP9lua_StateSaINS_13function_baseEEE4initIN7luabind6detail14mem_fn_matcherIMN6Hinage3MapEFivESD_NSA_9null_typeEEEEEvT_NS1_16function_obj_tagE @518
    _ZN5boost6detail8function13basic_vtable1IiP9lua_StateSaINS_13function_baseEEE4initIN7luabind6detail14mem_fn_matcherIMN6Hinage3MapEFvSsESD_NSA_9null_typeEEEEEvT_ @519
    _ZN5boost6detail8function13basic_vtable1IiP9lua_StateSaINS_13function_baseEEE4initIN7luabind6detail14mem_fn_matcherIMN6Hinage3MapEFvSsESD_NSA_9null_typeEEEEEvT_NS1_16function_obj_tagE @520
    _ZN5boost6detail8function13basic_vtable1IiP9lua_StateSaINS_13function_baseEEE4initIN7luabind6detail14mem_fn_matcherIMN6Hinage3MapEFvSsbESD_NSA_9null_typeEEEEEvT_ @521
    _ZN5boost6detail8function13basic_vtable1IiP9lua_StateSaINS_13function_baseEEE4initIN7luabind6detail14mem_fn_matcherIMN6Hinage3MapEFvSsbESD_NSA_9null_typeEEEEEvT_NS1_16function_obj_tagE @522
    _ZN5boost6detail8function13basic_vtable1IiP9lua_StateSaINS_13function_baseEEE4initIN7luabind6detail14mem_fn_matcherIMN6Hinage3MapEFviESD_NSA_9null_typeEEEEEvT_ @523
    _ZN5boost6detail8function13basic_vtable1IiP9lua_StateSaINS_13function_baseEEE4initIN7luabind6detail14mem_fn_matcherIMN6Hinage3MapEFviESD_NSA_9null_typeEEEEEvT_NS1_16function_obj_tagE @524
    _ZN5boost6detail8function13basic_vtable1IiP9lua_StateSaINS_13function_baseEEE4initIN7luabind6detail14mem_fn_matcherIMN6Hinage3MapEFvvESD_NSA_9null_typeEEEEEvT_ @525
    _ZN5boost6detail8function13basic_vtable1IiP9lua_StateSaINS_13function_baseEEE4initIN7luabind6detail14mem_fn_matcherIMN6Hinage3MapEFvvESD_NSA_9null_typeEEEEEvT_NS1_16function_obj_tagE @526
    _ZN5boost6detail8function13basic_vtable1IiP9lua_StateSaINS_13function_baseEEE4initIN7luabind6detail14mem_fn_matcherIMN6Hinage3MapEKFivESD_NSA_9null_typeEEEEEvT_ @527
    _ZN5boost6detail8function13basic_vtable1IiP9lua_StateSaINS_13function_baseEEE4initIN7luabind6detail14mem_fn_matcherIMN6Hinage3MapEKFivESD_NSA_9null_typeEEEEEvT_NS1_16function_obj_tagE @528
    _ZN5boost6detail8function13basic_vtable1IiP9lua_StateSaINS_13function_baseEEE4initIN7luabind6detail14mem_fn_matcherIMN6Hinage4GameEFRNSC_4FontESsESD_NSA_9null_typeEEEEEvT_ @529
    _ZN5boost6detail8function13basic_vtable1IiP9lua_StateSaINS_13function_baseEEE4initIN7luabind6detail14mem_fn_matcherIMN6Hinage4GameEFRNSC_4FontESsESD_NSA_9null_typeEEEEEvT_NS1_16function_obj_tagE @530
    _ZN5boost6detail8function13basic_vtable1IiP9lua_StateSaINS_13function_baseEEE4initIN7luabind6detail14mem_fn_matcherIMN6Hinage4GameEFdvESD_NSA_9null_typeEEEEEvT_ @531
    _ZN5boost6detail8function13basic_vtable1IiP9lua_StateSaINS_13function_baseEEE4initIN7luabind6detail14mem_fn_matcherIMN6Hinage4GameEFdvESD_NSA_9null_typeEEEEEvT_NS1_16function_obj_tagE @532
    _ZN5boost6detail8function13basic_vtable1IiP9lua_StateSaINS_13function_baseEEE4initIN7luabind6detail14mem_fn_matcherIMN6Hinage4GameEFvRNSC_4FontESsddddESD_NSA_9null_typeEEEEEvT_ @533
    _ZN5boost6detail8function13basic_vtable1IiP9lua_StateSaINS_13function_baseEEE4initIN7luabind6detail14mem_fn_matcherIMN6Hinage4GameEFvRNSC_4FontESsddddESD_NSA_9null_typeEEEEEvT_NS1_16function_obj_tagE @534
    _ZN5boost6detail8function13basic_vtable1IiP9lua_StateSaINS_13function_baseEEE4initIN7luabind6detail14mem_fn_matcherIMN6Hinage4GameEFvdESD_NSA_9null_typeEEEEEvT_ @535
    _ZN5boost6detail8function13basic_vtable1IiP9lua_StateSaINS_13function_baseEEE4initIN7luabind6detail14mem_fn_matcherIMN6Hinage4GameEFvdESD_NSA_9null_typeEEEEEvT_NS1_16function_obj_tagE @536
    _ZN5boost6detail8function13basic_vtable1IiP9lua_StateSaINS_13function_baseEEE4initIN7luabind6detail14mem_fn_matcherIMN6Hinage4GameEFvvESD_NSA_9null_typeEEEEEvT_ @537
    _ZN5boost6detail8function13basic_vtable1IiP9lua_StateSaINS_13function_baseEEE4initIN7luabind6detail14mem_fn_matcherIMN6Hinage4GameEFvvESD_NSA_9null_typeEEEEEvT_NS1_16function_obj_tagE @538
    _ZN5boost6detail8function13basic_vtable1IiP9lua_StateSaINS_13function_baseEEE4initIN7luabind6detail14mem_fn_matcherIMN6Hinage5TimerEFbdESD_NSA_9null_typeEEEEEvT_ @539
    _ZN5boost6detail8function13basic_vtable1IiP9lua_StateSaINS_13function_baseEEE4initIN7luabind6detail14mem_fn_matcherIMN6Hinage5TimerEFbdESD_NSA_9null_typeEEEEEvT_NS1_16function_obj_tagE @540
    _ZN5boost6detail8function13basic_vtable1IiP9lua_StateSaINS_13function_baseEEE4initIN7luabind6detail14mem_fn_matcherIMN6Hinage5TimerEFdvESD_NSA_9null_typeEEEEEvT_ @541
    _ZN5boost6detail8function13basic_vtable1IiP9lua_StateSaINS_13function_baseEEE4initIN7luabind6detail14mem_fn_matcherIMN6Hinage5TimerEFdvESD_NSA_9null_typeEEEEEvT_NS1_16function_obj_tagE @542
    _ZN5boost6detail8function13basic_vtable1IiP9lua_StateSaINS_13function_baseEEE4initIN7luabind6detail14mem_fn_matcherIMN6Hinage5TimerEFvvESD_NSA_9null_typeEEEEEvT_ @543
    _ZN5boost6detail8function13basic_vtable1IiP9lua_StateSaINS_13function_baseEEE4initIN7luabind6detail14mem_fn_matcherIMN6Hinage5TimerEFvvESD_NSA_9null_typeEEEEEvT_NS1_16function_obj_tagE @544
    _ZN5boost6detail8function13basic_vtable1IiP9lua_StateSaINS_13function_baseEEE4initIN7luabind6detail14mem_fn_matcherIMN6Hinage7DisplayEFdvESD_NSA_9null_typeEEEEEvT_ @545
    _ZN5boost6detail8function13basic_vtable1IiP9lua_StateSaINS_13function_baseEEE4initIN7luabind6detail14mem_fn_matcherIMN6Hinage7DisplayEFdvESD_NSA_9null_typeEEEEEvT_NS1_16function_obj_tagE @546
    _ZN5boost6detail8function13basic_vtable1IiP9lua_StateSaINS_13function_baseEEE4initIN7luabind6detail14mem_fn_matcherIMN6Hinage7DisplayEFfvESD_NSA_9null_typeEEEEEvT_ @547
    _ZN5boost6detail8function13basic_vtable1IiP9lua_StateSaINS_13function_baseEEE4initIN7luabind6detail14mem_fn_matcherIMN6Hinage7DisplayEFfvESD_NSA_9null_typeEEEEEvT_NS1_16function_obj_tagE @548
    _ZN5boost6detail8function13basic_vtable1IiP9lua_StateSaINS_13function_baseEEE4initIN7luabind6detail14mem_fn_matcherIMN6Hinage7DisplayEFvdESD_NSA_9null_typeEEEEEvT_ @549
    _ZN5boost6detail8function13basic_vtable1IiP9lua_StateSaINS_13function_baseEEE4initIN7luabind6detail14mem_fn_matcherIMN6Hinage7DisplayEFvdESD_NSA_9null_typeEEEEEvT_NS1_16function_obj_tagE @550
    _ZN5boost6detail8function13basic_vtable1IiP9lua_StateSaINS_13function_baseEEE4initIN7luabind6detail14mem_fn_matcherIMN6Hinage7DisplayEFvffESD_NSA_9null_typeEEEEEvT_ @551
    _ZN5boost6detail8function13basic_vtable1IiP9lua_StateSaINS_13function_baseEEE4initIN7luabind6detail14mem_fn_matcherIMN6Hinage7DisplayEFvffESD_NSA_9null_typeEEEEEvT_NS1_16function_obj_tagE @552
    _ZN5boost6detail8function13basic_vtable1IiP9lua_StateSaINS_13function_baseEEE4initIN7luabind6detail14mem_fn_matcherIMN6Hinage7Vector2IdEEFvdESE_NSA_9null_typeEEEEEvT_ @553
    _ZN5boost6detail8function13basic_vtable1IiP9lua_StateSaINS_13function_baseEEE4initIN7luabind6detail14mem_fn_matcherIMN6Hinage7Vector2IdEEFvdESE_NSA_9null_typeEEEEEvT_NS1_16function_obj_tagE @554
    _ZN5boost6detail8function13basic_vtable1IiP9lua_StateSaINS_13function_baseEEE4initIN7luabind6detail14mem_fn_matcherIMN6Hinage7Vector2IdEEFvddESE_NSA_9null_typeEEEEEvT_ @555
    _ZN5boost6detail8function13basic_vtable1IiP9lua_StateSaINS_13function_baseEEE4initIN7luabind6detail14mem_fn_matcherIMN6Hinage7Vector2IdEEFvddESE_NSA_9null_typeEEEEEvT_NS1_16function_obj_tagE @556
    _ZN5boost6detail8function13basic_vtable1IiP9lua_StateSaINS_13function_baseEEE4initIN7luabind6detail14mem_fn_matcherIMN6Hinage7Vector2IdEEKFdvESE_NSA_9null_typeEEEEEvT_ @557
    _ZN5boost6detail8function13basic_vtable1IiP9lua_StateSaINS_13function_baseEEE4initIN7luabind6detail14mem_fn_matcherIMN6Hinage7Vector2IdEEKFdvESE_NSA_9null_typeEEEEEvT_NS1_16function_obj_tagE @558
    _ZN5boost6detail8function13basic_vtable1IiP9lua_StateSaINS_13function_baseEEE4initIN7luabind6detail15mem_fn_callbackIM12AudioManagerFvSsESC_NSA_9null_typeEEEEEvT_ @559
    _ZN5boost6detail8function13basic_vtable1IiP9lua_StateSaINS_13function_baseEEE4initIN7luabind6detail15mem_fn_callbackIM12AudioManagerFvSsESC_NSA_9null_typeEEEEEvT_NS1_16function_obj_tagE @560
    _ZN5boost6detail8function13basic_vtable1IiP9lua_StateSaINS_13function_baseEEE4initIN7luabind6detail15mem_fn_callbackIM12AudioManagerFvSsbESC_NSA_9null_typeEEEEEvT_ @561
    _ZN5boost6detail8function13basic_vtable1IiP9lua_StateSaINS_13function_baseEEE4initIN7luabind6detail15mem_fn_callbackIM12AudioManagerFvSsbESC_NSA_9null_typeEEEEEvT_NS1_16function_obj_tagE @562
    _ZN5boost6detail8function13basic_vtable1IiP9lua_StateSaINS_13function_baseEEE4initIN7luabind6detail15mem_fn_callbackIM12AudioManagerFvvESC_NSA_9null_typeEEEEEvT_ @563
    _ZN5boost6detail8function13basic_vtable1IiP9lua_StateSaINS_13function_baseEEE4initIN7luabind6detail15mem_fn_callbackIM12AudioManagerFvvESC_NSA_9null_typeEEEEEvT_NS1_16function_obj_tagE @564
    _ZN5boost6detail8function13basic_vtable1IiP9lua_StateSaINS_13function_baseEEE4initIN7luabind6detail15mem_fn_callbackIMN6Hinage12InputManagerEFbiESD_NSA_9null_typeEEEEEvT_ @565
    _ZN5boost6detail8function13basic_vtable1IiP9lua_StateSaINS_13function_baseEEE4initIN7luabind6detail15mem_fn_callbackIMN6Hinage12InputManagerEFbiESD_NSA_9null_typeEEEEEvT_NS1_16function_obj_tagE @566
    _ZN5boost6detail8function13basic_vtable1IiP9lua_StateSaINS_13function_baseEEE4initIN7luabind6detail15mem_fn_callbackIMN6Hinage14PhysicalEntityEFSsvESD_NSA_9null_typeEEEEEvT_ @567
    _ZN5boost6detail8function13basic_vtable1IiP9lua_StateSaINS_13function_baseEEE4initIN7luabind6detail15mem_fn_callbackIMN6Hinage14PhysicalEntityEFSsvESD_NSA_9null_typeEEEEEvT_NS1_16function_obj_tagE @568
    _ZN5boost6detail8function13basic_vtable1IiP9lua_StateSaINS_13function_baseEEE4initIN7luabind6detail15mem_fn_callbackIMN6Hinage14PhysicalEntityEFbSsbdESD_NSA_9null_typeEEEEEvT_ @569
    _ZN5boost6detail8function13basic_vtable1IiP9lua_StateSaINS_13function_baseEEE4initIN7luabind6detail15mem_fn_callbackIMN6Hinage14PhysicalEntityEFbSsbdESD_NSA_9null_typeEEEEEvT_NS1_16function_obj_tagE @570
    _ZN5boost6detail8function13basic_vtable1IiP9lua_StateSaINS_13function_baseEEE4initIN7luabind6detail15mem_fn_callbackIMN6Hinage14PhysicalEntityEFdvESD_NSA_9null_typeEEEEEvT_ @571
    _ZN5boost6detail8function13basic_vtable1IiP9lua_StateSaINS_13function_baseEEE4initIN7luabind6detail15mem_fn_callbackIMN6Hinage14PhysicalEntityEFdvESD_NSA_9null_typeEEEEEvT_NS1_16function_obj_tagE @572
    _ZN5boost6detail8function13basic_vtable1IiP9lua_StateSaINS_13function_baseEEE4initIN7luabind6detail15mem_fn_callbackIMN6Hinage14PhysicalEntityEFivESD_NSA_9null_typeEEEEEvT_ @573
    _ZN5boost6detail8function13basic_vtable1IiP9lua_StateSaINS_13function_baseEEE4initIN7luabind6detail15mem_fn_callbackIMN6Hinage14PhysicalEntityEFivESD_NSA_9null_typeEEEEEvT_NS1_16function_obj_tagE @574
    _ZN5boost6detail8function13basic_vtable1IiP9lua_StateSaINS_13function_baseEEE4initIN7luabind6detail15mem_fn_callbackIMN6Hinage14PhysicalEntityEFvbESD_NSA_9null_typeEEEEEvT_ @575
    _ZN5boost6detail8function13basic_vtable1IiP9lua_StateSaINS_13function_baseEEE4initIN7luabind6detail15mem_fn_callbackIMN6Hinage14PhysicalEntityEFvbESD_NSA_9null_typeEEEEEvT_NS1_16function_obj_tagE @576
    _ZN5boost6detail8function13basic_vtable1IiP9lua_StateSaINS_13function_baseEEE4initIN7luabind6detail15mem_fn_callbackIMN6Hinage14PhysicalEntityEFvdESD_NSA_9null_typeEEEEEvT_ @577
    _ZN5boost6detail8function13basic_vtable1IiP9lua_StateSaINS_13function_baseEEE4initIN7luabind6detail15mem_fn_callbackIMN6Hinage14PhysicalEntityEFvdESD_NSA_9null_typeEEEEEvT_NS1_16function_obj_tagE @578
    _ZN5boost6detail8function13basic_vtable1IiP9lua_StateSaINS_13function_baseEEE4initIN7luabind6detail15mem_fn_callbackIMN6Hinage14PhysicalEntityEFvddESD_NSA_9null_typeEEEEEvT_ @579
    _ZN5boost6detail8function13basic_vtable1IiP9lua_StateSaINS_13function_baseEEE4initIN7luabind6detail15mem_fn_callbackIMN6Hinage14PhysicalEntityEFvddESD_NSA_9null_typeEEEEEvT_NS1_16function_obj_tagE @580
    _ZN5boost6detail8function13basic_vtable1IiP9lua_StateSaINS_13function_baseEEE4initIN7luabind6detail15mem_fn_callbackIMN6Hinage14PhysicalEntityEFvdddESD_NSA_9null_typeEEEEEvT_ @581
    _ZN5boost6detail8function13basic_vtable1IiP9lua_StateSaINS_13function_baseEEE4initIN7luabind6detail15mem_fn_callbackIMN6Hinage14PhysicalEntityEFvdddESD_NSA_9null_typeEEEEEvT_NS1_16function_obj_tagE @582
    _ZN5boost6detail8function13basic_vtable1IiP9lua_StateSaINS_13function_baseEEE4initIN7luabind6detail15mem_fn_callbackIMN6Hinage3MapEFRNSC_14PhysicalEntityESsddESD_NSA_9null_typeEEEEEvT_ @583
    _ZN5boost6detail8function13basic_vtable1IiP9lua_StateSaINS_13function_baseEEE4initIN7luabind6detail15mem_fn_callbackIMN6Hinage3MapEFRNSC_14PhysicalEntityESsddESD_NSA_9null_typeEEEEEvT_NS1_16function_obj_tagE @584
    _ZN5boost6detail8function13basic_vtable1IiP9lua_StateSaINS_13function_baseEEE4initIN7luabind6detail15mem_fn_callbackIMN6Hinage3MapEFRNSC_14PhysicalEntityEiESD_NSA_9null_typeEEEEEvT_ @585
    _ZN5boost6detail8function13basic_vtable1IiP9lua_StateSaINS_13function_baseEEE4initIN7luabind6detail15mem_fn_callbackIMN6Hinage3MapEFRNSC_14PhysicalEntityEiESD_NSA_9null_typeEEEEEvT_NS1_16function_obj_tagE @586
    _ZN5boost6detail8function13basic_vtable1IiP9lua_StateSaINS_13function_baseEEE4initIN7luabind6detail15mem_fn_callbackIMN6Hinage3MapEFivESD_NSA_9null_typeEEEEEvT_ @587
    _ZN5boost6detail8function13basic_vtable1IiP9lua_StateSaINS_13function_baseEEE4initIN7luabind6detail15mem_fn_callbackIMN6Hinage3MapEFivESD_NSA_9null_typeEEEEEvT_NS1_16function_obj_tagE @588
    _ZN5boost6detail8function13basic_vtable1IiP9lua_StateSaINS_13function_baseEEE4initIN7luabind6detail15mem_fn_callbackIMN6Hinage3MapEFvSsESD_NSA_9null_typeEEEEEvT_ @589
    _ZN5boost6detail8function13basic_vtable1IiP9lua_StateSaINS_13function_baseEEE4initIN7luabind6detail15mem_fn_callbackIMN6Hinage3MapEFvSsESD_NSA_9null_typeEEEEEvT_NS1_16function_obj_tagE @590
    _ZN5boost6detail8function13basic_vtable1IiP9lua_StateSaINS_13function_baseEEE4initIN7luabind6detail15mem_fn_callbackIMN6Hinage3MapEFvSsbESD_NSA_9null_typeEEEEEvT_ @591
    _ZN5boost6detail8function13basic_vtable1IiP9lua_StateSaINS_13function_baseEEE4initIN7luabind6detail15mem_fn_callbackIMN6Hinage3MapEFvSsbESD_NSA_9null_typeEEEEEvT_NS1_16function_obj_tagE @592
    _ZN5boost6detail8function13basic_vtable1IiP9lua_StateSaINS_13function_baseEEE4initIN7luabind6detail15mem_fn_callbackIMN6Hinage3MapEFviESD_NSA_9null_typeEEEEEvT_ @593
    _ZN5boost6detail8function13basic_vtable1IiP9lua_StateSaINS_13function_baseEEE4initIN7luabind6detail15mem_fn_callbackIMN6Hinage3MapEFviESD_NSA_9null_typeEEEEEvT_NS1_16function_obj_tagE @594
    _ZN5boost6detail8function13basic_vtable1IiP9lua_StateSaINS_13function_baseEEE4initIN7luabind6detail15mem_fn_callbackIMN6Hinage3MapEFvvESD_NSA_9null_typeEEEEEvT_ @595
    _ZN5boost6detail8function13basic_vtable1IiP9lua_StateSaINS_13function_baseEEE4initIN7luabind6detail15mem_fn_callbackIMN6Hinage3MapEFvvESD_NSA_9null_typeEEEEEvT_NS1_16function_obj_tagE @596
    _ZN5boost6detail8function13basic_vtable1IiP9lua_StateSaINS_13function_baseEEE4initIN7luabind6detail15mem_fn_callbackIMN6Hinage3MapEKFivESD_NSA_9null_typeEEEEEvT_ @597
    _ZN5boost6detail8function13basic_vtable1IiP9lua_StateSaINS_13function_baseEEE4initIN7luabind6detail15mem_fn_callbackIMN6Hinage3MapEKFivESD_NSA_9null_typeEEEEEvT_NS1_16function_obj_tagE @598
    _ZN5boost6detail8function13basic_vtable1IiP9lua_StateSaINS_13function_baseEEE4initIN7luabind6detail15mem_fn_callbackIMN6Hinage4GameEFRNSC_4FontESsESD_NSA_9null_typeEEEEEvT_ @599
    _ZN5boost6detail8function13basic_vtable1IiP9lua_StateSaINS_13function_baseEEE4initIN7luabind6detail15mem_fn_callbackIMN6Hinage4GameEFRNSC_4FontESsESD_NSA_9null_typeEEEEEvT_NS1_16function_obj_tagE @600
    _ZN5boost6detail8function13basic_vtable1IiP9lua_StateSaINS_13function_baseEEE4initIN7luabind6detail15mem_fn_callbackIMN6Hinage4GameEFdvESD_NSA_9null_typeEEEEEvT_ @601
    _ZN5boost6detail8function13basic_vtable1IiP9lua_StateSaINS_13function_baseEEE4initIN7luabind6detail15mem_fn_callbackIMN6Hinage4GameEFdvESD_NSA_9null_typeEEEEEvT_NS1_16function_obj_tagE @602
    _ZN5boost6detail8function13basic_vtable1IiP9lua_StateSaINS_13function_baseEEE4initIN7luabind6detail15mem_fn_callbackIMN6Hinage4GameEFvRNSC_4FontESsddddESD_NSA_9null_typeEEEEEvT_ @603
    _ZN5boost6detail8function13basic_vtable1IiP9lua_StateSaINS_13function_baseEEE4initIN7luabind6detail15mem_fn_callbackIMN6Hinage4GameEFvRNSC_4FontESsddddESD_NSA_9null_typeEEEEEvT_NS1_16function_obj_tagE @604
    _ZN5boost6detail8function13basic_vtable1IiP9lua_StateSaINS_13function_baseEEE4initIN7luabind6detail15mem_fn_callbackIMN6Hinage4GameEFvdESD_NSA_9null_typeEEEEEvT_ @605
    _ZN5boost6detail8function13basic_vtable1IiP9lua_StateSaINS_13function_baseEEE4initIN7luabind6detail15mem_fn_callbackIMN6Hinage4GameEFvdESD_NSA_9null_typeEEEEEvT_NS1_16function_obj_tagE @606
    _ZN5boost6detail8function13basic_vtable1IiP9lua_StateSaINS_13function_baseEEE4initIN7luabind6detail15mem_fn_callbackIMN6Hinage4GameEFvvESD_NSA_9null_typeEEEEEvT_ @607
    _ZN5boost6detail8function13basic_vtable1IiP9lua_StateSaINS_13function_baseEEE4initIN7luabind6detail15mem_fn_callbackIMN6Hinage4GameEFvvESD_NSA_9null_typeEEEEEvT_NS1_16function_obj_tagE @608
    _ZN5boost6detail8function13basic_vtable1IiP9lua_StateSaINS_13function_baseEEE4initIN7luabind6detail15mem_fn_callbackIMN6Hinage5TimerEFbdESD_NSA_9null_typeEEEEEvT_ @609
    _ZN5boost6detail8function13basic_vtable1IiP9lua_StateSaINS_13function_baseEEE4initIN7luabind6detail15mem_fn_callbackIMN6Hinage5TimerEFbdESD_NSA_9null_typeEEEEEvT_NS1_16function_obj_tagE @610
    _ZN5boost6detail8function13basic_vtable1IiP9lua_StateSaINS_13function_baseEEE4initIN7luabind6detail15mem_fn_callbackIMN6Hinage5TimerEFdvESD_NSA_9null_typeEEEEEvT_ @611
    _ZN5boost6detail8function13basic_vtable1IiP9lua_StateSaINS_13function_baseEEE4initIN7luabind6detail15mem_fn_callbackIMN6Hinage5TimerEFdvESD_NSA_9null_typeEEEEEvT_NS1_16function_obj_tagE @612
    _ZN5boost6detail8function13basic_vtable1IiP9lua_StateSaINS_13function_baseEEE4initIN7luabind6detail15mem_fn_callbackIMN6Hinage5TimerEFvvESD_NSA_9null_typeEEEEEvT_ @613
    _ZN5boost6detail8function13basic_vtable1IiP9lua_StateSaINS_13function_baseEEE4initIN7luabind6detail15mem_fn_callbackIMN6Hinage5TimerEFvvESD_NSA_9null_typeEEEEEvT_NS1_16function_obj_tagE @614
    _ZN5boost6detail8function13basic_vtable1IiP9lua_StateSaINS_13function_baseEEE4initIN7luabind6detail15mem_fn_callbackIMN6Hinage7DisplayEFdvESD_NSA_9null_typeEEEEEvT_ @615
    _ZN5boost6detail8function13basic_vtable1IiP9lua_StateSaINS_13function_baseEEE4initIN7luabind6detail15mem_fn_callbackIMN6Hinage7DisplayEFdvESD_NSA_9null_typeEEEEEvT_NS1_16function_obj_tagE @616
    _ZN5boost6detail8function13basic_vtable1IiP9lua_StateSaINS_13function_baseEEE4initIN7luabind6detail15mem_fn_callbackIMN6Hinage7DisplayEFfvESD_NSA_9null_typeEEEEEvT_ @617
    _ZN5boost6detail8function13basic_vtable1IiP9lua_StateSaINS_13function_baseEEE4initIN7luabind6detail15mem_fn_callbackIMN6Hinage7DisplayEFfvESD_NSA_9null_typeEEEEEvT_NS1_16function_obj_tagE @618
    _ZN5boost6detail8function13basic_vtable1IiP9lua_StateSaINS_13function_baseEEE4initIN7luabind6detail15mem_fn_callbackIMN6Hinage7DisplayEFvdESD_NSA_9null_typeEEEEEvT_ @619
    _ZN5boost6detail8function13basic_vtable1IiP9lua_StateSaINS_13function_baseEEE4initIN7luabind6detail15mem_fn_callbackIMN6Hinage7DisplayEFvdESD_NSA_9null_typeEEEEEvT_NS1_16function_obj_tagE @620
    _ZN5boost6detail8function13basic_vtable1IiP9lua_StateSaINS_13function_baseEEE4initIN7luabind6detail15mem_fn_callbackIMN6Hinage7DisplayEFvffESD_NSA_9null_typeEEEEEvT_ @621
    _ZN5boost6detail8function13basic_vtable1IiP9lua_StateSaINS_13function_baseEEE4initIN7luabind6detail15mem_fn_callbackIMN6Hinage7DisplayEFvffESD_NSA_9null_typeEEEEEvT_NS1_16function_obj_tagE @622
    _ZN5boost6detail8function13basic_vtable1IiP9lua_StateSaINS_13function_baseEEE4initIN7luabind6detail15mem_fn_callbackIMN6Hinage7Vector2IdEEFvdESE_NSA_9null_typeEEEEEvT_ @623
    _ZN5boost6detail8function13basic_vtable1IiP9lua_StateSaINS_13function_baseEEE4initIN7luabind6detail15mem_fn_callbackIMN6Hinage7Vector2IdEEFvdESE_NSA_9null_typeEEEEEvT_NS1_16function_obj_tagE @624
    _ZN5boost6detail8function13basic_vtable1IiP9lua_StateSaINS_13function_baseEEE4initIN7luabind6detail15mem_fn_callbackIMN6Hinage7Vector2IdEEFvddESE_NSA_9null_typeEEEEEvT_ @625
    _ZN5boost6detail8function13basic_vtable1IiP9lua_StateSaINS_13function_baseEEE4initIN7luabind6detail15mem_fn_callbackIMN6Hinage7Vector2IdEEFvddESE_NSA_9null_typeEEEEEvT_NS1_16function_obj_tagE @626
    _ZN5boost6detail8function13basic_vtable1IiP9lua_StateSaINS_13function_baseEEE4initIN7luabind6detail15mem_fn_callbackIMN6Hinage7Vector2IdEEKFdvESE_NSA_9null_typeEEEEEvT_ @627
    _ZN5boost6detail8function13basic_vtable1IiP9lua_StateSaINS_13function_baseEEE4initIN7luabind6detail15mem_fn_callbackIMN6Hinage7Vector2IdEEKFdvESE_NSA_9null_typeEEEEEvT_NS1_16function_obj_tagE @628
    _ZN5boost6detail8function13basic_vtable1IiP9lua_StateSaINS_13function_baseEEE4initIPFiS4_EEEvT_ @629
    _ZN5boost6detail8function13basic_vtable1IiP9lua_StateSaINS_13function_baseEEE4initIPFiS4_EEEvT_NS1_16function_ptr_tagE @630
    _ZN5boost6detail8function13basic_vtable1IiP9lua_StateSaINS_13function_baseEEE5clearERNS1_15function_bufferE @631
    _ZN5boost6detail8function13basic_vtable1IiP9lua_StateSaINS_13function_baseEEE9assign_toIN7luabind6detail14mem_fn_matcherIM12AudioManagerFvSsESC_NSA_9null_typeEEEEEbT_RNS1_15function_bufferE @632
    _ZN5boost6detail8function13basic_vtable1IiP9lua_StateSaINS_13function_baseEEE9assign_toIN7luabind6detail14mem_fn_matcherIM12AudioManagerFvSsESC_NSA_9null_typeEEEEEbT_RNS1_15function_bufferENS1_16function_obj_tagE @633
    _ZN5boost6detail8function13basic_vtable1IiP9lua_StateSaINS_13function_baseEEE9assign_toIN7luabind6detail14mem_fn_matcherIM12AudioManagerFvSsbESC_NSA_9null_typeEEEEEbT_RNS1_15function_bufferE @634
    _ZN5boost6detail8function13basic_vtable1IiP9lua_StateSaINS_13function_baseEEE9assign_toIN7luabind6detail14mem_fn_matcherIM12AudioManagerFvSsbESC_NSA_9null_typeEEEEEbT_RNS1_15function_bufferENS1_16function_obj_tagE @635
    _ZN5boost6detail8function13basic_vtable1IiP9lua_StateSaINS_13function_baseEEE9assign_toIN7luabind6detail14mem_fn_matcherIM12AudioManagerFvvESC_NSA_9null_typeEEEEEbT_RNS1_15function_bufferE @636
    _ZN5boost6detail8function13basic_vtable1IiP9lua_StateSaINS_13function_baseEEE9assign_toIN7luabind6detail14mem_fn_matcherIM12AudioManagerFvvESC_NSA_9null_typeEEEEEbT_RNS1_15function_bufferENS1_16function_obj_tagE @637
    _ZN5boost6detail8function13basic_vtable1IiP9lua_StateSaINS_13function_baseEEE9assign_toIN7luabind6detail14mem_fn_matcherIMN6Hinage12InputManagerEFbiESD_NSA_9null_typeEEEEEbT_RNS1_15function_bufferE @638
    _ZN5boost6detail8function13basic_vtable1IiP9lua_StateSaINS_13function_baseEEE9assign_toIN7luabind6detail14mem_fn_matcherIMN6Hinage12InputManagerEFbiESD_NSA_9null_typeEEEEEbT_RNS1_15function_bufferENS1_16function_obj_tagE @639
    _ZN5boost6detail8function13basic_vtable1IiP9lua_StateSaINS_13function_baseEEE9assign_toIN7luabind6detail14mem_fn_matcherIMN6Hinage14PhysicalEntityEFSsvESD_NSA_9null_typeEEEEEbT_RNS1_15function_bufferE @640
    _ZN5boost6detail8function13basic_vtable1IiP9lua_StateSaINS_13function_baseEEE9assign_toIN7luabind6detail14mem_fn_matcherIMN6Hinage14PhysicalEntityEFSsvESD_NSA_9null_typeEEEEEbT_RNS1_15function_bufferENS1_16function_obj_tagE @641
    _ZN5boost6detail8function13basic_vtable1IiP9lua_StateSaINS_13function_baseEEE9assign_toIN7luabind6detail14mem_fn_matcherIMN6Hinage14PhysicalEntityEFbSsbdESD_NSA_9null_typeEEEEEbT_RNS1_15function_bufferE @642
    _ZN5boost6detail8function13basic_vtable1IiP9lua_StateSaINS_13function_baseEEE9assign_toIN7luabind6detail14mem_fn_matcherIMN6Hinage14PhysicalEntityEFbSsbdESD_NSA_9null_typeEEEEEbT_RNS1_15function_bufferENS1_16function_obj_tagE @643
    _ZN5boost6detail8function13basic_vtable1IiP9lua_StateSaINS_13function_baseEEE9assign_toIN7luabind6detail14mem_fn_matcherIMN6Hinage14PhysicalEntityEFdvESD_NSA_9null_typeEEEEEbT_RNS1_15function_bufferE @644
    _ZN5boost6detail8function13basic_vtable1IiP9lua_StateSaINS_13function_baseEEE9assign_toIN7luabind6detail14mem_fn_matcherIMN6Hinage14PhysicalEntityEFdvESD_NSA_9null_typeEEEEEbT_RNS1_15function_bufferENS1_16function_obj_tagE @645
    _ZN5boost6detail8function13basic_vtable1IiP9lua_StateSaINS_13function_baseEEE9assign_toIN7luabind6detail14mem_fn_matcherIMN6Hinage14PhysicalEntityEFivESD_NSA_9null_typeEEEEEbT_RNS1_15function_bufferE @646
    _ZN5boost6detail8function13basic_vtable1IiP9lua_StateSaINS_13function_baseEEE9assign_toIN7luabind6detail14mem_fn_matcherIMN6Hinage14PhysicalEntityEFivESD_NSA_9null_typeEEEEEbT_RNS1_15function_bufferENS1_16function_obj_tagE @647
    _ZN5boost6detail8function13basic_vtable1IiP9lua_StateSaINS_13function_baseEEE9assign_toIN7luabind6detail14mem_fn_matcherIMN6Hinage14PhysicalEntityEFvbESD_NSA_9null_typeEEEEEbT_RNS1_15function_bufferE @648
    _ZN5boost6detail8function13basic_vtable1IiP9lua_StateSaINS_13function_baseEEE9assign_toIN7luabind6detail14mem_fn_matcherIMN6Hinage14PhysicalEntityEFvbESD_NSA_9null_typeEEEEEbT_RNS1_15function_bufferENS1_16function_obj_tagE @649
    _ZN5boost6detail8function13basic_vtable1IiP9lua_StateSaINS_13function_baseEEE9assign_toIN7luabind6detail14mem_fn_matcherIMN6Hinage14PhysicalEntityEFvdESD_NSA_9null_typeEEEEEbT_RNS1_15function_bufferE @650
    _ZN5boost6detail8function13basic_vtable1IiP9lua_StateSaINS_13function_baseEEE9assign_toIN7luabind6detail14mem_fn_matcherIMN6Hinage14PhysicalEntityEFvdESD_NSA_9null_typeEEEEEbT_RNS1_15function_bufferENS1_16function_obj_tagE @651
    _ZN5boost6detail8function13basic_vtable1IiP9lua_StateSaINS_13function_baseEEE9assign_toIN7luabind6detail14mem_fn_matcherIMN6Hinage14PhysicalEntityEFvddESD_NSA_9null_typeEEEEEbT_RNS1_15function_bufferE @652
    _ZN5boost6detail8function13basic_vtable1IiP9lua_StateSaINS_13function_baseEEE9assign_toIN7luabind6detail14mem_fn_matcherIMN6Hinage14PhysicalEntityEFvddESD_NSA_9null_typeEEEEEbT_RNS1_15function_bufferENS1_16function_obj_tagE @653
    _ZN5boost6detail8function13basic_vtable1IiP9lua_StateSaINS_13function_baseEEE9assign_toIN7luabind6detail14mem_fn_matcherIMN6Hinage14PhysicalEntityEFvdddESD_NSA_9null_typeEEEEEbT_RNS1_15function_bufferE @654
    _ZN5boost6detail8function13basic_vtable1IiP9lua_StateSaINS_13function_baseEEE9assign_toIN7luabind6detail14mem_fn_matcherIMN6Hinage14PhysicalEntityEFvdddESD_NSA_9null_typeEEEEEbT_RNS1_15function_bufferENS1_16function_obj_tagE @655
    _ZN5boost6detail8function13basic_vtable1IiP9lua_StateSaINS_13function_baseEEE9assign_toIN7luabind6detail14mem_fn_matcherIMN6Hinage3MapEFRNSC_14PhysicalEntityESsddESD_NSA_9null_typeEEEEEbT_RNS1_15function_bufferE @656
    _ZN5boost6detail8function13basic_vtable1IiP9lua_StateSaINS_13function_baseEEE9assign_toIN7luabind6detail14mem_fn_matcherIMN6Hinage3MapEFRNSC_14PhysicalEntityESsddESD_NSA_9null_typeEEEEEbT_RNS1_15function_bufferENS1_16function_obj_tagE @657
    _ZN5boost6detail8function13basic_vtable1IiP9lua_StateSaINS_13function_baseEEE9assign_toIN7luabind6detail14mem_fn_matcherIMN6Hinage3MapEFRNSC_14PhysicalEntityEiESD_NSA_9null_typeEEEEEbT_RNS1_15function_bufferE @658
    _ZN5boost6detail8function13basic_vtable1IiP9lua_StateSaINS_13function_baseEEE9assign_toIN7luabind6detail14mem_fn_matcherIMN6Hinage3MapEFRNSC_14PhysicalEntityEiESD_NSA_9null_typeEEEEEbT_RNS1_15function_bufferENS1_16function_obj_tagE @659
    _ZN5boost6detail8function13basic_vtable1IiP9lua_StateSaINS_13function_baseEEE9assign_toIN7luabind6detail14mem_fn_matcherIMN6Hinage3MapEFivESD_NSA_9null_typeEEEEEbT_RNS1_15function_bufferE @660
    _ZN5boost6detail8function13basic_vtable1IiP9lua_StateSaINS_13function_baseEEE9assign_toIN7luabind6detail14mem_fn_matcherIMN6Hinage3MapEFivESD_NSA_9null_typeEEEEEbT_RNS1_15function_bufferENS1_16function_obj_tagE @661
    _ZN5boost6detail8function13basic_vtable1IiP9lua_StateSaINS_13function_baseEEE9assign_toIN7luabind6detail14mem_fn_matcherIMN6Hinage3MapEFvSsESD_NSA_9null_typeEEEEEbT_RNS1_15function_bufferE @662
    _ZN5boost6detail8function13basic_vtable1IiP9lua_StateSaINS_13function_baseEEE9assign_toIN7luabind6detail14mem_fn_matcherIMN6Hinage3MapEFvSsESD_NSA_9null_typeEEEEEbT_RNS1_15function_bufferENS1_16function_obj_tagE @663
    _ZN5boost6detail8function13basic_vtable1IiP9lua_StateSaINS_13function_baseEEE9assign_toIN7luabind6detail14mem_fn_matcherIMN6Hinage3MapEFvSsbESD_NSA_9null_typeEEEEEbT_RNS1_15function_bufferE @664
    _ZN5boost6detail8function13basic_vtable1IiP9lua_StateSaINS_13function_baseEEE9assign_toIN7luabind6detail14mem_fn_matcherIMN6Hinage3MapEFvSsbESD_NSA_9null_typeEEEEEbT_RNS1_15function_bufferENS1_16function_obj_tagE @665
    _ZN5boost6detail8function13basic_vtable1IiP9lua_StateSaINS_13function_baseEEE9assign_toIN7luabind6detail14mem_fn_matcherIMN6Hinage3MapEFviESD_NSA_9null_typeEEEEEbT_RNS1_15function_bufferE @666
    _ZN5boost6detail8function13basic_vtable1IiP9lua_StateSaINS_13function_baseEEE9assign_toIN7luabind6detail14mem_fn_matcherIMN6Hinage3MapEFviESD_NSA_9null_typeEEEEEbT_RNS1_15function_bufferENS1_16function_obj_tagE @667
    _ZN5boost6detail8function13basic_vtable1IiP9lua_StateSaINS_13function_baseEEE9assign_toIN7luabind6detail14mem_fn_matcherIMN6Hinage3MapEFvvESD_NSA_9null_typeEEEEEbT_RNS1_15function_bufferE @668
    _ZN5boost6detail8function13basic_vtable1IiP9lua_StateSaINS_13function_baseEEE9assign_toIN7luabind6detail14mem_fn_matcherIMN6Hinage3MapEFvvESD_NSA_9null_typeEEEEEbT_RNS1_15function_bufferENS1_16function_obj_tagE @669
    _ZN5boost6detail8function13basic_vtable1IiP9lua_StateSaINS_13function_baseEEE9assign_toIN7luabind6detail14mem_fn_matcherIMN6Hinage3MapEKFivESD_NSA_9null_typeEEEEEbT_RNS1_15function_bufferE @670
    _ZN5boost6detail8function13basic_vtable1IiP9lua_StateSaINS_13function_baseEEE9assign_toIN7luabind6detail14mem_fn_matcherIMN6Hinage3MapEKFivESD_NSA_9null_typeEEEEEbT_RNS1_15function_bufferENS1_16function_obj_tagE @671
    _ZN5boost6detail8function13basic_vtable1IiP9lua_StateSaINS_13function_baseEEE9assign_toIN7luabind6detail14mem_fn_matcherIMN6Hinage4GameEFRNSC_4FontESsESD_NSA_9null_typeEEEEEbT_RNS1_15function_bufferE @672
    _ZN5boost6detail8function13basic_vtable1IiP9lua_StateSaINS_13function_baseEEE9assign_toIN7luabind6detail14mem_fn_matcherIMN6Hinage4GameEFRNSC_4FontESsESD_NSA_9null_typeEEEEEbT_RNS1_15function_bufferENS1_16function_obj_tagE @673
    _ZN5boost6detail8function13basic_vtable1IiP9lua_StateSaINS_13function_baseEEE9assign_toIN7luabind6detail14mem_fn_matcherIMN6Hinage4GameEFdvESD_NSA_9null_typeEEEEEbT_RNS1_15function_bufferE @674
    _ZN5boost6detail8function13basic_vtable1IiP9lua_StateSaINS_13function_baseEEE9assign_toIN7luabind6detail14mem_fn_matcherIMN6Hinage4GameEFdvESD_NSA_9null_typeEEEEEbT_RNS1_15function_bufferENS1_16function_obj_tagE @675
    _ZN5boost6detail8function13basic_vtable1IiP9lua_StateSaINS_13function_baseEEE9assign_toIN7luabind6detail14mem_fn_matcherIMN6Hinage4GameEFvRNSC_4FontESsddddESD_NSA_9null_typeEEEEEbT_RNS1_15function_bufferE @676
    _ZN5boost6detail8function13basic_vtable1IiP9lua_StateSaINS_13function_baseEEE9assign_toIN7luabind6detail14mem_fn_matcherIMN6Hinage4GameEFvRNSC_4FontESsddddESD_NSA_9null_typeEEEEEbT_RNS1_15function_bufferENS1_16function_obj_tagE @677
    _ZN5boost6detail8function13basic_vtable1IiP9lua_StateSaINS_13function_baseEEE9assign_toIN7luabind6detail14mem_fn_matcherIMN6Hinage4GameEFvdESD_NSA_9null_typeEEEEEbT_RNS1_15function_bufferE @678
    _ZN5boost6detail8function13basic_vtable1IiP9lua_StateSaINS_13function_baseEEE9assign_toIN7luabind6detail14mem_fn_matcherIMN6Hinage4GameEFvdESD_NSA_9null_typeEEEEEbT_RNS1_15function_bufferENS1_16function_obj_tagE @679
    _ZN5boost6detail8function13basic_vtable1IiP9lua_StateSaINS_13function_baseEEE9assign_toIN7luabind6detail14mem_fn_matcherIMN6Hinage4GameEFvvESD_NSA_9null_typeEEEEEbT_RNS1_15function_bufferE @680
    _ZN5boost6detail8function13basic_vtable1IiP9lua_StateSaINS_13function_baseEEE9assign_toIN7luabind6detail14mem_fn_matcherIMN6Hinage4GameEFvvESD_NSA_9null_typeEEEEEbT_RNS1_15function_bufferENS1_16function_obj_tagE @681
    _ZN5boost6detail8function13basic_vtable1IiP9lua_StateSaINS_13function_baseEEE9assign_toIN7luabind6detail14mem_fn_matcherIMN6Hinage5TimerEFbdESD_NSA_9null_typeEEEEEbT_RNS1_15function_bufferE @682
    _ZN5boost6detail8function13basic_vtable1IiP9lua_StateSaINS_13function_baseEEE9assign_toIN7luabind6detail14mem_fn_matcherIMN6Hinage5TimerEFbdESD_NSA_9null_typeEEEEEbT_RNS1_15function_bufferENS1_16function_obj_tagE @683
    _ZN5boost6detail8function13basic_vtable1IiP9lua_StateSaINS_13function_baseEEE9assign_toIN7luabind6detail14mem_fn_matcherIMN6Hinage5TimerEFdvESD_NSA_9null_typeEEEEEbT_RNS1_15function_bufferE @684
    _ZN5boost6detail8function13basic_vtable1IiP9lua_StateSaINS_13function_baseEEE9assign_toIN7luabind6detail14mem_fn_matcherIMN6Hinage5TimerEFdvESD_NSA_9null_typeEEEEEbT_RNS1_15function_bufferENS1_16function_obj_tagE @685
    _ZN5boost6detail8function13basic_vtable1IiP9lua_StateSaINS_13function_baseEEE9assign_toIN7luabind6detail14mem_fn_matcherIMN6Hinage5TimerEFvvESD_NSA_9null_typeEEEEEbT_RNS1_15function_bufferE @686
    _ZN5boost6detail8function13basic_vtable1IiP9lua_StateSaINS_13function_baseEEE9assign_toIN7luabind6detail14mem_fn_matcherIMN6Hinage5TimerEFvvESD_NSA_9null_typeEEEEEbT_RNS1_15function_bufferENS1_16function_obj_tagE @687
    _ZN5boost6detail8function13basic_vtable1IiP9lua_StateSaINS_13function_baseEEE9assign_toIN7luabind6detail14mem_fn_matcherIMN6Hinage7DisplayEFdvESD_NSA_9null_typeEEEEEbT_RNS1_15function_bufferE @688
    _ZN5boost6detail8function13basic_vtable1IiP9lua_StateSaINS_13function_baseEEE9assign_toIN7luabind6detail14mem_fn_matcherIMN6Hinage7DisplayEFdvESD_NSA_9null_typeEEEEEbT_RNS1_15function_bufferENS1_16function_obj_tagE @689
    _ZN5boost6detail8function13basic_vtable1IiP9lua_StateSaINS_13function_baseEEE9assign_toIN7luabind6detail14mem_fn_matcherIMN6Hinage7DisplayEFfvESD_NSA_9null_typeEEEEEbT_RNS1_15function_bufferE @690
    _ZN5boost6detail8function13basic_vtable1IiP9lua_StateSaINS_13function_baseEEE9assign_toIN7luabind6detail14mem_fn_matcherIMN6Hinage7DisplayEFfvESD_NSA_9null_typeEEEEEbT_RNS1_15function_bufferENS1_16function_obj_tagE @691
    _ZN5boost6detail8function13basic_vtable1IiP9lua_StateSaINS_13function_baseEEE9assign_toIN7luabind6detail14mem_fn_matcherIMN6Hinage7DisplayEFvdESD_NSA_9null_typeEEEEEbT_RNS1_15function_bufferE @692
    _ZN5boost6detail8function13basic_vtable1IiP9lua_StateSaINS_13function_baseEEE9assign_toIN7luabind6detail14mem_fn_matcherIMN6Hinage7DisplayEFvdESD_NSA_9null_typeEEEEEbT_RNS1_15function_bufferENS1_16function_obj_tagE @693
    _ZN5boost6detail8function13basic_vtable1IiP9lua_StateSaINS_13function_baseEEE9assign_toIN7luabind6detail14mem_fn_matcherIMN6Hinage7DisplayEFvffESD_NSA_9null_typeEEEEEbT_RNS1_15function_bufferE @694
    _ZN5boost6detail8function13basic_vtable1IiP9lua_StateSaINS_13function_baseEEE9assign_toIN7luabind6detail14mem_fn_matcherIMN6Hinage7DisplayEFvffESD_NSA_9null_typeEEEEEbT_RNS1_15function_bufferENS1_16function_obj_tagE @695
    _ZN5boost6detail8function13basic_vtable1IiP9lua_StateSaINS_13function_baseEEE9assign_toIN7luabind6detail14mem_fn_matcherIMN6Hinage7Vector2IdEEFvdESE_NSA_9null_typeEEEEEbT_RNS1_15function_bufferE @696
    _ZN5boost6detail8function13basic_vtable1IiP9lua_StateSaINS_13function_baseEEE9assign_toIN7luabind6detail14mem_fn_matcherIMN6Hinage7Vector2IdEEFvdESE_NSA_9null_typeEEEEEbT_RNS1_15function_bufferENS1_16function_obj_tagE @697
    _ZN5boost6detail8function13basic_vtable1IiP9lua_StateSaINS_13function_baseEEE9assign_toIN7luabind6detail14mem_fn_matcherIMN6Hinage7Vector2IdEEFvddESE_NSA_9null_typeEEEEEbT_RNS1_15function_bufferE @698
    _ZN5boost6detail8function13basic_vtable1IiP9lua_StateSaINS_13function_baseEEE9assign_toIN7luabind6detail14mem_fn_matcherIMN6Hinage7Vector2IdEEFvddESE_NSA_9null_typeEEEEEbT_RNS1_15function_bufferENS1_16function_obj_tagE @699
    _ZN5boost6detail8function13basic_vtable1IiP9lua_StateSaINS_13function_baseEEE9assign_toIN7luabind6detail14mem_fn_matcherIMN6Hinage7Vector2IdEEKFdvESE_NSA_9null_typeEEEEEbT_RNS1_15function_bufferE @700
    _ZN5boost6detail8function13basic_vtable1IiP9lua_StateSaINS_13function_baseEEE9assign_toIN7luabind6detail14mem_fn_matcherIMN6Hinage7Vector2IdEEKFdvESE_NSA_9null_typeEEEEEbT_RNS1_15function_bufferENS1_16function_obj_tagE @701
    _ZN5boost6detail8function13basic_vtable1IiP9lua_StateSaINS_13function_baseEEE9assign_toIN7luabind6detail15mem_fn_callbackIM12AudioManagerFvSsESC_NSA_9null_typeEEEEEbT_RNS1_15function_bufferE @702
    _ZN5boost6detail8function13basic_vtable1IiP9lua_StateSaINS_13function_baseEEE9assign_toIN7luabind6detail15mem_fn_callbackIM12AudioManagerFvSsESC_NSA_9null_typeEEEEEbT_RNS1_15function_bufferENS1_16function_obj_tagE @703
    _ZN5boost6detail8function13basic_vtable1IiP9lua_StateSaINS_13function_baseEEE9assign_toIN7luabind6detail15mem_fn_callbackIM12AudioManagerFvSsbESC_NSA_9null_typeEEEEEbT_RNS1_15function_bufferE @704
    _ZN5boost6detail8function13basic_vtable1IiP9lua_StateSaINS_13function_baseEEE9assign_toIN7luabind6detail15mem_fn_callbackIM12AudioManagerFvSsbESC_NSA_9null_typeEEEEEbT_RNS1_15function_bufferENS1_16function_obj_tagE @705
    _ZN5boost6detail8function13basic_vtable1IiP9lua_StateSaINS_13function_baseEEE9assign_toIN7luabind6detail15mem_fn_callbackIM12AudioManagerFvvESC_NSA_9null_typeEEEEEbT_RNS1_15function_bufferE @706
    _ZN5boost6detail8function13basic_vtable1IiP9lua_StateSaINS_13function_baseEEE9assign_toIN7luabind6detail15mem_fn_callbackIM12AudioManagerFvvESC_NSA_9null_typeEEEEEbT_RNS1_15function_bufferENS1_16function_obj_tagE @707
    _ZN5boost6detail8function13basic_vtable1IiP9lua_StateSaINS_13function_baseEEE9assign_toIN7luabind6detail15mem_fn_callbackIMN6Hinage12InputManagerEFbiESD_NSA_9null_typeEEEEEbT_RNS1_15function_bufferE @708
    _ZN5boost6detail8function13basic_vtable1IiP9lua_StateSaINS_13function_baseEEE9assign_toIN7luabind6detail15mem_fn_callbackIMN6Hinage12InputManagerEFbiESD_NSA_9null_typeEEEEEbT_RNS1_15function_bufferENS1_16function_obj_tagE @709
    _ZN5boost6detail8function13basic_vtable1IiP9lua_StateSaINS_13function_baseEEE9assign_toIN7luabind6detail15mem_fn_callbackIMN6Hinage14PhysicalEntityEFSsvESD_NSA_9null_typeEEEEEbT_RNS1_15function_bufferE @710
    _ZN5boost6detail8function13basic_vtable1IiP9lua_StateSaINS_13function_baseEEE9assign_toIN7luabind6detail15mem_fn_callbackIMN6Hinage14PhysicalEntityEFSsvESD_NSA_9null_typeEEEEEbT_RNS1_15function_bufferENS1_16function_obj_tagE @711
    _ZN5boost6detail8function13basic_vtable1IiP9lua_StateSaINS_13function_baseEEE9assign_toIN7luabind6detail15mem_fn_callbackIMN6Hinage14PhysicalEntityEFbSsbdESD_NSA_9null_typeEEEEEbT_RNS1_15function_bufferE @712
    _ZN5boost6detail8function13basic_vtable1IiP9lua_StateSaINS_13function_baseEEE9assign_toIN7luabind6detail15mem_fn_callbackIMN6Hinage14PhysicalEntityEFbSsbdESD_NSA_9null_typeEEEEEbT_RNS1_15function_bufferENS1_16function_obj_tagE @713
    _ZN5boost6detail8function13basic_vtable1IiP9lua_StateSaINS_13function_baseEEE9assign_toIN7luabind6detail15mem_fn_callbackIMN6Hinage14PhysicalEntityEFdvESD_NSA_9null_typeEEEEEbT_RNS1_15function_bufferE @714
    _ZN5boost6detail8function13basic_vtable1IiP9lua_StateSaINS_13function_baseEEE9assign_toIN7luabind6detail15mem_fn_callbackIMN6Hinage14PhysicalEntityEFdvESD_NSA_9null_typeEEEEEbT_RNS1_15function_bufferENS1_16function_obj_tagE @715
    _ZN5boost6detail8function13basic_vtable1IiP9lua_StateSaINS_13function_baseEEE9assign_toIN7luabind6detail15mem_fn_callbackIMN6Hinage14PhysicalEntityEFivESD_NSA_9null_typeEEEEEbT_RNS1_15function_bufferE @716
    _ZN5boost6detail8function13basic_vtable1IiP9lua_StateSaINS_13function_baseEEE9assign_toIN7luabind6detail15mem_fn_callbackIMN6Hinage14PhysicalEntityEFivESD_NSA_9null_typeEEEEEbT_RNS1_15function_bufferENS1_16function_obj_tagE @717
    _ZN5boost6detail8function13basic_vtable1IiP9lua_StateSaINS_13function_baseEEE9assign_toIN7luabind6detail15mem_fn_callbackIMN6Hinage14PhysicalEntityEFvbESD_NSA_9null_typeEEEEEbT_RNS1_15function_bufferE @718
    _ZN5boost6detail8function13basic_vtable1IiP9lua_StateSaINS_13function_baseEEE9assign_toIN7luabind6detail15mem_fn_callbackIMN6Hinage14PhysicalEntityEFvbESD_NSA_9null_typeEEEEEbT_RNS1_15function_bufferENS1_16function_obj_tagE @719
    _ZN5boost6detail8function13basic_vtable1IiP9lua_StateSaINS_13function_baseEEE9assign_toIN7luabind6detail15mem_fn_callbackIMN6Hinage14PhysicalEntityEFvdESD_NSA_9null_typeEEEEEbT_RNS1_15function_bufferE @720
    _ZN5boost6detail8function13basic_vtable1IiP9lua_StateSaINS_13function_baseEEE9assign_toIN7luabind6detail15mem_fn_callbackIMN6Hinage14PhysicalEntityEFvdESD_NSA_9null_typeEEEEEbT_RNS1_15function_bufferENS1_16function_obj_tagE @721
    _ZN5boost6detail8function13basic_vtable1IiP9lua_StateSaINS_13function_baseEEE9assign_toIN7luabind6detail15mem_fn_callbackIMN6Hinage14PhysicalEntityEFvddESD_NSA_9null_typeEEEEEbT_RNS1_15function_bufferE @722
    _ZN5boost6detail8function13basic_vtable1IiP9lua_StateSaINS_13function_baseEEE9assign_toIN7luabind6detail15mem_fn_callbackIMN6Hinage14PhysicalEntityEFvddESD_NSA_9null_typeEEEEEbT_RNS1_15function_bufferENS1_16function_obj_tagE @723
    _ZN5boost6detail8function13basic_vtable1IiP9lua_StateSaINS_13function_baseEEE9assign_toIN7luabind6detail15mem_fn_callbackIMN6Hinage14PhysicalEntityEFvdddESD_NSA_9null_typeEEEEEbT_RNS1_15function_bufferE @724
    _ZN5boost6detail8function13basic_vtable1IiP9lua_StateSaINS_13function_baseEEE9assign_toIN7luabind6detail15mem_fn_callbackIMN6Hinage14PhysicalEntityEFvdddESD_NSA_9null_typeEEEEEbT_RNS1_15function_bufferENS1_16function_obj_tagE @725
    _ZN5boost6detail8function13basic_vtable1IiP9lua_StateSaINS_13function_baseEEE9assign_toIN7luabind6detail15mem_fn_callbackIMN6Hinage3MapEFRNSC_14PhysicalEntityESsddESD_NSA_9null_typeEEEEEbT_RNS1_15function_bufferE @726
    _ZN5boost6detail8function13basic_vtable1IiP9lua_StateSaINS_13function_baseEEE9assign_toIN7luabind6detail15mem_fn_callbackIMN6Hinage3MapEFRNSC_14PhysicalEntityESsddESD_NSA_9null_typeEEEEEbT_RNS1_15function_bufferENS1_16function_obj_tagE @727
    _ZN5boost6detail8function13basic_vtable1IiP9lua_StateSaINS_13function_baseEEE9assign_toIN7luabind6detail15mem_fn_callbackIMN6Hinage3MapEFRNSC_14PhysicalEntityEiESD_NSA_9null_typeEEEEEbT_RNS1_15function_bufferE @728
    _ZN5boost6detail8function13basic_vtable1IiP9lua_StateSaINS_13function_baseEEE9assign_toIN7luabind6detail15mem_fn_callbackIMN6Hinage3MapEFRNSC_14PhysicalEntityEiESD_NSA_9null_typeEEEEEbT_RNS1_15function_bufferENS1_16function_obj_tagE @729
    _ZN5boost6detail8function13basic_vtable1IiP9lua_StateSaINS_13function_baseEEE9assign_toIN7luabind6detail15mem_fn_callbackIMN6Hinage3MapEFivESD_NSA_9null_typeEEEEEbT_RNS1_15function_bufferE @730
    _ZN5boost6detail8function13basic_vtable1IiP9lua_StateSaINS_13function_baseEEE9assign_toIN7luabind6detail15mem_fn_callbackIMN6Hinage3MapEFivESD_NSA_9null_typeEEEEEbT_RNS1_15function_bufferENS1_16function_obj_tagE @731
    _ZN5boost6detail8function13basic_vtable1IiP9lua_StateSaINS_13function_baseEEE9assign_toIN7luabind6detail15mem_fn_callbackIMN6Hinage3MapEFvSsESD_NSA_9null_typeEEEEEbT_RNS1_15function_bufferE @732
    _ZN5boost6detail8function13basic_vtable1IiP9lua_StateSaINS_13function_baseEEE9assign_toIN7luabind6detail15mem_fn_callbackIMN6Hinage3MapEFvSsESD_NSA_9null_typeEEEEEbT_RNS1_15function_bufferENS1_16function_obj_tagE @733
    _ZN5boost6detail8function13basic_vtable1IiP9lua_StateSaINS_13function_baseEEE9assign_toIN7luabind6detail15mem_fn_callbackIMN6Hinage3MapEFvSsbESD_NSA_9null_typeEEEEEbT_RNS1_15function_bufferE @734
    _ZN5boost6detail8function13basic_vtable1IiP9lua_StateSaINS_13function_baseEEE9assign_toIN7luabind6detail15mem_fn_callbackIMN6Hinage3MapEFvSsbESD_NSA_9null_typeEEEEEbT_RNS1_15function_bufferENS1_16function_obj_tagE @735
    _ZN5boost6detail8function13basic_vtable1IiP9lua_StateSaINS_13function_baseEEE9assign_toIN7luabind6detail15mem_fn_callbackIMN6Hinage3MapEFviESD_NSA_9null_typeEEEEEbT_RNS1_15function_bufferE @736
    _ZN5boost6detail8function13basic_vtable1IiP9lua_StateSaINS_13function_baseEEE9assign_toIN7luabind6detail15mem_fn_callbackIMN6Hinage3MapEFviESD_NSA_9null_typeEEEEEbT_RNS1_15function_bufferENS1_16function_obj_tagE @737
    _ZN5boost6detail8function13basic_vtable1IiP9lua_StateSaINS_13function_baseEEE9assign_toIN7luabind6detail15mem_fn_callbackIMN6Hinage3MapEFvvESD_NSA_9null_typeEEEEEbT_RNS1_15function_bufferE @738
    _ZN5boost6detail8function13basic_vtable1IiP9lua_StateSaINS_13function_baseEEE9assign_toIN7luabind6detail15mem_fn_callbackIMN6Hinage3MapEFvvESD_NSA_9null_typeEEEEEbT_RNS1_15function_bufferENS1_16function_obj_tagE @739
    _ZN5boost6detail8function13basic_vtable1IiP9lua_StateSaINS_13function_baseEEE9assign_toIN7luabind6detail15mem_fn_callbackIMN6Hinage3MapEKFivESD_NSA_9null_typeEEEEEbT_RNS1_15function_bufferE @740
    _ZN5boost6detail8function13basic_vtable1IiP9lua_StateSaINS_13function_baseEEE9assign_toIN7luabind6detail15mem_fn_callbackIMN6Hinage3MapEKFivESD_NSA_9null_typeEEEEEbT_RNS1_15function_bufferENS1_16function_obj_tagE @741
    _ZN5boost6detail8function13basic_vtable1IiP9lua_StateSaINS_13function_baseEEE9assign_toIN7luabind6detail15mem_fn_callbackIMN6Hinage4GameEFRNSC_4FontESsESD_NSA_9null_typeEEEEEbT_RNS1_15function_bufferE @742
    _ZN5boost6detail8function13basic_vtable1IiP9lua_StateSaINS_13function_baseEEE9assign_toIN7luabind6detail15mem_fn_callbackIMN6Hinage4GameEFRNSC_4FontESsESD_NSA_9null_typeEEEEEbT_RNS1_15function_bufferENS1_16function_obj_tagE @743
    _ZN5boost6detail8function13basic_vtable1IiP9lua_StateSaINS_13function_baseEEE9assign_toIN7luabind6detail15mem_fn_callbackIMN6Hinage4GameEFdvESD_NSA_9null_typeEEEEEbT_RNS1_15function_bufferE @744
    _ZN5boost6detail8function13basic_vtable1IiP9lua_StateSaINS_13function_baseEEE9assign_toIN7luabind6detail15mem_fn_callbackIMN6Hinage4GameEFdvESD_NSA_9null_typeEEEEEbT_RNS1_15function_bufferENS1_16function_obj_tagE @745
    _ZN5boost6detail8function13basic_vtable1IiP9lua_StateSaINS_13function_baseEEE9assign_toIN7luabind6detail15mem_fn_callbackIMN6Hinage4GameEFvRNSC_4FontESsddddESD_NSA_9null_typeEEEEEbT_RNS1_15function_bufferE @746
    _ZN5boost6detail8function13basic_vtable1IiP9lua_StateSaINS_13function_baseEEE9assign_toIN7luabind6detail15mem_fn_callbackIMN6Hinage4GameEFvRNSC_4FontESsddddESD_NSA_9null_typeEEEEEbT_RNS1_15function_bufferENS1_16function_obj_tagE @747
    _ZN5boost6detail8function13basic_vtable1IiP9lua_StateSaINS_13function_baseEEE9assign_toIN7luabind6detail15mem_fn_callbackIMN6Hinage4GameEFvdESD_NSA_9null_typeEEEEEbT_RNS1_15function_bufferE @748
    _ZN5boost6detail8function13basic_vtable1IiP9lua_StateSaINS_13function_baseEEE9assign_toIN7luabind6detail15mem_fn_callbackIMN6Hinage4GameEFvdESD_NSA_9null_typeEEEEEbT_RNS1_15function_bufferENS1_16function_obj_tagE @749
    _ZN5boost6detail8function13basic_vtable1IiP9lua_StateSaINS_13function_baseEEE9assign_toIN7luabind6detail15mem_fn_callbackIMN6Hinage4GameEFvvESD_NSA_9null_typeEEEEEbT_RNS1_15function_bufferE @750
    _ZN5boost6detail8function13basic_vtable1IiP9lua_StateSaINS_13function_baseEEE9assign_toIN7luabind6detail15mem_fn_callbackIMN6Hinage4GameEFvvESD_NSA_9null_typeEEEEEbT_RNS1_15function_bufferENS1_16function_obj_tagE @751
    _ZN5boost6detail8function13basic_vtable1IiP9lua_StateSaINS_13function_baseEEE9assign_toIN7luabind6detail15mem_fn_callbackIMN6Hinage5TimerEFbdESD_NSA_9null_typeEEEEEbT_RNS1_15function_bufferE @752
    _ZN5boost6detail8function13basic_vtable1IiP9lua_StateSaINS_13function_baseEEE9assign_toIN7luabind6detail15mem_fn_callbackIMN6Hinage5TimerEFbdESD_NSA_9null_typeEEEEEbT_RNS1_15function_bufferENS1_16function_obj_tagE @753
    _ZN5boost6detail8function13basic_vtable1IiP9lua_StateSaINS_13function_baseEEE9assign_toIN7luabind6detail15mem_fn_callbackIMN6Hinage5TimerEFdvESD_NSA_9null_typeEEEEEbT_RNS1_15function_bufferE @754
    _ZN5boost6detail8function13basic_vtable1IiP9lua_StateSaINS_13function_baseEEE9assign_toIN7luabind6detail15mem_fn_callbackIMN6Hinage5TimerEFdvESD_NSA_9null_typeEEEEEbT_RNS1_15function_bufferENS1_16function_obj_tagE @755
    _ZN5boost6detail8function13basic_vtable1IiP9lua_StateSaINS_13function_baseEEE9assign_toIN7luabind6detail15mem_fn_callbackIMN6Hinage5TimerEFvvESD_NSA_9null_typeEEEEEbT_RNS1_15function_bufferE @756
    _ZN5boost6detail8function13basic_vtable1IiP9lua_StateSaINS_13function_baseEEE9assign_toIN7luabind6detail15mem_fn_callbackIMN6Hinage5TimerEFvvESD_NSA_9null_typeEEEEEbT_RNS1_15function_bufferENS1_16function_obj_tagE @757
    _ZN5boost6detail8function13basic_vtable1IiP9lua_StateSaINS_13function_baseEEE9assign_toIN7luabind6detail15mem_fn_callbackIMN6Hinage7DisplayEFdvESD_NSA_9null_typeEEEEEbT_RNS1_15function_bufferE @758
    _ZN5boost6detail8function13basic_vtable1IiP9lua_StateSaINS_13function_baseEEE9assign_toIN7luabind6detail15mem_fn_callbackIMN6Hinage7DisplayEFdvESD_NSA_9null_typeEEEEEbT_RNS1_15function_bufferENS1_16function_obj_tagE @759
    _ZN5boost6detail8function13basic_vtable1IiP9lua_StateSaINS_13function_baseEEE9assign_toIN7luabind6detail15mem_fn_callbackIMN6Hinage7DisplayEFfvESD_NSA_9null_typeEEEEEbT_RNS1_15function_bufferE @760
    _ZN5boost6detail8function13basic_vtable1IiP9lua_StateSaINS_13function_baseEEE9assign_toIN7luabind6detail15mem_fn_callbackIMN6Hinage7DisplayEFfvESD_NSA_9null_typeEEEEEbT_RNS1_15function_bufferENS1_16function_obj_tagE @761
    _ZN5boost6detail8function13basic_vtable1IiP9lua_StateSaINS_13function_baseEEE9assign_toIN7luabind6detail15mem_fn_callbackIMN6Hinage7DisplayEFvdESD_NSA_9null_typeEEEEEbT_RNS1_15function_bufferE @762
    _ZN5boost6detail8function13basic_vtable1IiP9lua_StateSaINS_13function_baseEEE9assign_toIN7luabind6detail15mem_fn_callbackIMN6Hinage7DisplayEFvdESD_NSA_9null_typeEEEEEbT_RNS1_15function_bufferENS1_16function_obj_tagE @763
    _ZN5boost6detail8function13basic_vtable1IiP9lua_StateSaINS_13function_baseEEE9assign_toIN7luabind6detail15mem_fn_callbackIMN6Hinage7DisplayEFvffESD_NSA_9null_typeEEEEEbT_RNS1_15function_bufferE @764
    _ZN5boost6detail8function13basic_vtable1IiP9lua_StateSaINS_13function_baseEEE9assign_toIN7luabind6detail15mem_fn_callbackIMN6Hinage7DisplayEFvffESD_NSA_9null_typeEEEEEbT_RNS1_15function_bufferENS1_16function_obj_tagE @765
    _ZN5boost6detail8function13basic_vtable1IiP9lua_StateSaINS_13function_baseEEE9assign_toIN7luabind6detail15mem_fn_callbackIMN6Hinage7Vector2IdEEFvdESE_NSA_9null_typeEEEEEbT_RNS1_15function_bufferE @766
    _ZN5boost6detail8function13basic_vtable1IiP9lua_StateSaINS_13function_baseEEE9assign_toIN7luabind6detail15mem_fn_callbackIMN6Hinage7Vector2IdEEFvdESE_NSA_9null_typeEEEEEbT_RNS1_15function_bufferENS1_16function_obj_tagE @767
    _ZN5boost6detail8function13basic_vtable1IiP9lua_StateSaINS_13function_baseEEE9assign_toIN7luabind6detail15mem_fn_callbackIMN6Hinage7Vector2IdEEFvddESE_NSA_9null_typeEEEEEbT_RNS1_15function_bufferE @768
    _ZN5boost6detail8function13basic_vtable1IiP9lua_StateSaINS_13function_baseEEE9assign_toIN7luabind6detail15mem_fn_callbackIMN6Hinage7Vector2IdEEFvddESE_NSA_9null_typeEEEEEbT_RNS1_15function_bufferENS1_16function_obj_tagE @769
    _ZN5boost6detail8function13basic_vtable1IiP9lua_StateSaINS_13function_baseEEE9assign_toIN7luabind6detail15mem_fn_callbackIMN6Hinage7Vector2IdEEKFdvESE_NSA_9null_typeEEEEEbT_RNS1_15function_bufferE @770
    _ZN5boost6detail8function13basic_vtable1IiP9lua_StateSaINS_13function_baseEEE9assign_toIN7luabind6detail15mem_fn_callbackIMN6Hinage7Vector2IdEEKFdvESE_NSA_9null_typeEEEEEbT_RNS1_15function_bufferENS1_16function_obj_tagE @771
    _ZN5boost6detail8function13basic_vtable1IiP9lua_StateSaINS_13function_baseEEE9assign_toIPFiS4_EEEbT_RNS1_15function_bufferE @772
    _ZN5boost6detail8function13basic_vtable1IiP9lua_StateSaINS_13function_baseEEE9assign_toIPFiS4_EEEbT_RNS1_15function_bufferENS1_16function_ptr_tagE @773
    _ZN5boost6detail8function13basic_vtable1IiP9lua_StateSaINS_13function_baseEEEC1IN7luabind6detail14mem_fn_matcherIM12AudioManagerFvSsESC_NSA_9null_typeEEEEET_ @774
    _ZN5boost6detail8function13basic_vtable1IiP9lua_StateSaINS_13function_baseEEEC1IN7luabind6detail14mem_fn_matcherIM12AudioManagerFvSsbESC_NSA_9null_typeEEEEET_ @775
    _ZN5boost6detail8function13basic_vtable1IiP9lua_StateSaINS_13function_baseEEEC1IN7luabind6detail14mem_fn_matcherIM12AudioManagerFvvESC_NSA_9null_typeEEEEET_ @776
    _ZN5boost6detail8function13basic_vtable1IiP9lua_StateSaINS_13function_baseEEEC1IN7luabind6detail14mem_fn_matcherIMN6Hinage12InputManagerEFbiESD_NSA_9null_typeEEEEET_ @777
    _ZN5boost6detail8function13basic_vtable1IiP9lua_StateSaINS_13function_baseEEEC1IN7luabind6detail14mem_fn_matcherIMN6Hinage14PhysicalEntityEFSsvESD_NSA_9null_typeEEEEET_ @778
    _ZN5boost6detail8function13basic_vtable1IiP9lua_StateSaINS_13function_baseEEEC1IN7luabind6detail14mem_fn_matcherIMN6Hinage14PhysicalEntityEFbSsbdESD_NSA_9null_typeEEEEET_ @779
    _ZN5boost6detail8function13basic_vtable1IiP9lua_StateSaINS_13function_baseEEEC1IN7luabind6detail14mem_fn_matcherIMN6Hinage14PhysicalEntityEFdvESD_NSA_9null_typeEEEEET_ @780
    _ZN5boost6detail8function13basic_vtable1IiP9lua_StateSaINS_13function_baseEEEC1IN7luabind6detail14mem_fn_matcherIMN6Hinage14PhysicalEntityEFivESD_NSA_9null_typeEEEEET_ @781
    _ZN5boost6detail8function13basic_vtable1IiP9lua_StateSaINS_13function_baseEEEC1IN7luabind6detail14mem_fn_matcherIMN6Hinage14PhysicalEntityEFvbESD_NSA_9null_typeEEEEET_ @782
    _ZN5boost6detail8function13basic_vtable1IiP9lua_StateSaINS_13function_baseEEEC1IN7luabind6detail14mem_fn_matcherIMN6Hinage14PhysicalEntityEFvdESD_NSA_9null_typeEEEEET_ @783
    _ZN5boost6detail8function13basic_vtable1IiP9lua_StateSaINS_13function_baseEEEC1IN7luabind6detail14mem_fn_matcherIMN6Hinage14PhysicalEntityEFvddESD_NSA_9null_typeEEEEET_ @784
    _ZN5boost6detail8function13basic_vtable1IiP9lua_StateSaINS_13function_baseEEEC1IN7luabind6detail14mem_fn_matcherIMN6Hinage14PhysicalEntityEFvdddESD_NSA_9null_typeEEEEET_ @785
    _ZN5boost6detail8function13basic_vtable1IiP9lua_StateSaINS_13function_baseEEEC1IN7luabind6detail14mem_fn_matcherIMN6Hinage3MapEFRNSC_14PhysicalEntityESsddESD_NSA_9null_typeEEEEET_ @786
    _ZN5boost6detail8function13basic_vtable1IiP9lua_StateSaINS_13function_baseEEEC1IN7luabind6detail14mem_fn_matcherIMN6Hinage3MapEFRNSC_14PhysicalEntityEiESD_NSA_9null_typeEEEEET_ @787
    _ZN5boost6detail8function13basic_vtable1IiP9lua_StateSaINS_13function_baseEEEC1IN7luabind6detail14mem_fn_matcherIMN6Hinage3MapEFivESD_NSA_9null_typeEEEEET_ @788
    _ZN5boost6detail8function13basic_vtable1IiP9lua_StateSaINS_13function_baseEEEC1IN7luabind6detail14mem_fn_matcherIMN6Hinage3MapEFvSsESD_NSA_9null_typeEEEEET_ @789
    _ZN5boost6detail8function13basic_vtable1IiP9lua_StateSaINS_13function_baseEEEC1IN7luabind6detail14mem_fn_matcherIMN6Hinage3MapEFvSsbESD_NSA_9null_typeEEEEET_ @790
    _ZN5boost6detail8function13basic_vtable1IiP9lua_StateSaINS_13function_baseEEEC1IN7luabind6detail14mem_fn_matcherIMN6Hinage3MapEFviESD_NSA_9null_typeEEEEET_ @791
    _ZN5boost6detail8function13basic_vtable1IiP9lua_StateSaINS_13function_baseEEEC1IN7luabind6detail14mem_fn_matcherIMN6Hinage3MapEFvvESD_NSA_9null_typeEEEEET_ @792
    _ZN5boost6detail8function13basic_vtable1IiP9lua_StateSaINS_13function_baseEEEC1IN7luabind6detail14mem_fn_matcherIMN6Hinage3MapEKFivESD_NSA_9null_typeEEEEET_ @793
    _ZN5boost6detail8function13basic_vtable1IiP9lua_StateSaINS_13function_baseEEEC1IN7luabind6detail14mem_fn_matcherIMN6Hinage4GameEFRNSC_4FontESsESD_NSA_9null_typeEEEEET_ @794
    _ZN5boost6detail8function13basic_vtable1IiP9lua_StateSaINS_13function_baseEEEC1IN7luabind6detail14mem_fn_matcherIMN6Hinage4GameEFdvESD_NSA_9null_typeEEEEET_ @795
    _ZN5boost6detail8function13basic_vtable1IiP9lua_StateSaINS_13function_baseEEEC1IN7luabind6detail14mem_fn_matcherIMN6Hinage4GameEFvRNSC_4FontESsddddESD_NSA_9null_typeEEEEET_ @796
    _ZN5boost6detail8function13basic_vtable1IiP9lua_StateSaINS_13function_baseEEEC1IN7luabind6detail14mem_fn_matcherIMN6Hinage4GameEFvdESD_NSA_9null_typeEEEEET_ @797
    _ZN5boost6detail8function13basic_vtable1IiP9lua_StateSaINS_13function_baseEEEC1IN7luabind6detail14mem_fn_matcherIMN6Hinage4GameEFvvESD_NSA_9null_typeEEEEET_ @798
    _ZN5boost6detail8function13basic_vtable1IiP9lua_StateSaINS_13function_baseEEEC1IN7luabind6detail14mem_fn_matcherIMN6Hinage5TimerEFbdESD_NSA_9null_typeEEEEET_ @799
    _ZN5boost6detail8function13basic_vtable1IiP9lua_StateSaINS_13function_baseEEEC1IN7luabind6detail14mem_fn_matcherIMN6Hinage5TimerEFdvESD_NSA_9null_typeEEEEET_ @800
    _ZN5boost6detail8function13basic_vtable1IiP9lua_StateSaINS_13function_baseEEEC1IN7luabind6detail14mem_fn_matcherIMN6Hinage5TimerEFvvESD_NSA_9null_typeEEEEET_ @801
    _ZN5boost6detail8function13basic_vtable1IiP9lua_StateSaINS_13function_baseEEEC1IN7luabind6detail14mem_fn_matcherIMN6Hinage7DisplayEFdvESD_NSA_9null_typeEEEEET_ @802
    _ZN5boost6detail8function13basic_vtable1IiP9lua_StateSaINS_13function_baseEEEC1IN7luabind6detail14mem_fn_matcherIMN6Hinage7DisplayEFfvESD_NSA_9null_typeEEEEET_ @803
    _ZN5boost6detail8function13basic_vtable1IiP9lua_StateSaINS_13function_baseEEEC1IN7luabind6detail14mem_fn_matcherIMN6Hinage7DisplayEFvdESD_NSA_9null_typeEEEEET_ @804
    _ZN5boost6detail8function13basic_vtable1IiP9lua_StateSaINS_13function_baseEEEC1IN7luabind6detail14mem_fn_matcherIMN6Hinage7DisplayEFvffESD_NSA_9null_typeEEEEET_ @805
    _ZN5boost6detail8function13basic_vtable1IiP9lua_StateSaINS_13function_baseEEEC1IN7luabind6detail14mem_fn_matcherIMN6Hinage7Vector2IdEEFvdESE_NSA_9null_typeEEEEET_ @806
    _ZN5boost6detail8function13basic_vtable1IiP9lua_StateSaINS_13function_baseEEEC1IN7luabind6detail14mem_fn_matcherIMN6Hinage7Vector2IdEEFvddESE_NSA_9null_typeEEEEET_ @807
    _ZN5boost6detail8function13basic_vtable1IiP9lua_StateSaINS_13function_baseEEEC1IN7luabind6detail14mem_fn_matcherIMN6Hinage7Vector2IdEEKFdvESE_NSA_9null_typeEEEEET_ @808
    _ZN5boost6detail8function13basic_vtable1IiP9lua_StateSaINS_13function_baseEEEC1IN7luabind6detail15mem_fn_callbackIM12AudioManagerFvSsESC_NSA_9null_typeEEEEET_ @809
    _ZN5boost6detail8function13basic_vtable1IiP9lua_StateSaINS_13function_baseEEEC1IN7luabind6detail15mem_fn_callbackIM12AudioManagerFvSsbESC_NSA_9null_typeEEEEET_ @810
    _ZN5boost6detail8function13basic_vtable1IiP9lua_StateSaINS_13function_baseEEEC1IN7luabind6detail15mem_fn_callbackIM12AudioManagerFvvESC_NSA_9null_typeEEEEET_ @811
    _ZN5boost6detail8function13basic_vtable1IiP9lua_StateSaINS_13function_baseEEEC1IN7luabind6detail15mem_fn_callbackIMN6Hinage12InputManagerEFbiESD_NSA_9null_typeEEEEET_ @812
    _ZN5boost6detail8function13basic_vtable1IiP9lua_StateSaINS_13function_baseEEEC1IN7luabind6detail15mem_fn_callbackIMN6Hinage14PhysicalEntityEFSsvESD_NSA_9null_typeEEEEET_ @813
    _ZN5boost6detail8function13basic_vtable1IiP9lua_StateSaINS_13function_baseEEEC1IN7luabind6detail15mem_fn_callbackIMN6Hinage14PhysicalEntityEFbSsbdESD_NSA_9null_typeEEEEET_ @814
    _ZN5boost6detail8function13basic_vtable1IiP9lua_StateSaINS_13function_baseEEEC1IN7luabind6detail15mem_fn_callbackIMN6Hinage14PhysicalEntityEFdvESD_NSA_9null_typeEEEEET_ @815
    _ZN5boost6detail8function13basic_vtable1IiP9lua_StateSaINS_13function_baseEEEC1IN7luabind6detail15mem_fn_callbackIMN6Hinage14PhysicalEntityEFivESD_NSA_9null_typeEEEEET_ @816
    _ZN5boost6detail8function13basic_vtable1IiP9lua_StateSaINS_13function_baseEEEC1IN7luabind6detail15mem_fn_callbackIMN6Hinage14PhysicalEntityEFvbESD_NSA_9null_typeEEEEET_ @817
    _ZN5boost6detail8function13basic_vtable1IiP9lua_StateSaINS_13function_baseEEEC1IN7luabind6detail15mem_fn_callbackIMN6Hinage14PhysicalEntityEFvdESD_NSA_9null_typeEEEEET_ @818
    _ZN5boost6detail8function13basic_vtable1IiP9lua_StateSaINS_13function_baseEEEC1IN7luabind6detail15mem_fn_callbackIMN6Hinage14PhysicalEntityEFvddESD_NSA_9null_typeEEEEET_ @819
    _ZN5boost6detail8function13basic_vtable1IiP9lua_StateSaINS_13function_baseEEEC1IN7luabind6detail15mem_fn_callbackIMN6Hinage14PhysicalEntityEFvdddESD_NSA_9null_typeEEEEET_ @820
    _ZN5boost6detail8function13basic_vtable1IiP9lua_StateSaINS_13function_baseEEEC1IN7luabind6detail15mem_fn_callbackIMN6Hinage3MapEFRNSC_14PhysicalEntityESsddESD_NSA_9null_typeEEEEET_ @821
    _ZN5boost6detail8function13basic_vtable1IiP9lua_StateSaINS_13function_baseEEEC1IN7luabind6detail15mem_fn_callbackIMN6Hinage3MapEFRNSC_14PhysicalEntityEiESD_NSA_9null_typeEEEEET_ @822
    _ZN5boost6detail8function13basic_vtable1IiP9lua_StateSaINS_13function_baseEEEC1IN7luabind6detail15mem_fn_callbackIMN6Hinage3MapEFivESD_NSA_9null_typeEEEEET_ @823
    _ZN5boost6detail8function13basic_vtable1IiP9lua_StateSaINS_13function_baseEEEC1IN7luabind6detail15mem_fn_callbackIMN6Hinage3MapEFvSsESD_NSA_9null_typeEEEEET_ @824
    _ZN5boost6detail8function13basic_vtable1IiP9lua_StateSaINS_13function_baseEEEC1IN7luabind6detail15mem_fn_callbackIMN6Hinage3MapEFvSsbESD_NSA_9null_typeEEEEET_ @825
    _ZN5boost6detail8function13basic_vtable1IiP9lua_StateSaINS_13function_baseEEEC1IN7luabind6detail15mem_fn_callbackIMN6Hinage3MapEFviESD_NSA_9null_typeEEEEET_ @826
    _ZN5boost6detail8function13basic_vtable1IiP9lua_StateSaINS_13function_baseEEEC1IN7luabind6detail15mem_fn_callbackIMN6Hinage3MapEFvvESD_NSA_9null_typeEEEEET_ @827
    _ZN5boost6detail8function13basic_vtable1IiP9lua_StateSaINS_13function_baseEEEC1IN7luabind6detail15mem_fn_callbackIMN6Hinage3MapEKFivESD_NSA_9null_typeEEEEET_ @828
    _ZN5boost6detail8function13basic_vtable1IiP9lua_StateSaINS_13function_baseEEEC1IN7luabind6detail15mem_fn_callbackIMN6Hinage4GameEFRNSC_4FontESsESD_NSA_9null_typeEEEEET_ @829
    _ZN5boost6detail8function13basic_vtable1IiP9lua_StateSaINS_13function_baseEEEC1IN7luabind6detail15mem_fn_callbackIMN6Hinage4GameEFdvESD_NSA_9null_typeEEEEET_ @830
    _ZN5boost6detail8function13basic_vtable1IiP9lua_StateSaINS_13function_baseEEEC1IN7luabind6detail15mem_fn_callbackIMN6Hinage4GameEFvRNSC_4FontESsddddESD_NSA_9null_typeEEEEET_ @831
    _ZN5boost6detail8function13basic_vtable1IiP9lua_StateSaINS_13function_baseEEEC1IN7luabind6detail15mem_fn_callbackIMN6Hinage4GameEFvdESD_NSA_9null_typeEEEEET_ @832
    _ZN5boost6detail8function13basic_vtable1IiP9lua_StateSaINS_13function_baseEEEC1IN7luabind6detail15mem_fn_callbackIMN6Hinage4GameEFvvESD_NSA_9null_typeEEEEET_ @833
    _ZN5boost6detail8function13basic_vtable1IiP9lua_StateSaINS_13function_baseEEEC1IN7luabind6detail15mem_fn_callbackIMN6Hinage5TimerEFbdESD_NSA_9null_typeEEEEET_ @834
    _ZN5boost6detail8function13basic_vtable1IiP9lua_StateSaINS_13function_baseEEEC1IN7luabind6detail15mem_fn_callbackIMN6Hinage5TimerEFdvESD_NSA_9null_typeEEEEET_ @835
    _ZN5boost6detail8function13basic_vtable1IiP9lua_StateSaINS_13function_baseEEEC1IN7luabind6detail15mem_fn_callbackIMN6Hinage5TimerEFvvESD_NSA_9null_typeEEEEET_ @836
    _ZN5boost6detail8function13basic_vtable1IiP9lua_StateSaINS_13function_baseEEEC1IN7luabind6detail15mem_fn_callbackIMN6Hinage7DisplayEFdvESD_NSA_9null_typeEEEEET_ @837
    _ZN5boost6detail8function13basic_vtable1IiP9lua_StateSaINS_13function_baseEEEC1IN7luabind6detail15mem_fn_callbackIMN6Hinage7DisplayEFfvESD_NSA_9null_typeEEEEET_ @838
    _ZN5boost6detail8function13basic_vtable1IiP9lua_StateSaINS_13function_baseEEEC1IN7luabind6detail15mem_fn_callbackIMN6Hinage7DisplayEFvdESD_NSA_9null_typeEEEEET_ @839
    _ZN5boost6detail8function13basic_vtable1IiP9lua_StateSaINS_13function_baseEEEC1IN7luabind6detail15mem_fn_callbackIMN6Hinage7DisplayEFvffESD_NSA_9null_typeEEEEET_ @840
    _ZN5boost6detail8function13basic_vtable1IiP9lua_StateSaINS_13function_baseEEEC1IN7luabind6detail15mem_fn_callbackIMN6Hinage7Vector2IdEEFvdESE_NSA_9null_typeEEEEET_ @841
    _ZN5boost6detail8function13basic_vtable1IiP9lua_StateSaINS_13function_baseEEEC1IN7luabind6detail15mem_fn_callbackIMN6Hinage7Vector2IdEEFvddESE_NSA_9null_typeEEEEET_ @842
    _ZN5boost6detail8function13basic_vtable1IiP9lua_StateSaINS_13function_baseEEEC1IN7luabind6detail15mem_fn_callbackIMN6Hinage7Vector2IdEEKFdvESE_NSA_9null_typeEEEEET_ @843
    _ZN5boost6detail8function13basic_vtable1IiP9lua_StateSaINS_13function_baseEEEC1IPFiS4_EEET_ @844
    _ZN5boost6detail8function13basic_vtable2IiP9lua_StateiSaINS_13function_baseEEE14assign_functorINS_3_bi6bind_tIiN7luabind6detail8auto_getIN6Hinage14PhysicalEntityEbNSC_9null_typeEEENS9_5list3IPFNS_3argILi1EEEvEPFNSJ_ILi2EEEvENS9_5valueIMSF_bEEEEEEEEvT_RNS1_15function_bufferEN4mpl_5bool_ILb1EEE @845
    _ZN5boost6detail8function13basic_vtable2IiP9lua_StateiSaINS_13function_baseEEE4initINS_3_bi6bind_tIiN7luabind6detail8auto_getIN6Hinage14PhysicalEntityEbNSC_9null_typeEEENS9_5list3IPFNS_3argILi1EEEvEPFNSJ_ILi2EEEvENS9_5valueIMSF_bEEEEEEEEvT_ @846
    _ZN5boost6detail8function13basic_vtable2IiP9lua_StateiSaINS_13function_baseEEE4initINS_3_bi6bind_tIiN7luabind6detail8auto_getIN6Hinage14PhysicalEntityEbNSC_9null_typeEEENS9_5list3IPFNS_3argILi1EEEvEPFNSJ_ILi2EEEvENS9_5valueIMSF_bEEEEEEEEvT_NS1_16function_obj_tagE @847
    _ZN5boost6detail8function13basic_vtable2IiP9lua_StateiSaINS_13function_baseEEE5clearERNS1_15function_bufferE @848
    _ZN5boost6detail8function13basic_vtable2IiP9lua_StateiSaINS_13function_baseEEE9assign_toINS_3_bi6bind_tIiN7luabind6detail8auto_getIN6Hinage14PhysicalEntityEbNSC_9null_typeEEENS9_5list3IPFNS_3argILi1EEEvEPFNSJ_ILi2EEEvENS9_5valueIMSF_bEEEEEEEEbT_RNS1_15function_bufferE @849
    _ZN5boost6detail8function13basic_vtable2IiP9lua_StateiSaINS_13function_baseEEE9assign_toINS_3_bi6bind_tIiN7luabind6detail8auto_getIN6Hinage14PhysicalEntityEbNSC_9null_typeEEENS9_5list3IPFNS_3argILi1EEEvEPFNSJ_ILi2EEEvENS9_5valueIMSF_bEEEEEEEEbT_RNS1_15function_bufferENS1_16function_obj_tagE @850
    _ZN5boost6detail8function13basic_vtable2IiP9lua_StateiSaINS_13function_baseEEEC1INS_3_bi6bind_tIiN7luabind6detail8auto_getIN6Hinage14PhysicalEntityEbNSC_9null_typeEEENS9_5list3IPFNS_3argILi1EEEvEPFNSJ_ILi2EEEvENS9_5valueIMSF_bEEEEEEEET_ @851
    _ZN5boost6detail8function15functor_managerIN7luabind6detail14mem_fn_matcherIM12AudioManagerFvSsES6_NS4_9null_typeEEESaINS_13function_baseEEE6manageERKNS1_15function_bufferERSE_NS1_30functor_manager_operation_typeE @852
    _ZN5boost6detail8function15functor_managerIN7luabind6detail14mem_fn_matcherIM12AudioManagerFvSsES6_NS4_9null_typeEEESaINS_13function_baseEEE7managerERKNS1_15function_bufferERSE_NS1_30functor_manager_operation_typeEN4mpl_5bool_ILb1EEE @853
    _ZN5boost6detail8function15functor_managerIN7luabind6detail14mem_fn_matcherIM12AudioManagerFvSsES6_NS4_9null_typeEEESaINS_13function_baseEEE7managerERKNS1_15function_bufferERSE_NS1_30functor_manager_operation_typeENS1_16function_obj_tagE @854
    _ZN5boost6detail8function15functor_managerIN7luabind6detail14mem_fn_matcherIM12AudioManagerFvSsbES6_NS4_9null_typeEEESaINS_13function_baseEEE6manageERKNS1_15function_bufferERSE_NS1_30functor_manager_operation_typeE @855
    _ZN5boost6detail8function15functor_managerIN7luabind6detail14mem_fn_matcherIM12AudioManagerFvSsbES6_NS4_9null_typeEEESaINS_13function_baseEEE7managerERKNS1_15function_bufferERSE_NS1_30functor_manager_operation_typeEN4mpl_5bool_ILb1EEE @856
    _ZN5boost6detail8function15functor_managerIN7luabind6detail14mem_fn_matcherIM12AudioManagerFvSsbES6_NS4_9null_typeEEESaINS_13function_baseEEE7managerERKNS1_15function_bufferERSE_NS1_30functor_manager_operation_typeENS1_16function_obj_tagE @857
    _ZN5boost6detail8function15functor_managerIN7luabind6detail14mem_fn_matcherIM12AudioManagerFvvES6_NS4_9null_typeEEESaINS_13function_baseEEE6manageERKNS1_15function_bufferERSE_NS1_30functor_manager_operation_typeE @858
    _ZN5boost6detail8function15functor_managerIN7luabind6detail14mem_fn_matcherIM12AudioManagerFvvES6_NS4_9null_typeEEESaINS_13function_baseEEE7managerERKNS1_15function_bufferERSE_NS1_30functor_manager_operation_typeEN4mpl_5bool_ILb1EEE @859
    _ZN5boost6detail8function15functor_managerIN7luabind6detail14mem_fn_matcherIM12AudioManagerFvvES6_NS4_9null_typeEEESaINS_13function_baseEEE7managerERKNS1_15function_bufferERSE_NS1_30functor_manager_operation_typeENS1_16function_obj_tagE @860
    _ZN5boost6detail8function15functor_managerIN7luabind6detail14mem_fn_matcherIMN6Hinage12InputManagerEFbiES7_NS4_9null_typeEEESaINS_13function_baseEEE6manageERKNS1_15function_bufferERSF_NS1_30functor_manager_operation_typeE @861
    _ZN5boost6detail8function15functor_managerIN7luabind6detail14mem_fn_matcherIMN6Hinage12InputManagerEFbiES7_NS4_9null_typeEEESaINS_13function_baseEEE7managerERKNS1_15function_bufferERSF_NS1_30functor_manager_operation_typeEN4mpl_5bool_ILb1EEE @862
    _ZN5boost6detail8function15functor_managerIN7luabind6detail14mem_fn_matcherIMN6Hinage12InputManagerEFbiES7_NS4_9null_typeEEESaINS_13function_baseEEE7managerERKNS1_15function_bufferERSF_NS1_30functor_manager_operation_typeENS1_16function_obj_tagE @863
    _ZN5boost6detail8function15functor_managerIN7luabind6detail14mem_fn_matcherIMN6Hinage14PhysicalEntityEFSsvES7_NS4_9null_typeEEESaINS_13function_baseEEE6manageERKNS1_15function_bufferERSF_NS1_30functor_manager_operation_typeE @864
    _ZN5boost6detail8function15functor_managerIN7luabind6detail14mem_fn_matcherIMN6Hinage14PhysicalEntityEFSsvES7_NS4_9null_typeEEESaINS_13function_baseEEE7managerERKNS1_15function_bufferERSF_NS1_30functor_manager_operation_typeEN4mpl_5bool_ILb1EEE @865
    _ZN5boost6detail8function15functor_managerIN7luabind6detail14mem_fn_matcherIMN6Hinage14PhysicalEntityEFSsvES7_NS4_9null_typeEEESaINS_13function_baseEEE7managerERKNS1_15function_bufferERSF_NS1_30functor_manager_operation_typeENS1_16function_obj_tagE @866
    _ZN5boost6detail8function15functor_managerIN7luabind6detail14mem_fn_matcherIMN6Hinage14PhysicalEntityEFbSsbdES7_NS4_9null_typeEEESaINS_13function_baseEEE6manageERKNS1_15function_bufferERSF_NS1_30functor_manager_operation_typeE @867
    _ZN5boost6detail8function15functor_managerIN7luabind6detail14mem_fn_matcherIMN6Hinage14PhysicalEntityEFbSsbdES7_NS4_9null_typeEEESaINS_13function_baseEEE7managerERKNS1_15function_bufferERSF_NS1_30functor_manager_operation_typeEN4mpl_5bool_ILb1EEE @868
    _ZN5boost6detail8function15functor_managerIN7luabind6detail14mem_fn_matcherIMN6Hinage14PhysicalEntityEFbSsbdES7_NS4_9null_typeEEESaINS_13function_baseEEE7managerERKNS1_15function_bufferERSF_NS1_30functor_manager_operation_typeENS1_16function_obj_tagE @869
    _ZN5boost6detail8function15functor_managerIN7luabind6detail14mem_fn_matcherIMN6Hinage14PhysicalEntityEFdvES7_NS4_9null_typeEEESaINS_13function_baseEEE6manageERKNS1_15function_bufferERSF_NS1_30functor_manager_operation_typeE @870
    _ZN5boost6detail8function15functor_managerIN7luabind6detail14mem_fn_matcherIMN6Hinage14PhysicalEntityEFdvES7_NS4_9null_typeEEESaINS_13function_baseEEE7managerERKNS1_15function_bufferERSF_NS1_30functor_manager_operation_typeEN4mpl_5bool_ILb1EEE @871
    _ZN5boost6detail8function15functor_managerIN7luabind6detail14mem_fn_matcherIMN6Hinage14PhysicalEntityEFdvES7_NS4_9null_typeEEESaINS_13function_baseEEE7managerERKNS1_15function_bufferERSF_NS1_30functor_manager_operation_typeENS1_16function_obj_tagE @872
    _ZN5boost6detail8function15functor_managerIN7luabind6detail14mem_fn_matcherIMN6Hinage14PhysicalEntityEFivES7_NS4_9null_typeEEESaINS_13function_baseEEE6manageERKNS1_15function_bufferERSF_NS1_30functor_manager_operation_typeE @873
    _ZN5boost6detail8function15functor_managerIN7luabind6detail14mem_fn_matcherIMN6Hinage14PhysicalEntityEFivES7_NS4_9null_typeEEESaINS_13function_baseEEE7managerERKNS1_15function_bufferERSF_NS1_30functor_manager_operation_typeEN4mpl_5bool_ILb1EEE @874
    _ZN5boost6detail8function15functor_managerIN7luabind6detail14mem_fn_matcherIMN6Hinage14PhysicalEntityEFivES7_NS4_9null_typeEEESaINS_13function_baseEEE7managerERKNS1_15function_bufferERSF_NS1_30functor_manager_operation_typeENS1_16function_obj_tagE @875
    _ZN5boost6detail8function15functor_managerIN7luabind6detail14mem_fn_matcherIMN6Hinage14PhysicalEntityEFvbES7_NS4_9null_typeEEESaINS_13function_baseEEE6manageERKNS1_15function_bufferERSF_NS1_30functor_manager_operation_typeE @876
    _ZN5boost6detail8function15functor_managerIN7luabind6detail14mem_fn_matcherIMN6Hinage14PhysicalEntityEFvbES7_NS4_9null_typeEEESaINS_13function_baseEEE7managerERKNS1_15function_bufferERSF_NS1_30functor_manager_operation_typeEN4mpl_5bool_ILb1EEE @877
    _ZN5boost6detail8function15functor_managerIN7luabind6detail14mem_fn_matcherIMN6Hinage14PhysicalEntityEFvbES7_NS4_9null_typeEEESaINS_13function_baseEEE7managerERKNS1_15function_bufferERSF_NS1_30functor_manager_operation_typeENS1_16function_obj_tagE @878
    _ZN5boost6detail8function15functor_managerIN7luabind6detail14mem_fn_matcherIMN6Hinage14PhysicalEntityEFvdES7_NS4_9null_typeEEESaINS_13function_baseEEE6manageERKNS1_15function_bufferERSF_NS1_30functor_manager_operation_typeE @879
    _ZN5boost6detail8function15functor_managerIN7luabind6detail14mem_fn_matcherIMN6Hinage14PhysicalEntityEFvdES7_NS4_9null_typeEEESaINS_13function_baseEEE7managerERKNS1_15function_bufferERSF_NS1_30functor_manager_operation_typeEN4mpl_5bool_ILb1EEE @880
    _ZN5boost6detail8function15functor_managerIN7luabind6detail14mem_fn_matcherIMN6Hinage14PhysicalEntityEFvdES7_NS4_9null_typeEEESaINS_13function_baseEEE7managerERKNS1_15function_bufferERSF_NS1_30functor_manager_operation_typeENS1_16function_obj_tagE @881
    _ZN5boost6detail8function15functor_managerIN7luabind6detail14mem_fn_matcherIMN6Hinage14PhysicalEntityEFvddES7_NS4_9null_typeEEESaINS_13function_baseEEE6manageERKNS1_15function_bufferERSF_NS1_30functor_manager_operation_typeE @882
    _ZN5boost6detail8function15functor_managerIN7luabind6detail14mem_fn_matcherIMN6Hinage14PhysicalEntityEFvddES7_NS4_9null_typeEEESaINS_13function_baseEEE7managerERKNS1_15function_bufferERSF_NS1_30functor_manager_operation_typeEN4mpl_5bool_ILb1EEE @883
    _ZN5boost6detail8function15functor_managerIN7luabind6detail14mem_fn_matcherIMN6Hinage14PhysicalEntityEFvddES7_NS4_9null_typeEEESaINS_13function_baseEEE7managerERKNS1_15function_bufferERSF_NS1_30functor_manager_operation_typeENS1_16function_obj_tagE @884
    _ZN5boost6detail8function15functor_managerIN7luabind6detail14mem_fn_matcherIMN6Hinage14PhysicalEntityEFvdddES7_NS4_9null_typeEEESaINS_13function_baseEEE6manageERKNS1_15function_bufferERSF_NS1_30functor_manager_operation_typeE @885
    _ZN5boost6detail8function15functor_managerIN7luabind6detail14mem_fn_matcherIMN6Hinage14PhysicalEntityEFvdddES7_NS4_9null_typeEEESaINS_13function_baseEEE7managerERKNS1_15function_bufferERSF_NS1_30functor_manager_operation_typeEN4mpl_5bool_ILb1EEE @886
    _ZN5boost6detail8function15functor_managerIN7luabind6detail14mem_fn_matcherIMN6Hinage14PhysicalEntityEFvdddES7_NS4_9null_typeEEESaINS_13function_baseEEE7managerERKNS1_15function_bufferERSF_NS1_30functor_manager_operation_typeENS1_16function_obj_tagE @887
    _ZN5boost6detail8function15functor_managerIN7luabind6detail14mem_fn_matcherIMN6Hinage3MapEFRNS6_14PhysicalEntityESsddES7_NS4_9null_typeEEESaINS_13function_baseEEE6manageERKNS1_15function_bufferERSH_NS1_30functor_manager_operation_typeE @888
    _ZN5boost6detail8function15functor_managerIN7luabind6detail14mem_fn_matcherIMN6Hinage3MapEFRNS6_14PhysicalEntityESsddES7_NS4_9null_typeEEESaINS_13function_baseEEE7managerERKNS1_15function_bufferERSH_NS1_30functor_manager_operation_typeEN4mpl_5bool_ILb1EEE @889
    _ZN5boost6detail8function15functor_managerIN7luabind6detail14mem_fn_matcherIMN6Hinage3MapEFRNS6_14PhysicalEntityESsddES7_NS4_9null_typeEEESaINS_13function_baseEEE7managerERKNS1_15function_bufferERSH_NS1_30functor_manager_operation_typeENS1_16function_obj_tagE @890
    _ZN5boost6detail8function15functor_managerIN7luabind6detail14mem_fn_matcherIMN6Hinage3MapEFRNS6_14PhysicalEntityEiES7_NS4_9null_typeEEESaINS_13function_baseEEE6manageERKNS1_15function_bufferERSH_NS1_30functor_manager_operation_typeE @891
    _ZN5boost6detail8function15functor_managerIN7luabind6detail14mem_fn_matcherIMN6Hinage3MapEFRNS6_14PhysicalEntityEiES7_NS4_9null_typeEEESaINS_13function_baseEEE7managerERKNS1_15function_bufferERSH_NS1_30functor_manager_operation_typeEN4mpl_5bool_ILb1EEE @892
    _ZN5boost6detail8function15functor_managerIN7luabind6detail14mem_fn_matcherIMN6Hinage3MapEFRNS6_14PhysicalEntityEiES7_NS4_9null_typeEEESaINS_13function_baseEEE7managerERKNS1_15function_bufferERSH_NS1_30functor_manager_operation_typeENS1_16function_obj_tagE @893
    _ZN5boost6detail8function15functor_managerIN7luabind6detail14mem_fn_matcherIMN6Hinage3MapEFivES7_NS4_9null_typeEEESaINS_13function_baseEEE6manageERKNS1_15function_bufferERSF_NS1_30functor_manager_operation_typeE @894
    _ZN5boost6detail8function15functor_managerIN7luabind6detail14mem_fn_matcherIMN6Hinage3MapEFivES7_NS4_9null_typeEEESaINS_13function_baseEEE7managerERKNS1_15function_bufferERSF_NS1_30functor_manager_operation_typeEN4mpl_5bool_ILb1EEE @895
    _ZN5boost6detail8function15functor_managerIN7luabind6detail14mem_fn_matcherIMN6Hinage3MapEFivES7_NS4_9null_typeEEESaINS_13function_baseEEE7managerERKNS1_15function_bufferERSF_NS1_30functor_manager_operation_typeENS1_16function_obj_tagE @896
    _ZN5boost6detail8function15functor_managerIN7luabind6detail14mem_fn_matcherIMN6Hinage3MapEFvSsES7_NS4_9null_typeEEESaINS_13function_baseEEE6manageERKNS1_15function_bufferERSF_NS1_30functor_manager_operation_typeE @897
    _ZN5boost6detail8function15functor_managerIN7luabind6detail14mem_fn_matcherIMN6Hinage3MapEFvSsES7_NS4_9null_typeEEESaINS_13function_baseEEE7managerERKNS1_15function_bufferERSF_NS1_30functor_manager_operation_typeEN4mpl_5bool_ILb1EEE @898
    _ZN5boost6detail8function15functor_managerIN7luabind6detail14mem_fn_matcherIMN6Hinage3MapEFvSsES7_NS4_9null_typeEEESaINS_13function_baseEEE7managerERKNS1_15function_bufferERSF_NS1_30functor_manager_operation_typeENS1_16function_obj_tagE @899
    _ZN5boost6detail8function15functor_managerIN7luabind6detail14mem_fn_matcherIMN6Hinage3MapEFvSsbES7_NS4_9null_typeEEESaINS_13function_baseEEE6manageERKNS1_15function_bufferERSF_NS1_30functor_manager_operation_typeE @900
    _ZN5boost6detail8function15functor_managerIN7luabind6detail14mem_fn_matcherIMN6Hinage3MapEFvSsbES7_NS4_9null_typeEEESaINS_13function_baseEEE7managerERKNS1_15function_bufferERSF_NS1_30functor_manager_operation_typeEN4mpl_5bool_ILb1EEE @901
    _ZN5boost6detail8function15functor_managerIN7luabind6detail14mem_fn_matcherIMN6Hinage3MapEFvSsbES7_NS4_9null_typeEEESaINS_13function_baseEEE7managerERKNS1_15function_bufferERSF_NS1_30functor_manager_operation_typeENS1_16function_obj_tagE @902
    _ZN5boost6detail8function15functor_managerIN7luabind6detail14mem_fn_matcherIMN6Hinage3MapEFviES7_NS4_9null_typeEEESaINS_13function_baseEEE6manageERKNS1_15function_bufferERSF_NS1_30functor_manager_operation_typeE @903
    _ZN5boost6detail8function15functor_managerIN7luabind6detail14mem_fn_matcherIMN6Hinage3MapEFviES7_NS4_9null_typeEEESaINS_13function_baseEEE7managerERKNS1_15function_bufferERSF_NS1_30functor_manager_operation_typeEN4mpl_5bool_ILb1EEE @904
    _ZN5boost6detail8function15functor_managerIN7luabind6detail14mem_fn_matcherIMN6Hinage3MapEFviES7_NS4_9null_typeEEESaINS_13function_baseEEE7managerERKNS1_15function_bufferERSF_NS1_30functor_manager_operation_typeENS1_16function_obj_tagE @905
    _ZN5boost6detail8function15functor_managerIN7luabind6detail14mem_fn_matcherIMN6Hinage3MapEFvvES7_NS4_9null_typeEEESaINS_13function_baseEEE6manageERKNS1_15function_bufferERSF_NS1_30functor_manager_operation_typeE @906
    _ZN5boost6detail8function15functor_managerIN7luabind6detail14mem_fn_matcherIMN6Hinage3MapEFvvES7_NS4_9null_typeEEESaINS_13function_baseEEE7managerERKNS1_15function_bufferERSF_NS1_30functor_manager_operation_typeEN4mpl_5bool_ILb1EEE @907
    _ZN5boost6detail8function15functor_managerIN7luabind6detail14mem_fn_matcherIMN6Hinage3MapEFvvES7_NS4_9null_typeEEESaINS_13function_baseEEE7managerERKNS1_15function_bufferERSF_NS1_30functor_manager_operation_typeENS1_16function_obj_tagE @908
    _ZN5boost6detail8function15functor_managerIN7luabind6detail14mem_fn_matcherIMN6Hinage3MapEKFivES7_NS4_9null_typeEEESaINS_13function_baseEEE6manageERKNS1_15function_bufferERSF_NS1_30functor_manager_operation_typeE @909
    _ZN5boost6detail8function15functor_managerIN7luabind6detail14mem_fn_matcherIMN6Hinage3MapEKFivES7_NS4_9null_typeEEESaINS_13function_baseEEE7managerERKNS1_15function_bufferERSF_NS1_30functor_manager_operation_typeEN4mpl_5bool_ILb1EEE @910
    _ZN5boost6detail8function15functor_managerIN7luabind6detail14mem_fn_matcherIMN6Hinage3MapEKFivES7_NS4_9null_typeEEESaINS_13function_baseEEE7managerERKNS1_15function_bufferERSF_NS1_30functor_manager_operation_typeENS1_16function_obj_tagE @911
    _ZN5boost6detail8function15functor_managerIN7luabind6detail14mem_fn_matcherIMN6Hinage4GameEFRNS6_4FontESsES7_NS4_9null_typeEEESaINS_13function_baseEEE6manageERKNS1_15function_bufferERSH_NS1_30functor_manager_operation_typeE @912
    _ZN5boost6detail8function15functor_managerIN7luabind6detail14mem_fn_matcherIMN6Hinage4GameEFRNS6_4FontESsES7_NS4_9null_typeEEESaINS_13function_baseEEE7managerERKNS1_15function_bufferERSH_NS1_30functor_manager_operation_typeEN4mpl_5bool_ILb1EEE @913
    _ZN5boost6detail8function15functor_managerIN7luabind6detail14mem_fn_matcherIMN6Hinage4GameEFRNS6_4FontESsES7_NS4_9null_typeEEESaINS_13function_baseEEE7managerERKNS1_15function_bufferERSH_NS1_30functor_manager_operation_typeENS1_16function_obj_tagE @914
    _ZN5boost6detail8function15functor_managerIN7luabind6detail14mem_fn_matcherIMN6Hinage4GameEFdvES7_NS4_9null_typeEEESaINS_13function_baseEEE6manageERKNS1_15function_bufferERSF_NS1_30functor_manager_operation_typeE @915
    _ZN5boost6detail8function15functor_managerIN7luabind6detail14mem_fn_matcherIMN6Hinage4GameEFdvES7_NS4_9null_typeEEESaINS_13function_baseEEE7managerERKNS1_15function_bufferERSF_NS1_30functor_manager_operation_typeEN4mpl_5bool_ILb1EEE @916
    _ZN5boost6detail8function15functor_managerIN7luabind6detail14mem_fn_matcherIMN6Hinage4GameEFdvES7_NS4_9null_typeEEESaINS_13function_baseEEE7managerERKNS1_15function_bufferERSF_NS1_30functor_manager_operation_typeENS1_16function_obj_tagE @917
    _ZN5boost6detail8function15functor_managerIN7luabind6detail14mem_fn_matcherIMN6Hinage4GameEFvRNS6_4FontESsddddES7_NS4_9null_typeEEESaINS_13function_baseEEE6manageERKNS1_15function_bufferERSH_NS1_30functor_manager_operation_typeE @918
    _ZN5boost6detail8function15functor_managerIN7luabind6detail14mem_fn_matcherIMN6Hinage4GameEFvRNS6_4FontESsddddES7_NS4_9null_typeEEESaINS_13function_baseEEE7managerERKNS1_15function_bufferERSH_NS1_30functor_manager_operation_typeEN4mpl_5bool_ILb1EEE @919
    _ZN5boost6detail8function15functor_managerIN7luabind6detail14mem_fn_matcherIMN6Hinage4GameEFvRNS6_4FontESsddddES7_NS4_9null_typeEEESaINS_13function_baseEEE7managerERKNS1_15function_bufferERSH_NS1_30functor_manager_operation_typeENS1_16function_obj_tagE @920
    _ZN5boost6detail8function15functor_managerIN7luabind6detail14mem_fn_matcherIMN6Hinage4GameEFvdES7_NS4_9null_typeEEESaINS_13function_baseEEE6manageERKNS1_15function_bufferERSF_NS1_30functor_manager_operation_typeE @921
    _ZN5boost6detail8function15functor_managerIN7luabind6detail14mem_fn_matcherIMN6Hinage4GameEFvdES7_NS4_9null_typeEEESaINS_13function_baseEEE7managerERKNS1_15function_bufferERSF_NS1_30functor_manager_operation_typeEN4mpl_5bool_ILb1EEE @922
    _ZN5boost6detail8function15functor_managerIN7luabind6detail14mem_fn_matcherIMN6Hinage4GameEFvdES7_NS4_9null_typeEEESaINS_13function_baseEEE7managerERKNS1_15function_bufferERSF_NS1_30functor_manager_operation_typeENS1_16function_obj_tagE @923
    _ZN5boost6detail8function15functor_managerIN7luabind6detail14mem_fn_matcherIMN6Hinage4GameEFvvES7_NS4_9null_typeEEESaINS_13function_baseEEE6manageERKNS1_15function_bufferERSF_NS1_30functor_manager_operation_typeE @924
    _ZN5boost6detail8function15functor_managerIN7luabind6detail14mem_fn_matcherIMN6Hinage4GameEFvvES7_NS4_9null_typeEEESaINS_13function_baseEEE7managerERKNS1_15function_bufferERSF_NS1_30functor_manager_operation_typeEN4mpl_5bool_ILb1EEE @925
    _ZN5boost6detail8function15functor_managerIN7luabind6detail14mem_fn_matcherIMN6Hinage4GameEFvvES7_NS4_9null_typeEEESaINS_13function_baseEEE7managerERKNS1_15function_bufferERSF_NS1_30functor_manager_operation_typeENS1_16function_obj_tagE @926
    _ZN5boost6detail8function15functor_managerIN7luabind6detail14mem_fn_matcherIMN6Hinage5TimerEFbdES7_NS4_9null_typeEEESaINS_13function_baseEEE6manageERKNS1_15function_bufferERSF_NS1_30functor_manager_operation_typeE @927
    _ZN5boost6detail8function15functor_managerIN7luabind6detail14mem_fn_matcherIMN6Hinage5TimerEFbdES7_NS4_9null_typeEEESaINS_13function_baseEEE7managerERKNS1_15function_bufferERSF_NS1_30functor_manager_operation_typeEN4mpl_5bool_ILb1EEE @928
    _ZN5boost6detail8function15functor_managerIN7luabind6detail14mem_fn_matcherIMN6Hinage5TimerEFbdES7_NS4_9null_typeEEESaINS_13function_baseEEE7managerERKNS1_15function_bufferERSF_NS1_30functor_manager_operation_typeENS1_16function_obj_tagE @929
    _ZN5boost6detail8function15functor_managerIN7luabind6detail14mem_fn_matcherIMN6Hinage5TimerEFdvES7_NS4_9null_typeEEESaINS_13function_baseEEE6manageERKNS1_15function_bufferERSF_NS1_30functor_manager_operation_typeE @930
    _ZN5boost6detail8function15functor_managerIN7luabind6detail14mem_fn_matcherIMN6Hinage5TimerEFdvES7_NS4_9null_typeEEESaINS_13function_baseEEE7managerERKNS1_15function_bufferERSF_NS1_30functor_manager_operation_typeEN4mpl_5bool_ILb1EEE @931
    _ZN5boost6detail8function15functor_managerIN7luabind6detail14mem_fn_matcherIMN6Hinage5TimerEFdvES7_NS4_9null_typeEEESaINS_13function_baseEEE7managerERKNS1_15function_bufferERSF_NS1_30functor_manager_operation_typeENS1_16function_obj_tagE @932
    _ZN5boost6detail8function15functor_managerIN7luabind6detail14mem_fn_matcherIMN6Hinage5TimerEFvvES7_NS4_9null_typeEEESaINS_13function_baseEEE6manageERKNS1_15function_bufferERSF_NS1_30functor_manager_operation_typeE @933
    _ZN5boost6detail8function15functor_managerIN7luabind6detail14mem_fn_matcherIMN6Hinage5TimerEFvvES7_NS4_9null_typeEEESaINS_13function_baseEEE7managerERKNS1_15function_bufferERSF_NS1_30functor_manager_operation_typeEN4mpl_5bool_ILb1EEE @934
    _ZN5boost6detail8function15functor_managerIN7luabind6detail14mem_fn_matcherIMN6Hinage5TimerEFvvES7_NS4_9null_typeEEESaINS_13function_baseEEE7managerERKNS1_15function_bufferERSF_NS1_30functor_manager_operation_typeENS1_16function_obj_tagE @935
    _ZN5boost6detail8function15functor_managerIN7luabind6detail14mem_fn_matcherIMN6Hinage7DisplayEFdvES7_NS4_9null_typeEEESaINS_13function_baseEEE6manageERKNS1_15function_bufferERSF_NS1_30functor_manager_operation_typeE @936
    _ZN5boost6detail8function15functor_managerIN7luabind6detail14mem_fn_matcherIMN6Hinage7DisplayEFdvES7_NS4_9null_typeEEESaINS_13function_baseEEE7managerERKNS1_15function_bufferERSF_NS1_30functor_manager_operation_typeEN4mpl_5bool_ILb1EEE @937
    _ZN5boost6detail8function15functor_managerIN7luabind6detail14mem_fn_matcherIMN6Hinage7DisplayEFdvES7_NS4_9null_typeEEESaINS_13function_baseEEE7managerERKNS1_15function_bufferERSF_NS1_30functor_manager_operation_typeENS1_16function_obj_tagE @938
    _ZN5boost6detail8function15functor_managerIN7luabind6detail14mem_fn_matcherIMN6Hinage7DisplayEFfvES7_NS4_9null_typeEEESaINS_13function_baseEEE6manageERKNS1_15function_bufferERSF_NS1_30functor_manager_operation_typeE @939
    _ZN5boost6detail8function15functor_managerIN7luabind6detail14mem_fn_matcherIMN6Hinage7DisplayEFfvES7_NS4_9null_typeEEESaINS_13function_baseEEE7managerERKNS1_15function_bufferERSF_NS1_30functor_manager_operation_typeEN4mpl_5bool_ILb1EEE @940
    _ZN5boost6detail8function15functor_managerIN7luabind6detail14mem_fn_matcherIMN6Hinage7DisplayEFfvES7_NS4_9null_typeEEESaINS_13function_baseEEE7managerERKNS1_15function_bufferERSF_NS1_30functor_manager_operation_typeENS1_16function_obj_tagE @941
    _ZN5boost6detail8function15functor_managerIN7luabind6detail14mem_fn_matcherIMN6Hinage7DisplayEFvdES7_NS4_9null_typeEEESaINS_13function_baseEEE6manageERKNS1_15function_bufferERSF_NS1_30functor_manager_operation_typeE @942
    _ZN5boost6detail8function15functor_managerIN7luabind6detail14mem_fn_matcherIMN6Hinage7DisplayEFvdES7_NS4_9null_typeEEESaINS_13function_baseEEE7managerERKNS1_15function_bufferERSF_NS1_30functor_manager_operation_typeEN4mpl_5bool_ILb1EEE @943
    _ZN5boost6detail8function15functor_managerIN7luabind6detail14mem_fn_matcherIMN6Hinage7DisplayEFvdES7_NS4_9null_typeEEESaINS_13function_baseEEE7managerERKNS1_15function_bufferERSF_NS1_30functor_manager_operation_typeENS1_16function_obj_tagE @944
    _ZN5boost6detail8function15functor_managerIN7luabind6detail14mem_fn_matcherIMN6Hinage7DisplayEFvffES7_NS4_9null_typeEEESaINS_13function_baseEEE6manageERKNS1_15function_bufferERSF_NS1_30functor_manager_operation_typeE @945
    _ZN5boost6detail8function15functor_managerIN7luabind6detail14mem_fn_matcherIMN6Hinage7DisplayEFvffES7_NS4_9null_typeEEESaINS_13function_baseEEE7managerERKNS1_15function_bufferERSF_NS1_30functor_manager_operation_typeEN4mpl_5bool_ILb1EEE @946
    _ZN5boost6detail8function15functor_managerIN7luabind6detail14mem_fn_matcherIMN6Hinage7DisplayEFvffES7_NS4_9null_typeEEESaINS_13function_baseEEE7managerERKNS1_15function_bufferERSF_NS1_30functor_manager_operation_typeENS1_16function_obj_tagE @947
    _ZN5boost6detail8function15functor_managerIN7luabind6detail14mem_fn_matcherIMN6Hinage7Vector2IdEEFvdES8_NS4_9null_typeEEESaINS_13function_baseEEE6manageERKNS1_15function_bufferERSG_NS1_30functor_manager_operation_typeE @948
    _ZN5boost6detail8function15functor_managerIN7luabind6detail14mem_fn_matcherIMN6Hinage7Vector2IdEEFvdES8_NS4_9null_typeEEESaINS_13function_baseEEE7managerERKNS1_15function_bufferERSG_NS1_30functor_manager_operation_typeEN4mpl_5bool_ILb1EEE @949
    _ZN5boost6detail8function15functor_managerIN7luabind6detail14mem_fn_matcherIMN6Hinage7Vector2IdEEFvdES8_NS4_9null_typeEEESaINS_13function_baseEEE7managerERKNS1_15function_bufferERSG_NS1_30functor_manager_operation_typeENS1_16function_obj_tagE @950
    _ZN5boost6detail8function15functor_managerIN7luabind6detail14mem_fn_matcherIMN6Hinage7Vector2IdEEFvddES8_NS4_9null_typeEEESaINS_13function_baseEEE6manageERKNS1_15function_bufferERSG_NS1_30functor_manager_operation_typeE @951
    _ZN5boost6detail8function15functor_managerIN7luabind6detail14mem_fn_matcherIMN6Hinage7Vector2IdEEFvddES8_NS4_9null_typeEEESaINS_13function_baseEEE7managerERKNS1_15function_bufferERSG_NS1_30functor_manager_operation_typeEN4mpl_5bool_ILb1EEE @952
    _ZN5boost6detail8function15functor_managerIN7luabind6detail14mem_fn_matcherIMN6Hinage7Vector2IdEEFvddES8_NS4_9null_typeEEESaINS_13function_baseEEE7managerERKNS1_15function_bufferERSG_NS1_30functor_manager_operation_typeENS1_16function_obj_tagE @953
    _ZN5boost6detail8function15functor_managerIN7luabind6detail14mem_fn_matcherIMN6Hinage7Vector2IdEEKFdvES8_NS4_9null_typeEEESaINS_13function_baseEEE6manageERKNS1_15function_bufferERSG_NS1_30functor_manager_operation_typeE @954
    _ZN5boost6detail8function15functor_managerIN7luabind6detail14mem_fn_matcherIMN6Hinage7Vector2IdEEKFdvES8_NS4_9null_typeEEESaINS_13function_baseEEE7managerERKNS1_15function_bufferERSG_NS1_30functor_manager_operation_typeEN4mpl_5bool_ILb1EEE @955
    _ZN5boost6detail8function15functor_managerIN7luabind6detail14mem_fn_matcherIMN6Hinage7Vector2IdEEKFdvES8_NS4_9null_typeEEESaINS_13function_baseEEE7managerERKNS1_15function_bufferERSG_NS1_30functor_manager_operation_typeENS1_16function_obj_tagE @956
    _ZN5boost6detail8function15functor_managerIN7luabind6detail15mem_fn_callbackIM12AudioManagerFvSsES6_NS4_9null_typeEEESaINS_13function_baseEEE6manageERKNS1_15function_bufferERSE_NS1_30functor_manager_operation_typeE @957
    _ZN5boost6detail8function15functor_managerIN7luabind6detail15mem_fn_callbackIM12AudioManagerFvSsES6_NS4_9null_typeEEESaINS_13function_baseEEE7managerERKNS1_15function_bufferERSE_NS1_30functor_manager_operation_typeEN4mpl_5bool_ILb1EEE @958
    _ZN5boost6detail8function15functor_managerIN7luabind6detail15mem_fn_callbackIM12AudioManagerFvSsES6_NS4_9null_typeEEESaINS_13function_baseEEE7managerERKNS1_15function_bufferERSE_NS1_30functor_manager_operation_typeENS1_16function_obj_tagE @959
    _ZN5boost6detail8function15functor_managerIN7luabind6detail15mem_fn_callbackIM12AudioManagerFvSsbES6_NS4_9null_typeEEESaINS_13function_baseEEE6manageERKNS1_15function_bufferERSE_NS1_30functor_manager_operation_typeE @960
    _ZN5boost6detail8function15functor_managerIN7luabind6detail15mem_fn_callbackIM12AudioManagerFvSsbES6_NS4_9null_typeEEESaINS_13function_baseEEE7managerERKNS1_15function_bufferERSE_NS1_30functor_manager_operation_typeEN4mpl_5bool_ILb1EEE @961
    _ZN5boost6detail8function15functor_managerIN7luabind6detail15mem_fn_callbackIM12AudioManagerFvSsbES6_NS4_9null_typeEEESaINS_13function_baseEEE7managerERKNS1_15function_bufferERSE_NS1_30functor_manager_operation_typeENS1_16function_obj_tagE @962
    _ZN5boost6detail8function15functor_managerIN7luabind6detail15mem_fn_callbackIM12AudioManagerFvvES6_NS4_9null_typeEEESaINS_13function_baseEEE6manageERKNS1_15function_bufferERSE_NS1_30functor_manager_operation_typeE @963
    _ZN5boost6detail8function15functor_managerIN7luabind6detail15mem_fn_callbackIM12AudioManagerFvvES6_NS4_9null_typeEEESaINS_13function_baseEEE7managerERKNS1_15function_bufferERSE_NS1_30functor_manager_operation_typeEN4mpl_5bool_ILb1EEE @964
    _ZN5boost6detail8function15functor_managerIN7luabind6detail15mem_fn_callbackIM12AudioManagerFvvES6_NS4_9null_typeEEESaINS_13function_baseEEE7managerERKNS1_15function_bufferERSE_NS1_30functor_manager_operation_typeENS1_16function_obj_tagE @965
    _ZN5boost6detail8function15functor_managerIN7luabind6detail15mem_fn_callbackIMN6Hinage12InputManagerEFbiES7_NS4_9null_typeEEESaINS_13function_baseEEE6manageERKNS1_15function_bufferERSF_NS1_30functor_manager_operation_typeE @966
    _ZN5boost6detail8function15functor_managerIN7luabind6detail15mem_fn_callbackIMN6Hinage12InputManagerEFbiES7_NS4_9null_typeEEESaINS_13function_baseEEE7managerERKNS1_15function_bufferERSF_NS1_30functor_manager_operation_typeEN4mpl_5bool_ILb1EEE @967
    _ZN5boost6detail8function15functor_managerIN7luabind6detail15mem_fn_callbackIMN6Hinage12InputManagerEFbiES7_NS4_9null_typeEEESaINS_13function_baseEEE7managerERKNS1_15function_bufferERSF_NS1_30functor_manager_operation_typeENS1_16function_obj_tagE @968
    _ZN5boost6detail8function15functor_managerIN7luabind6detail15mem_fn_callbackIMN6Hinage14PhysicalEntityEFSsvES7_NS4_9null_typeEEESaINS_13function_baseEEE6manageERKNS1_15function_bufferERSF_NS1_30functor_manager_operation_typeE @969
    _ZN5boost6detail8function15functor_managerIN7luabind6detail15mem_fn_callbackIMN6Hinage14PhysicalEntityEFSsvES7_NS4_9null_typeEEESaINS_13function_baseEEE7managerERKNS1_15function_bufferERSF_NS1_30functor_manager_operation_typeEN4mpl_5bool_ILb1EEE @970
    _ZN5boost6detail8function15functor_managerIN7luabind6detail15mem_fn_callbackIMN6Hinage14PhysicalEntityEFSsvES7_NS4_9null_typeEEESaINS_13function_baseEEE7managerERKNS1_15function_bufferERSF_NS1_30functor_manager_operation_typeENS1_16function_obj_tagE @971
    _ZN5boost6detail8function15functor_managerIN7luabind6detail15mem_fn_callbackIMN6Hinage14PhysicalEntityEFbSsbdES7_NS4_9null_typeEEESaINS_13function_baseEEE6manageERKNS1_15function_bufferERSF_NS1_30functor_manager_operation_typeE @972
    _ZN5boost6detail8function15functor_managerIN7luabind6detail15mem_fn_callbackIMN6Hinage14PhysicalEntityEFbSsbdES7_NS4_9null_typeEEESaINS_13function_baseEEE7managerERKNS1_15function_bufferERSF_NS1_30functor_manager_operation_typeEN4mpl_5bool_ILb1EEE @973
    _ZN5boost6detail8function15functor_managerIN7luabind6detail15mem_fn_callbackIMN6Hinage14PhysicalEntityEFbSsbdES7_NS4_9null_typeEEESaINS_13function_baseEEE7managerERKNS1_15function_bufferERSF_NS1_30functor_manager_operation_typeENS1_16function_obj_tagE @974
    _ZN5boost6detail8function15functor_managerIN7luabind6detail15mem_fn_callbackIMN6Hinage14PhysicalEntityEFdvES7_NS4_9null_typeEEESaINS_13function_baseEEE6manageERKNS1_15function_bufferERSF_NS1_30functor_manager_operation_typeE @975
    _ZN5boost6detail8function15functor_managerIN7luabind6detail15mem_fn_callbackIMN6Hinage14PhysicalEntityEFdvES7_NS4_9null_typeEEESaINS_13function_baseEEE7managerERKNS1_15function_bufferERSF_NS1_30functor_manager_operation_typeEN4mpl_5bool_ILb1EEE @976
    _ZN5boost6detail8function15functor_managerIN7luabind6detail15mem_fn_callbackIMN6Hinage14PhysicalEntityEFdvES7_NS4_9null_typeEEESaINS_13function_baseEEE7managerERKNS1_15function_bufferERSF_NS1_30functor_manager_operation_typeENS1_16function_obj_tagE @977
    _ZN5boost6detail8function15functor_managerIN7luabind6detail15mem_fn_callbackIMN6Hinage14PhysicalEntityEFivES7_NS4_9null_typeEEESaINS_13function_baseEEE6manageERKNS1_15function_bufferERSF_NS1_30functor_manager_operation_typeE @978
    _ZN5boost6detail8function15functor_managerIN7luabind6detail15mem_fn_callbackIMN6Hinage14PhysicalEntityEFivES7_NS4_9null_typeEEESaINS_13function_baseEEE7managerERKNS1_15function_bufferERSF_NS1_30functor_manager_operation_typeEN4mpl_5bool_ILb1EEE @979
    _ZN5boost6detail8function15functor_managerIN7luabind6detail15mem_fn_callbackIMN6Hinage14PhysicalEntityEFivES7_NS4_9null_typeEEESaINS_13function_baseEEE7managerERKNS1_15function_bufferERSF_NS1_30functor_manager_operation_typeENS1_16function_obj_tagE @980
    _ZN5boost6detail8function15functor_managerIN7luabind6detail15mem_fn_callbackIMN6Hinage14PhysicalEntityEFvbES7_NS4_9null_typeEEESaINS_13function_baseEEE6manageERKNS1_15function_bufferERSF_NS1_30functor_manager_operation_typeE @981
    _ZN5boost6detail8function15functor_managerIN7luabind6detail15mem_fn_callbackIMN6Hinage14PhysicalEntityEFvbES7_NS4_9null_typeEEESaINS_13function_baseEEE7managerERKNS1_15function_bufferERSF_NS1_30functor_manager_operation_typeEN4mpl_5bool_ILb1EEE @982
    _ZN5boost6detail8function15functor_managerIN7luabind6detail15mem_fn_callbackIMN6Hinage14PhysicalEntityEFvbES7_NS4_9null_typeEEESaINS_13function_baseEEE7managerERKNS1_15function_bufferERSF_NS1_30functor_manager_operation_typeENS1_16function_obj_tagE @983
    _ZN5boost6detail8function15functor_managerIN7luabind6detail15mem_fn_callbackIMN6Hinage14PhysicalEntityEFvdES7_NS4_9null_typeEEESaINS_13function_baseEEE6manageERKNS1_15function_bufferERSF_NS1_30functor_manager_operation_typeE @984
    _ZN5boost6detail8function15functor_managerIN7luabind6detail15mem_fn_callbackIMN6Hinage14PhysicalEntityEFvdES7_NS4_9null_typeEEESaINS_13function_baseEEE7managerERKNS1_15function_bufferERSF_NS1_30functor_manager_operation_typeEN4mpl_5bool_ILb1EEE @985
    _ZN5boost6detail8function15functor_managerIN7luabind6detail15mem_fn_callbackIMN6Hinage14PhysicalEntityEFvdES7_NS4_9null_typeEEESaINS_13function_baseEEE7managerERKNS1_15function_bufferERSF_NS1_30functor_manager_operation_typeENS1_16function_obj_tagE @986
    _ZN5boost6detail8function15functor_managerIN7luabind6detail15mem_fn_callbackIMN6Hinage14PhysicalEntityEFvddES7_NS4_9null_typeEEESaINS_13function_baseEEE6manageERKNS1_15function_bufferERSF_NS1_30functor_manager_operation_typeE @987
    _ZN5boost6detail8function15functor_managerIN7luabind6detail15mem_fn_callbackIMN6Hinage14PhysicalEntityEFvddES7_NS4_9null_typeEEESaINS_13function_baseEEE7managerERKNS1_15function_bufferERSF_NS1_30functor_manager_operation_typeEN4mpl_5bool_ILb1EEE @988
    _ZN5boost6detail8function15functor_managerIN7luabind6detail15mem_fn_callbackIMN6Hinage14PhysicalEntityEFvddES7_NS4_9null_typeEEESaINS_13function_baseEEE7managerERKNS1_15function_bufferERSF_NS1_30functor_manager_operation_typeENS1_16function_obj_tagE @989
    _ZN5boost6detail8function15functor_managerIN7luabind6detail15mem_fn_callbackIMN6Hinage14PhysicalEntityEFvdddES7_NS4_9null_typeEEESaINS_13function_baseEEE6manageERKNS1_15function_bufferERSF_NS1_30functor_manager_operation_typeE @990
    _ZN5boost6detail8function15functor_managerIN7luabind6detail15mem_fn_callbackIMN6Hinage14PhysicalEntityEFvdddES7_NS4_9null_typeEEESaINS_13function_baseEEE7managerERKNS1_15function_bufferERSF_NS1_30functor_manager_operation_typeEN4mpl_5bool_ILb1EEE @991
    _ZN5boost6detail8function15functor_managerIN7luabind6detail15mem_fn_callbackIMN6Hinage14PhysicalEntityEFvdddES7_NS4_9null_typeEEESaINS_13function_baseEEE7managerERKNS1_15function_bufferERSF_NS1_30functor_manager_operation_typeENS1_16function_obj_tagE @992
    _ZN5boost6detail8function15functor_managerIN7luabind6detail15mem_fn_callbackIMN6Hinage3MapEFRNS6_14PhysicalEntityESsddES7_NS4_9null_typeEEESaINS_13function_baseEEE6manageERKNS1_15function_bufferERSH_NS1_30functor_manager_operation_typeE @993
    _ZN5boost6detail8function15functor_managerIN7luabind6detail15mem_fn_callbackIMN6Hinage3MapEFRNS6_14PhysicalEntityESsddES7_NS4_9null_typeEEESaINS_13function_baseEEE7managerERKNS1_15function_bufferERSH_NS1_30functor_manager_operation_typeEN4mpl_5bool_ILb1EEE @994
    _ZN5boost6detail8function15functor_managerIN7luabind6detail15mem_fn_callbackIMN6Hinage3MapEFRNS6_14PhysicalEntityESsddES7_NS4_9null_typeEEESaINS_13function_baseEEE7managerERKNS1_15function_bufferERSH_NS1_30functor_manager_operation_typeENS1_16function_obj_tagE @995
    _ZN5boost6detail8function15functor_managerIN7luabind6detail15mem_fn_callbackIMN6Hinage3MapEFRNS6_14PhysicalEntityEiES7_NS4_9null_typeEEESaINS_13function_baseEEE6manageERKNS1_15function_bufferERSH_NS1_30functor_manager_operation_typeE @996
    _ZN5boost6detail8function15functor_managerIN7luabind6detail15mem_fn_callbackIMN6Hinage3MapEFRNS6_14PhysicalEntityEiES7_NS4_9null_typeEEESaINS_13function_baseEEE7managerERKNS1_15function_bufferERSH_NS1_30functor_manager_operation_typeEN4mpl_5bool_ILb1EEE @997
    _ZN5boost6detail8function15functor_managerIN7luabind6detail15mem_fn_callbackIMN6Hinage3MapEFRNS6_14PhysicalEntityEiES7_NS4_9null_typeEEESaINS_13function_baseEEE7managerERKNS1_15function_bufferERSH_NS1_30functor_manager_operation_typeENS1_16function_obj_tagE @998
    _ZN5boost6detail8function15functor_managerIN7luabind6detail15mem_fn_callbackIMN6Hinage3MapEFivES7_NS4_9null_typeEEESaINS_13function_baseEEE6manageERKNS1_15function_bufferERSF_NS1_30functor_manager_operation_typeE @999
    _ZN5boost6detail8function15functor_managerIN7luabind6detail15mem_fn_callbackIMN6Hinage3MapEFivES7_NS4_9null_typeEEESaINS_13function_baseEEE7managerERKNS1_15function_bufferERSF_NS1_30functor_manager_operation_typeEN4mpl_5bool_ILb1EEE @1000
    _ZN5boost6detail8function15functor_managerIN7luabind6detail15mem_fn_callbackIMN6Hinage3MapEFivES7_NS4_9null_typeEEESaINS_13function_baseEEE7managerERKNS1_15function_bufferERSF_NS1_30functor_manager_operation_typeENS1_16function_obj_tagE @1001
    _ZN5boost6detail8function15functor_managerIN7luabind6detail15mem_fn_callbackIMN6Hinage3MapEFvSsES7_NS4_9null_typeEEESaINS_13function_baseEEE6manageERKNS1_15function_bufferERSF_NS1_30functor_manager_operation_typeE @1002
    _ZN5boost6detail8function15functor_managerIN7luabind6detail15mem_fn_callbackIMN6Hinage3MapEFvSsES7_NS4_9null_typeEEESaINS_13function_baseEEE7managerERKNS1_15function_bufferERSF_NS1_30functor_manager_operation_typeEN4mpl_5bool_ILb1EEE @1003
    _ZN5boost6detail8function15functor_managerIN7luabind6detail15mem_fn_callbackIMN6Hinage3MapEFvSsES7_NS4_9null_typeEEESaINS_13function_baseEEE7managerERKNS1_15function_bufferERSF_NS1_30functor_manager_operation_typeENS1_16function_obj_tagE @1004
    _ZN5boost6detail8function15functor_managerIN7luabind6detail15mem_fn_callbackIMN6Hinage3MapEFvSsbES7_NS4_9null_typeEEESaINS_13function_baseEEE6manageERKNS1_15function_bufferERSF_NS1_30functor_manager_operation_typeE @1005
    _ZN5boost6detail8function15functor_managerIN7luabind6detail15mem_fn_callbackIMN6Hinage3MapEFvSsbES7_NS4_9null_typeEEESaINS_13function_baseEEE7managerERKNS1_15function_bufferERSF_NS1_30functor_manager_operation_typeEN4mpl_5bool_ILb1EEE @1006
    _ZN5boost6detail8function15functor_managerIN7luabind6detail15mem_fn_callbackIMN6Hinage3MapEFvSsbES7_NS4_9null_typeEEESaINS_13function_baseEEE7managerERKNS1_15function_bufferERSF_NS1_30functor_manager_operation_typeENS1_16function_obj_tagE @1007
    _ZN5boost6detail8function15functor_managerIN7luabind6detail15mem_fn_callbackIMN6Hinage3MapEFviES7_NS4_9null_typeEEESaINS_13function_baseEEE6manageERKNS1_15function_bufferERSF_NS1_30functor_manager_operation_typeE @1008
    _ZN5boost6detail8function15functor_managerIN7luabind6detail15mem_fn_callbackIMN6Hinage3MapEFviES7_NS4_9null_typeEEESaINS_13function_baseEEE7managerERKNS1_15function_bufferERSF_NS1_30functor_manager_operation_typeEN4mpl_5bool_ILb1EEE @1009
    _ZN5boost6detail8function15functor_managerIN7luabind6detail15mem_fn_callbackIMN6Hinage3MapEFviES7_NS4_9null_typeEEESaINS_13function_baseEEE7managerERKNS1_15function_bufferERSF_NS1_30functor_manager_operation_typeENS1_16function_obj_tagE @1010
    _ZN5boost6detail8function15functor_managerIN7luabind6detail15mem_fn_callbackIMN6Hinage3MapEFvvES7_NS4_9null_typeEEESaINS_13function_baseEEE6manageERKNS1_15function_bufferERSF_NS1_30functor_manager_operation_typeE @1011
    _ZN5boost6detail8function15functor_managerIN7luabind6detail15mem_fn_callbackIMN6Hinage3MapEFvvES7_NS4_9null_typeEEESaINS_13function_baseEEE7managerERKNS1_15function_bufferERSF_NS1_30functor_manager_operation_typeEN4mpl_5bool_ILb1EEE @1012
    _ZN5boost6detail8function15functor_managerIN7luabind6detail15mem_fn_callbackIMN6Hinage3MapEFvvES7_NS4_9null_typeEEESaINS_13function_baseEEE7managerERKNS1_15function_bufferERSF_NS1_30functor_manager_operation_typeENS1_16function_obj_tagE @1013
    _ZN5boost6detail8function15functor_managerIN7luabind6detail15mem_fn_callbackIMN6Hinage3MapEKFivES7_NS4_9null_typeEEESaINS_13function_baseEEE6manageERKNS1_15function_bufferERSF_NS1_30functor_manager_operation_typeE @1014
    _ZN5boost6detail8function15functor_managerIN7luabind6detail15mem_fn_callbackIMN6Hinage3MapEKFivES7_NS4_9null_typeEEESaINS_13function_baseEEE7managerERKNS1_15function_bufferERSF_NS1_30functor_manager_operation_typeEN4mpl_5bool_ILb1EEE @1015
    _ZN5boost6detail8function15functor_managerIN7luabind6detail15mem_fn_callbackIMN6Hinage3MapEKFivES7_NS4_9null_typeEEESaINS_13function_baseEEE7managerERKNS1_15function_bufferERSF_NS1_30functor_manager_operation_typeENS1_16function_obj_tagE @1016
    _ZN5boost6detail8function15functor_managerIN7luabind6detail15mem_fn_callbackIMN6Hinage4GameEFRNS6_4FontESsES7_NS4_9null_typeEEESaINS_13function_baseEEE6manageERKNS1_15function_bufferERSH_NS1_30functor_manager_operation_typeE @1017
    _ZN5boost6detail8function15functor_managerIN7luabind6detail15mem_fn_callbackIMN6Hinage4GameEFRNS6_4FontESsES7_NS4_9null_typeEEESaINS_13function_baseEEE7managerERKNS1_15function_bufferERSH_NS1_30functor_manager_operation_typeEN4mpl_5bool_ILb1EEE @1018
    _ZN5boost6detail8function15functor_managerIN7luabind6detail15mem_fn_callbackIMN6Hinage4GameEFRNS6_4FontESsES7_NS4_9null_typeEEESaINS_13function_baseEEE7managerERKNS1_15function_bufferERSH_NS1_30functor_manager_operation_typeENS1_16function_obj_tagE @1019
    _ZN5boost6detail8function15functor_managerIN7luabind6detail15mem_fn_callbackIMN6Hinage4GameEFdvES7_NS4_9null_typeEEESaINS_13function_baseEEE6manageERKNS1_15function_bufferERSF_NS1_30functor_manager_operation_typeE @1020
    _ZN5boost6detail8function15functor_managerIN7luabind6detail15mem_fn_callbackIMN6Hinage4GameEFdvES7_NS4_9null_typeEEESaINS_13function_baseEEE7managerERKNS1_15function_bufferERSF_NS1_30functor_manager_operation_typeEN4mpl_5bool_ILb1EEE @1021
    _ZN5boost6detail8function15functor_managerIN7luabind6detail15mem_fn_callbackIMN6Hinage4GameEFdvES7_NS4_9null_typeEEESaINS_13function_baseEEE7managerERKNS1_15function_bufferERSF_NS1_30functor_manager_operation_typeENS1_16function_obj_tagE @1022
    _ZN5boost6detail8function15functor_managerIN7luabind6detail15mem_fn_callbackIMN6Hinage4GameEFvRNS6_4FontESsddddES7_NS4_9null_typeEEESaINS_13function_baseEEE6manageERKNS1_15function_bufferERSH_NS1_30functor_manager_operation_typeE @1023
    _ZN5boost6detail8function15functor_managerIN7luabind6detail15mem_fn_callbackIMN6Hinage4GameEFvRNS6_4FontESsddddES7_NS4_9null_typeEEESaINS_13function_baseEEE7managerERKNS1_15function_bufferERSH_NS1_30functor_manager_operation_typeEN4mpl_5bool_ILb1EEE @1024
    _ZN5boost6detail8function15functor_managerIN7luabind6detail15mem_fn_callbackIMN6Hinage4GameEFvRNS6_4FontESsddddES7_NS4_9null_typeEEESaINS_13function_baseEEE7managerERKNS1_15function_bufferERSH_NS1_30functor_manager_operation_typeENS1_16function_obj_tagE @1025
    _ZN5boost6detail8function15functor_managerIN7luabind6detail15mem_fn_callbackIMN6Hinage4GameEFvdES7_NS4_9null_typeEEESaINS_13function_baseEEE6manageERKNS1_15function_bufferERSF_NS1_30functor_manager_operation_typeE @1026
    _ZN5boost6detail8function15functor_managerIN7luabind6detail15mem_fn_callbackIMN6Hinage4GameEFvdES7_NS4_9null_typeEEESaINS_13function_baseEEE7managerERKNS1_15function_bufferERSF_NS1_30functor_manager_operation_typeEN4mpl_5bool_ILb1EEE @1027
    _ZN5boost6detail8function15functor_managerIN7luabind6detail15mem_fn_callbackIMN6Hinage4GameEFvdES7_NS4_9null_typeEEESaINS_13function_baseEEE7managerERKNS1_15function_bufferERSF_NS1_30functor_manager_operation_typeENS1_16function_obj_tagE @1028
    _ZN5boost6detail8function15functor_managerIN7luabind6detail15mem_fn_callbackIMN6Hinage4GameEFvvES7_NS4_9null_typeEEESaINS_13function_baseEEE6manageERKNS1_15function_bufferERSF_NS1_30functor_manager_operation_typeE @1029
    _ZN5boost6detail8function15functor_managerIN7luabind6detail15mem_fn_callbackIMN6Hinage4GameEFvvES7_NS4_9null_typeEEESaINS_13function_baseEEE7managerERKNS1_15function_bufferERSF_NS1_30functor_manager_operation_typeEN4mpl_5bool_ILb1EEE @1030
    _ZN5boost6detail8function15functor_managerIN7luabind6detail15mem_fn_callbackIMN6Hinage4GameEFvvES7_NS4_9null_typeEEESaINS_13function_baseEEE7managerERKNS1_15function_bufferERSF_NS1_30functor_manager_operation_typeENS1_16function_obj_tagE @1031
    _ZN5boost6detail8function15functor_managerIN7luabind6detail15mem_fn_callbackIMN6Hinage5TimerEFbdES7_NS4_9null_typeEEESaINS_13function_baseEEE6manageERKNS1_15function_bufferERSF_NS1_30functor_manager_operation_typeE @1032
    _ZN5boost6detail8function15functor_managerIN7luabind6detail15mem_fn_callbackIMN6Hinage5TimerEFbdES7_NS4_9null_typeEEESaINS_13function_baseEEE7managerERKNS1_15function_bufferERSF_NS1_30functor_manager_operation_typeEN4mpl_5bool_ILb1EEE @1033
    _ZN5boost6detail8function15functor_managerIN7luabind6detail15mem_fn_callbackIMN6Hinage5TimerEFbdES7_NS4_9null_typeEEESaINS_13function_baseEEE7managerERKNS1_15function_bufferERSF_NS1_30functor_manager_operation_typeENS1_16function_obj_tagE @1034
    _ZN5boost6detail8function15functor_managerIN7luabind6detail15mem_fn_callbackIMN6Hinage5TimerEFdvES7_NS4_9null_typeEEESaINS_13function_baseEEE6manageERKNS1_15function_bufferERSF_NS1_30functor_manager_operation_typeE @1035
    _ZN5boost6detail8function15functor_managerIN7luabind6detail15mem_fn_callbackIMN6Hinage5TimerEFdvES7_NS4_9null_typeEEESaINS_13function_baseEEE7managerERKNS1_15function_bufferERSF_NS1_30functor_manager_operation_typeEN4mpl_5bool_ILb1EEE @1036
    _ZN5boost6detail8function15functor_managerIN7luabind6detail15mem_fn_callbackIMN6Hinage5TimerEFdvES7_NS4_9null_typeEEESaINS_13function_baseEEE7managerERKNS1_15function_bufferERSF_NS1_30functor_manager_operation_typeENS1_16function_obj_tagE @1037
    _ZN5boost6detail8function15functor_managerIN7luabind6detail15mem_fn_callbackIMN6Hinage5TimerEFvvES7_NS4_9null_typeEEESaINS_13function_baseEEE6manageERKNS1_15function_bufferERSF_NS1_30functor_manager_operation_typeE @1038
    _ZN5boost6detail8function15functor_managerIN7luabind6detail15mem_fn_callbackIMN6Hinage5TimerEFvvES7_NS4_9null_typeEEESaINS_13function_baseEEE7managerERKNS1_15function_bufferERSF_NS1_30functor_manager_operation_typeEN4mpl_5bool_ILb1EEE @1039
    _ZN5boost6detail8function15functor_managerIN7luabind6detail15mem_fn_callbackIMN6Hinage5TimerEFvvES7_NS4_9null_typeEEESaINS_13function_baseEEE7managerERKNS1_15function_bufferERSF_NS1_30functor_manager_operation_typeENS1_16function_obj_tagE @1040
    _ZN5boost6detail8function15functor_managerIN7luabind6detail15mem_fn_callbackIMN6Hinage7DisplayEFdvES7_NS4_9null_typeEEESaINS_13function_baseEEE6manageERKNS1_15function_bufferERSF_NS1_30functor_manager_operation_typeE @1041
    _ZN5boost6detail8function15functor_managerIN7luabind6detail15mem_fn_callbackIMN6Hinage7DisplayEFdvES7_NS4_9null_typeEEESaINS_13function_baseEEE7managerERKNS1_15function_bufferERSF_NS1_30functor_manager_operation_typeEN4mpl_5bool_ILb1EEE @1042
    _ZN5boost6detail8function15functor_managerIN7luabind6detail15mem_fn_callbackIMN6Hinage7DisplayEFdvES7_NS4_9null_typeEEESaINS_13function_baseEEE7managerERKNS1_15function_bufferERSF_NS1_30functor_manager_operation_typeENS1_16function_obj_tagE @1043
    _ZN5boost6detail8function15functor_managerIN7luabind6detail15mem_fn_callbackIMN6Hinage7DisplayEFfvES7_NS4_9null_typeEEESaINS_13function_baseEEE6manageERKNS1_15function_bufferERSF_NS1_30functor_manager_operation_typeE @1044
    _ZN5boost6detail8function15functor_managerIN7luabind6detail15mem_fn_callbackIMN6Hinage7DisplayEFfvES7_NS4_9null_typeEEESaINS_13function_baseEEE7managerERKNS1_15function_bufferERSF_NS1_30functor_manager_operation_typeEN4mpl_5bool_ILb1EEE @1045
    _ZN5boost6detail8function15functor_managerIN7luabind6detail15mem_fn_callbackIMN6Hinage7DisplayEFfvES7_NS4_9null_typeEEESaINS_13function_baseEEE7managerERKNS1_15function_bufferERSF_NS1_30functor_manager_operation_typeENS1_16function_obj_tagE @1046
    _ZN5boost6detail8function15functor_managerIN7luabind6detail15mem_fn_callbackIMN6Hinage7DisplayEFvdES7_NS4_9null_typeEEESaINS_13function_baseEEE6manageERKNS1_15function_bufferERSF_NS1_30functor_manager_operation_typeE @1047
    _ZN5boost6detail8function15functor_managerIN7luabind6detail15mem_fn_callbackIMN6Hinage7DisplayEFvdES7_NS4_9null_typeEEESaINS_13function_baseEEE7managerERKNS1_15function_bufferERSF_NS1_30functor_manager_operation_typeEN4mpl_5bool_ILb1EEE @1048
    _ZN5boost6detail8function15functor_managerIN7luabind6detail15mem_fn_callbackIMN6Hinage7DisplayEFvdES7_NS4_9null_typeEEESaINS_13function_baseEEE7managerERKNS1_15function_bufferERSF_NS1_30functor_manager_operation_typeENS1_16function_obj_tagE @1049
    _ZN5boost6detail8function15functor_managerIN7luabind6detail15mem_fn_callbackIMN6Hinage7DisplayEFvffES7_NS4_9null_typeEEESaINS_13function_baseEEE6manageERKNS1_15function_bufferERSF_NS1_30functor_manager_operation_typeE @1050
    _ZN5boost6detail8function15functor_managerIN7luabind6detail15mem_fn_callbackIMN6Hinage7DisplayEFvffES7_NS4_9null_typeEEESaINS_13function_baseEEE7managerERKNS1_15function_bufferERSF_NS1_30functor_manager_operation_typeEN4mpl_5bool_ILb1EEE @1051
    _ZN5boost6detail8function15functor_managerIN7luabind6detail15mem_fn_callbackIMN6Hinage7DisplayEFvffES7_NS4_9null_typeEEESaINS_13function_baseEEE7managerERKNS1_15function_bufferERSF_NS1_30functor_manager_operation_typeENS1_16function_obj_tagE @1052
    _ZN5boost6detail8function15functor_managerIN7luabind6detail15mem_fn_callbackIMN6Hinage7Vector2IdEEFvdES8_NS4_9null_typeEEESaINS_13function_baseEEE6manageERKNS1_15function_bufferERSG_NS1_30functor_manager_operation_typeE @1053
    _ZN5boost6detail8function15functor_managerIN7luabind6detail15mem_fn_callbackIMN6Hinage7Vector2IdEEFvdES8_NS4_9null_typeEEESaINS_13function_baseEEE7managerERKNS1_15function_bufferERSG_NS1_30functor_manager_operation_typeEN4mpl_5bool_ILb1EEE @1054
    _ZN5boost6detail8function15functor_managerIN7luabind6detail15mem_fn_callbackIMN6Hinage7Vector2IdEEFvdES8_NS4_9null_typeEEESaINS_13function_baseEEE7managerERKNS1_15function_bufferERSG_NS1_30functor_manager_operation_typeENS1_16function_obj_tagE @1055
    _ZN5boost6detail8function15functor_managerIN7luabind6detail15mem_fn_callbackIMN6Hinage7Vector2IdEEFvddES8_NS4_9null_typeEEESaINS_13function_baseEEE6manageERKNS1_15function_bufferERSG_NS1_30functor_manager_operation_typeE @1056
    _ZN5boost6detail8function15functor_managerIN7luabind6detail15mem_fn_callbackIMN6Hinage7Vector2IdEEFvddES8_NS4_9null_typeEEESaINS_13function_baseEEE7managerERKNS1_15function_bufferERSG_NS1_30functor_manager_operation_typeEN4mpl_5bool_ILb1EEE @1057
    _ZN5boost6detail8function15functor_managerIN7luabind6detail15mem_fn_callbackIMN6Hinage7Vector2IdEEFvddES8_NS4_9null_typeEEESaINS_13function_baseEEE7managerERKNS1_15function_bufferERSG_NS1_30functor_manager_operation_typeENS1_16function_obj_tagE @1058
    _ZN5boost6detail8function15functor_managerIN7luabind6detail15mem_fn_callbackIMN6Hinage7Vector2IdEEKFdvES8_NS4_9null_typeEEESaINS_13function_baseEEE6manageERKNS1_15function_bufferERSG_NS1_30functor_manager_operation_typeE @1059
    _ZN5boost6detail8function15functor_managerIN7luabind6detail15mem_fn_callbackIMN6Hinage7Vector2IdEEKFdvES8_NS4_9null_typeEEESaINS_13function_baseEEE7managerERKNS1_15function_bufferERSG_NS1_30functor_manager_operation_typeEN4mpl_5bool_ILb1EEE @1060
    _ZN5boost6detail8function15functor_managerIN7luabind6detail15mem_fn_callbackIMN6Hinage7Vector2IdEEKFdvES8_NS4_9null_typeEEESaINS_13function_baseEEE7managerERKNS1_15function_bufferERSG_NS1_30functor_manager_operation_typeENS1_16function_obj_tagE @1061
    _ZN5boost6detail8function15functor_managerINS_3_bi6bind_tIiN7luabind6detail8auto_getIN6Hinage14PhysicalEntityEbNS6_9null_typeEEENS3_5list3IPFNS_3argILi1EEEvEPFNSD_ILi2EEEvENS3_5valueIMS9_bEEEEEESaINS_13function_baseEEE6manageERKNS1_15function_bufferERSS_NS1_30functor_manager_operation_typeE @1062
    _ZN5boost6detail8function15functor_managerINS_3_bi6bind_tIiN7luabind6detail8auto_getIN6Hinage14PhysicalEntityEbNS6_9null_typeEEENS3_5list3IPFNS_3argILi1EEEvEPFNSD_ILi2EEEvENS3_5valueIMS9_bEEEEEESaINS_13function_baseEEE7managerERKNS1_15function_bufferERSS_NS1_30functor_manager_operation_typeEN4mpl_5bool_ILb1EEE @1063
    _ZN5boost6detail8function15functor_managerINS_3_bi6bind_tIiN7luabind6detail8auto_getIN6Hinage14PhysicalEntityEbNS6_9null_typeEEENS3_5list3IPFNS_3argILi1EEEvEPFNSD_ILi2EEEvENS3_5valueIMS9_bEEEEEESaINS_13function_baseEEE7managerERKNS1_15function_bufferERSS_NS1_30functor_manager_operation_typeENS1_16function_obj_tagE @1064
    _ZN5boost6detail8function15functor_managerIPFiP9lua_StateESaINS_13function_baseEEE6manageERKNS1_15function_bufferERSA_NS1_30functor_manager_operation_typeE @1065
    _ZN5boost6detail8function15functor_managerIPFiP9lua_StateESaINS_13function_baseEEE7managerERKNS1_15function_bufferERSA_NS1_30functor_manager_operation_typeENS1_16function_ptr_tagE @1066
    _ZN5boost6detail8function16has_empty_targetEz @1067
    _ZN5boost6detail8function17function_invoker1IPFiP9lua_StateEiS4_E6invokeERNS1_15function_bufferES4_ @1068
    _ZN5boost6detail8function21function_obj_invoker1IN7luabind6detail14mem_fn_matcherIM12AudioManagerFvSsES6_NS4_9null_typeEEEiP9lua_StateE6invokeERNS1_15function_bufferESC_ @1069
    _ZN5boost6detail8function21function_obj_invoker1IN7luabind6detail14mem_fn_matcherIM12AudioManagerFvSsbES6_NS4_9null_typeEEEiP9lua_StateE6invokeERNS1_15function_bufferESC_ @1070
    _ZN5boost6detail8function21function_obj_invoker1IN7luabind6detail14mem_fn_matcherIM12AudioManagerFvvES6_NS4_9null_typeEEEiP9lua_StateE6invokeERNS1_15function_bufferESC_ @1071
    _ZN5boost6detail8function21function_obj_invoker1IN7luabind6detail14mem_fn_matcherIMN6Hinage12InputManagerEFbiES7_NS4_9null_typeEEEiP9lua_StateE6invokeERNS1_15function_bufferESD_ @1072
    _ZN5boost6detail8function21function_obj_invoker1IN7luabind6detail14mem_fn_matcherIMN6Hinage14PhysicalEntityEFSsvES7_NS4_9null_typeEEEiP9lua_StateE6invokeERNS1_15function_bufferESD_ @1073
    _ZN5boost6detail8function21function_obj_invoker1IN7luabind6detail14mem_fn_matcherIMN6Hinage14PhysicalEntityEFbSsbdES7_NS4_9null_typeEEEiP9lua_StateE6invokeERNS1_15function_bufferESD_ @1074
    _ZN5boost6detail8function21function_obj_invoker1IN7luabind6detail14mem_fn_matcherIMN6Hinage14PhysicalEntityEFdvES7_NS4_9null_typeEEEiP9lua_StateE6invokeERNS1_15function_bufferESD_ @1075
    _ZN5boost6detail8function21function_obj_invoker1IN7luabind6detail14mem_fn_matcherIMN6Hinage14PhysicalEntityEFivES7_NS4_9null_typeEEEiP9lua_StateE6invokeERNS1_15function_bufferESD_ @1076
    _ZN5boost6detail8function21function_obj_invoker1IN7luabind6detail14mem_fn_matcherIMN6Hinage14PhysicalEntityEFvbES7_NS4_9null_typeEEEiP9lua_StateE6invokeERNS1_15function_bufferESD_ @1077
    _ZN5boost6detail8function21function_obj_invoker1IN7luabind6detail14mem_fn_matcherIMN6Hinage14PhysicalEntityEFvdES7_NS4_9null_typeEEEiP9lua_StateE6invokeERNS1_15function_bufferESD_ @1078
    _ZN5boost6detail8function21function_obj_invoker1IN7luabind6detail14mem_fn_matcherIMN6Hinage14PhysicalEntityEFvddES7_NS4_9null_typeEEEiP9lua_StateE6invokeERNS1_15function_bufferESD_ @1079
    _ZN5boost6detail8function21function_obj_invoker1IN7luabind6detail14mem_fn_matcherIMN6Hinage14PhysicalEntityEFvdddES7_NS4_9null_typeEEEiP9lua_StateE6invokeERNS1_15function_bufferESD_ @1080
    _ZN5boost6detail8function21function_obj_invoker1IN7luabind6detail14mem_fn_matcherIMN6Hinage3MapEFRNS6_14PhysicalEntityESsddES7_NS4_9null_typeEEEiP9lua_StateE6invokeERNS1_15function_bufferESF_ @1081
    _ZN5boost6detail8function21function_obj_invoker1IN7luabind6detail14mem_fn_matcherIMN6Hinage3MapEFRNS6_14PhysicalEntityEiES7_NS4_9null_typeEEEiP9lua_StateE6invokeERNS1_15function_bufferESF_ @1082
    _ZN5boost6detail8function21function_obj_invoker1IN7luabind6detail14mem_fn_matcherIMN6Hinage3MapEFivES7_NS4_9null_typeEEEiP9lua_StateE6invokeERNS1_15function_bufferESD_ @1083
    _ZN5boost6detail8function21function_obj_invoker1IN7luabind6detail14mem_fn_matcherIMN6Hinage3MapEFvSsES7_NS4_9null_typeEEEiP9lua_StateE6invokeERNS1_15function_bufferESD_ @1084
    _ZN5boost6detail8function21function_obj_invoker1IN7luabind6detail14mem_fn_matcherIMN6Hinage3MapEFvSsbES7_NS4_9null_typeEEEiP9lua_StateE6invokeERNS1_15function_bufferESD_ @1085
    _ZN5boost6detail8function21function_obj_invoker1IN7luabind6detail14mem_fn_matcherIMN6Hinage3MapEFviES7_NS4_9null_typeEEEiP9lua_StateE6invokeERNS1_15function_bufferESD_ @1086
    _ZN5boost6detail8function21function_obj_invoker1IN7luabind6detail14mem_fn_matcherIMN6Hinage3MapEFvvES7_NS4_9null_typeEEEiP9lua_StateE6invokeERNS1_15function_bufferESD_ @1087
    _ZN5boost6detail8function21function_obj_invoker1IN7luabind6detail14mem_fn_matcherIMN6Hinage3MapEKFivES7_NS4_9null_typeEEEiP9lua_StateE6invokeERNS1_15function_bufferESD_ @1088
    _ZN5boost6detail8function21function_obj_invoker1IN7luabind6detail14mem_fn_matcherIMN6Hinage4GameEFRNS6_4FontESsES7_NS4_9null_typeEEEiP9lua_StateE6invokeERNS1_15function_bufferESF_ @1089
    _ZN5boost6detail8function21function_obj_invoker1IN7luabind6detail14mem_fn_matcherIMN6Hinage4GameEFdvES7_NS4_9null_typeEEEiP9lua_StateE6invokeERNS1_15function_bufferESD_ @1090
    _ZN5boost6detail8function21function_obj_invoker1IN7luabind6detail14mem_fn_matcherIMN6Hinage4GameEFvRNS6_4FontESsddddES7_NS4_9null_typeEEEiP9lua_StateE6invokeERNS1_15function_bufferESF_ @1091
    _ZN5boost6detail8function21function_obj_invoker1IN7luabind6detail14mem_fn_matcherIMN6Hinage4GameEFvdES7_NS4_9null_typeEEEiP9lua_StateE6invokeERNS1_15function_bufferESD_ @1092
    _ZN5boost6detail8function21function_obj_invoker1IN7luabind6detail14mem_fn_matcherIMN6Hinage4GameEFvvES7_NS4_9null_typeEEEiP9lua_StateE6invokeERNS1_15function_bufferESD_ @1093
    _ZN5boost6detail8function21function_obj_invoker1IN7luabind6detail14mem_fn_matcherIMN6Hinage5TimerEFbdES7_NS4_9null_typeEEEiP9lua_StateE6invokeERNS1_15function_bufferESD_ @1094
    _ZN5boost6detail8function21function_obj_invoker1IN7luabind6detail14mem_fn_matcherIMN6Hinage5TimerEFdvES7_NS4_9null_typeEEEiP9lua_StateE6invokeERNS1_15function_bufferESD_ @1095
    _ZN5boost6detail8function21function_obj_invoker1IN7luabind6detail14mem_fn_matcherIMN6Hinage5TimerEFvvES7_NS4_9null_typeEEEiP9lua_StateE6invokeERNS1_15function_bufferESD_ @1096
    _ZN5boost6detail8function21function_obj_invoker1IN7luabind6detail14mem_fn_matcherIMN6Hinage7DisplayEFdvES7_NS4_9null_typeEEEiP9lua_StateE6invokeERNS1_15function_bufferESD_ @1097
    _ZN5boost6detail8function21function_obj_invoker1IN7luabind6detail14mem_fn_matcherIMN6Hinage7DisplayEFfvES7_NS4_9null_typeEEEiP9lua_StateE6invokeERNS1_15function_bufferESD_ @1098
    _ZN5boost6detail8function21function_obj_invoker1IN7luabind6detail14mem_fn_matcherIMN6Hinage7DisplayEFvdES7_NS4_9null_typeEEEiP9lua_StateE6invokeERNS1_15function_bufferESD_ @1099
    _ZN5boost6detail8function21function_obj_invoker1IN7luabind6detail14mem_fn_matcherIMN6Hinage7DisplayEFvffES7_NS4_9null_typeEEEiP9lua_StateE6invokeERNS1_15function_bufferESD_ @1100
    _ZN5boost6detail8function21function_obj_invoker1IN7luabind6detail14mem_fn_matcherIMN6Hinage7Vector2IdEEFvdES8_NS4_9null_typeEEEiP9lua_StateE6invokeERNS1_15function_bufferESE_ @1101
    _ZN5boost6detail8function21function_obj_invoker1IN7luabind6detail14mem_fn_matcherIMN6Hinage7Vector2IdEEFvddES8_NS4_9null_typeEEEiP9lua_StateE6invokeERNS1_15function_bufferESE_ @1102
    _ZN5boost6detail8function21function_obj_invoker1IN7luabind6detail14mem_fn_matcherIMN6Hinage7Vector2IdEEKFdvES8_NS4_9null_typeEEEiP9lua_StateE6invokeERNS1_15function_bufferESE_ @1103
    _ZN5boost6detail8function21function_obj_invoker1IN7luabind6detail15mem_fn_callbackIM12AudioManagerFvSsES6_NS4_9null_typeEEEiP9lua_StateE6invokeERNS1_15function_bufferESC_ @1104
    _ZN5boost6detail8function21function_obj_invoker1IN7luabind6detail15mem_fn_callbackIM12AudioManagerFvSsbES6_NS4_9null_typeEEEiP9lua_StateE6invokeERNS1_15function_bufferESC_ @1105
    _ZN5boost6detail8function21function_obj_invoker1IN7luabind6detail15mem_fn_callbackIM12AudioManagerFvvES6_NS4_9null_typeEEEiP9lua_StateE6invokeERNS1_15function_bufferESC_ @1106
    _ZN5boost6detail8function21function_obj_invoker1IN7luabind6detail15mem_fn_callbackIMN6Hinage12InputManagerEFbiES7_NS4_9null_typeEEEiP9lua_StateE6invokeERNS1_15function_bufferESD_ @1107
    _ZN5boost6detail8function21function_obj_invoker1IN7luabind6detail15mem_fn_callbackIMN6Hinage14PhysicalEntityEFSsvES7_NS4_9null_typeEEEiP9lua_StateE6invokeERNS1_15function_bufferESD_ @1108
    _ZN5boost6detail8function21function_obj_invoker1IN7luabind6detail15mem_fn_callbackIMN6Hinage14PhysicalEntityEFbSsbdES7_NS4_9null_typeEEEiP9lua_StateE6invokeERNS1_15function_bufferESD_ @1109
    _ZN5boost6detail8function21function_obj_invoker1IN7luabind6detail15mem_fn_callbackIMN6Hinage14PhysicalEntityEFdvES7_NS4_9null_typeEEEiP9lua_StateE6invokeERNS1_15function_bufferESD_ @1110
    _ZN5boost6detail8function21function_obj_invoker1IN7luabind6detail15mem_fn_callbackIMN6Hinage14PhysicalEntityEFivES7_NS4_9null_typeEEEiP9lua_StateE6invokeERNS1_15function_bufferESD_ @1111
    _ZN5boost6detail8function21function_obj_invoker1IN7luabind6detail15mem_fn_callbackIMN6Hinage14PhysicalEntityEFvbES7_NS4_9null_typeEEEiP9lua_StateE6invokeERNS1_15function_bufferESD_ @1112
    _ZN5boost6detail8function21function_obj_invoker1IN7luabind6detail15mem_fn_callbackIMN6Hinage14PhysicalEntityEFvdES7_NS4_9null_typeEEEiP9lua_StateE6invokeERNS1_15function_bufferESD_ @1113
    _ZN5boost6detail8function21function_obj_invoker1IN7luabind6detail15mem_fn_callbackIMN6Hinage14PhysicalEntityEFvddES7_NS4_9null_typeEEEiP9lua_StateE6invokeERNS1_15function_bufferESD_ @1114
    _ZN5boost6detail8function21function_obj_invoker1IN7luabind6detail15mem_fn_callbackIMN6Hinage14PhysicalEntityEFvdddES7_NS4_9null_typeEEEiP9lua_StateE6invokeERNS1_15function_bufferESD_ @1115
    _ZN5boost6detail8function21function_obj_invoker1IN7luabind6detail15mem_fn_callbackIMN6Hinage3MapEFRNS6_14PhysicalEntityESsddES7_NS4_9null_typeEEEiP9lua_StateE6invokeERNS1_15function_bufferESF_ @1116
    _ZN5boost6detail8function21function_obj_invoker1IN7luabind6detail15mem_fn_callbackIMN6Hinage3MapEFRNS6_14PhysicalEntityEiES7_NS4_9null_typeEEEiP9lua_StateE6invokeERNS1_15function_bufferESF_ @1117
    _ZN5boost6detail8function21function_obj_invoker1IN7luabind6detail15mem_fn_callbackIMN6Hinage3MapEFivES7_NS4_9null_typeEEEiP9lua_StateE6invokeERNS1_15function_bufferESD_ @1118
    _ZN5boost6detail8function21function_obj_invoker1IN7luabind6detail15mem_fn_callbackIMN6Hinage3MapEFvSsES7_NS4_9null_typeEEEiP9lua_StateE6invokeERNS1_15function_bufferESD_ @1119
    _ZN5boost6detail8function21function_obj_invoker1IN7luabind6detail15mem_fn_callbackIMN6Hinage3MapEFvSsbES7_NS4_9null_typeEEEiP9lua_StateE6invokeERNS1_15function_bufferESD_ @1120
    _ZN5boost6detail8function21function_obj_invoker1IN7luabind6detail15mem_fn_callbackIMN6Hinage3MapEFviES7_NS4_9null_typeEEEiP9lua_StateE6invokeERNS1_15function_bufferESD_ @1121
    _ZN5boost6detail8function21function_obj_invoker1IN7luabind6detail15mem_fn_callbackIMN6Hinage3MapEFvvES7_NS4_9null_typeEEEiP9lua_StateE6invokeERNS1_15function_bufferESD_ @1122
    _ZN5boost6detail8function21function_obj_invoker1IN7luabind6detail15mem_fn_callbackIMN6Hinage3MapEKFivES7_NS4_9null_typeEEEiP9lua_StateE6invokeERNS1_15function_bufferESD_ @1123
    _ZN5boost6detail8function21function_obj_invoker1IN7luabind6detail15mem_fn_callbackIMN6Hinage4GameEFRNS6_4FontESsES7_NS4_9null_typeEEEiP9lua_StateE6invokeERNS1_15function_bufferESF_ @1124
    _ZN5boost6detail8function21function_obj_invoker1IN7luabind6detail15mem_fn_callbackIMN6Hinage4GameEFdvES7_NS4_9null_typeEEEiP9lua_StateE6invokeERNS1_15function_bufferESD_ @1125
    _ZN5boost6detail8function21function_obj_invoker1IN7luabind6detail15mem_fn_callbackIMN6Hinage4GameEFvRNS6_4FontESsddddES7_NS4_9null_typeEEEiP9lua_StateE6invokeERNS1_15function_bufferESF_ @1126
    _ZN5boost6detail8function21function_obj_invoker1IN7luabind6detail15mem_fn_callbackIMN6Hinage4GameEFvdES7_NS4_9null_typeEEEiP9lua_StateE6invokeERNS1_15function_bufferESD_ @1127
    _ZN5boost6detail8function21function_obj_invoker1IN7luabind6detail15mem_fn_callbackIMN6Hinage4GameEFvvES7_NS4_9null_typeEEEiP9lua_StateE6invokeERNS1_15function_bufferESD_ @1128
    _ZN5boost6detail8function21function_obj_invoker1IN7luabind6detail15mem_fn_callbackIMN6Hinage5TimerEFbdES7_NS4_9null_typeEEEiP9lua_StateE6invokeERNS1_15function_bufferESD_ @1129
    _ZN5boost6detail8function21function_obj_invoker1IN7luabind6detail15mem_fn_callbackIMN6Hinage5TimerEFdvES7_NS4_9null_typeEEEiP9lua_StateE6invokeERNS1_15function_bufferESD_ @1130
    _ZN5boost6detail8function21function_obj_invoker1IN7luabind6detail15mem_fn_callbackIMN6Hinage5TimerEFvvES7_NS4_9null_typeEEEiP9lua_StateE6invokeERNS1_15function_bufferESD_ @1131
    _ZN5boost6detail8function21function_obj_invoker1IN7luabind6detail15mem_fn_callbackIMN6Hinage7DisplayEFdvES7_NS4_9null_typeEEEiP9lua_StateE6invokeERNS1_15function_bufferESD_ @1132
    _ZN5boost6detail8function21function_obj_invoker1IN7luabind6detail15mem_fn_callbackIMN6Hinage7DisplayEFfvES7_NS4_9null_typeEEEiP9lua_StateE6invokeERNS1_15function_bufferESD_ @1133
    _ZN5boost6detail8function21function_obj_invoker1IN7luabind6detail15mem_fn_callbackIMN6Hinage7DisplayEFvdES7_NS4_9null_typeEEEiP9lua_StateE6invokeERNS1_15function_bufferESD_ @1134
    _ZN5boost6detail8function21function_obj_invoker1IN7luabind6detail15mem_fn_callbackIMN6Hinage7DisplayEFvffES7_NS4_9null_typeEEEiP9lua_StateE6invokeERNS1_15function_bufferESD_ @1135
    _ZN5boost6detail8function21function_obj_invoker1IN7luabind6detail15mem_fn_callbackIMN6Hinage7Vector2IdEEFvdES8_NS4_9null_typeEEEiP9lua_StateE6invokeERNS1_15function_bufferESE_ @1136
    _ZN5boost6detail8function21function_obj_invoker1IN7luabind6detail15mem_fn_callbackIMN6Hinage7Vector2IdEEFvddES8_NS4_9null_typeEEEiP9lua_StateE6invokeERNS1_15function_bufferESE_ @1137
    _ZN5boost6detail8function21function_obj_invoker1IN7luabind6detail15mem_fn_callbackIMN6Hinage7Vector2IdEEKFdvES8_NS4_9null_typeEEEiP9lua_StateE6invokeERNS1_15function_bufferESE_ @1138
    _ZN5boost6detail8function21function_obj_invoker2INS_3_bi6bind_tIiN7luabind6detail8auto_getIN6Hinage14PhysicalEntityEbNS6_9null_typeEEENS3_5list3IPFNS_3argILi1EEEvEPFNSD_ILi2EEEvENS3_5valueIMS9_bEEEEEEiP9lua_StateiE6invokeERNS1_15function_bufferESQ_i @1139
    _ZN5boost9addressofIN7luabind6detail14mem_fn_matcherIM12AudioManagerFvSsES4_NS2_9null_typeEEEEEPT_RS9_ @1140
    _ZN5boost9addressofIN7luabind6detail14mem_fn_matcherIM12AudioManagerFvSsbES4_NS2_9null_typeEEEEEPT_RS9_ @1141
    _ZN5boost9addressofIN7luabind6detail14mem_fn_matcherIM12AudioManagerFvvES4_NS2_9null_typeEEEEEPT_RS9_ @1142
    _ZN5boost9addressofIN7luabind6detail14mem_fn_matcherIMN6Hinage12InputManagerEFbiES5_NS2_9null_typeEEEEEPT_RSA_ @1143
    _ZN5boost9addressofIN7luabind6detail14mem_fn_matcherIMN6Hinage14PhysicalEntityEFSsvES5_NS2_9null_typeEEEEEPT_RSA_ @1144
    _ZN5boost9addressofIN7luabind6detail14mem_fn_matcherIMN6Hinage14PhysicalEntityEFbSsbdES5_NS2_9null_typeEEEEEPT_RSA_ @1145
    _ZN5boost9addressofIN7luabind6detail14mem_fn_matcherIMN6Hinage14PhysicalEntityEFdvES5_NS2_9null_typeEEEEEPT_RSA_ @1146
    _ZN5boost9addressofIN7luabind6detail14mem_fn_matcherIMN6Hinage14PhysicalEntityEFivES5_NS2_9null_typeEEEEEPT_RSA_ @1147
    _ZN5boost9addressofIN7luabind6detail14mem_fn_matcherIMN6Hinage14PhysicalEntityEFvbES5_NS2_9null_typeEEEEEPT_RSA_ @1148
    _ZN5boost9addressofIN7luabind6detail14mem_fn_matcherIMN6Hinage14PhysicalEntityEFvdES5_NS2_9null_typeEEEEEPT_RSA_ @1149
    _ZN5boost9addressofIN7luabind6detail14mem_fn_matcherIMN6Hinage14PhysicalEntityEFvddES5_NS2_9null_typeEEEEEPT_RSA_ @1150
    _ZN5boost9addressofIN7luabind6detail14mem_fn_matcherIMN6Hinage14PhysicalEntityEFvdddES5_NS2_9null_typeEEEEEPT_RSA_ @1151
    _ZN5boost9addressofIN7luabind6detail14mem_fn_matcherIMN6Hinage3MapEFRNS4_14PhysicalEntityESsddES5_NS2_9null_typeEEEEEPT_RSC_ @1152
    _ZN5boost9addressofIN7luabind6detail14mem_fn_matcherIMN6Hinage3MapEFRNS4_14PhysicalEntityEiES5_NS2_9null_typeEEEEEPT_RSC_ @1153
    _ZN5boost9addressofIN7luabind6detail14mem_fn_matcherIMN6Hinage3MapEFivES5_NS2_9null_typeEEEEEPT_RSA_ @1154
    _ZN5boost9addressofIN7luabind6detail14mem_fn_matcherIMN6Hinage3MapEFvSsES5_NS2_9null_typeEEEEEPT_RSA_ @1155
    _ZN5boost9addressofIN7luabind6detail14mem_fn_matcherIMN6Hinage3MapEFvSsbES5_NS2_9null_typeEEEEEPT_RSA_ @1156
    _ZN5boost9addressofIN7luabind6detail14mem_fn_matcherIMN6Hinage3MapEFviES5_NS2_9null_typeEEEEEPT_RSA_ @1157
    _ZN5boost9addressofIN7luabind6detail14mem_fn_matcherIMN6Hinage3MapEFvvES5_NS2_9null_typeEEEEEPT_RSA_ @1158
    _ZN5boost9addressofIN7luabind6detail14mem_fn_matcherIMN6Hinage3MapEKFivES5_NS2_9null_typeEEEEEPT_RSA_ @1159
    _ZN5boost9addressofIN7luabind6detail14mem_fn_matcherIMN6Hinage4GameEFRNS4_4FontESsES5_NS2_9null_typeEEEEEPT_RSC_ @1160
    _ZN5boost9addressofIN7luabind6detail14mem_fn_matcherIMN6Hinage4GameEFdvES5_NS2_9null_typeEEEEEPT_RSA_ @1161
    _ZN5boost9addressofIN7luabind6detail14mem_fn_matcherIMN6Hinage4GameEFvRNS4_4FontESsddddES5_NS2_9null_typeEEEEEPT_RSC_ @1162
    _ZN5boost9addressofIN7luabind6detail14mem_fn_matcherIMN6Hinage4GameEFvdES5_NS2_9null_typeEEEEEPT_RSA_ @1163
    _ZN5boost9addressofIN7luabind6detail14mem_fn_matcherIMN6Hinage4GameEFvvES5_NS2_9null_typeEEEEEPT_RSA_ @1164
    _ZN5boost9addressofIN7luabind6detail14mem_fn_matcherIMN6Hinage5TimerEFbdES5_NS2_9null_typeEEEEEPT_RSA_ @1165
    _ZN5boost9addressofIN7luabind6detail14mem_fn_matcherIMN6Hinage5TimerEFdvES5_NS2_9null_typeEEEEEPT_RSA_ @1166
    _ZN5boost9addressofIN7luabind6detail14mem_fn_matcherIMN6Hinage5TimerEFvvES5_NS2_9null_typeEEEEEPT_RSA_ @1167
    _ZN5boost9addressofIN7luabind6detail14mem_fn_matcherIMN6Hinage7DisplayEFdvES5_NS2_9null_typeEEEEEPT_RSA_ @1168
    _ZN5boost9addressofIN7luabind6detail14mem_fn_matcherIMN6Hinage7DisplayEFfvES5_NS2_9null_typeEEEEEPT_RSA_ @1169
    _ZN5boost9addressofIN7luabind6detail14mem_fn_matcherIMN6Hinage7DisplayEFvdES5_NS2_9null_typeEEEEEPT_RSA_ @1170
    _ZN5boost9addressofIN7luabind6detail14mem_fn_matcherIMN6Hinage7DisplayEFvffES5_NS2_9null_typeEEEEEPT_RSA_ @1171
    _ZN5boost9addressofIN7luabind6detail14mem_fn_matcherIMN6Hinage7Vector2IdEEFvdES6_NS2_9null_typeEEEEEPT_RSB_ @1172
    _ZN5boost9addressofIN7luabind6detail14mem_fn_matcherIMN6Hinage7Vector2IdEEFvddES6_NS2_9null_typeEEEEEPT_RSB_ @1173
    _ZN5boost9addressofIN7luabind6detail14mem_fn_matcherIMN6Hinage7Vector2IdEEKFdvES6_NS2_9null_typeEEEEEPT_RSB_ @1174
    _ZN5boost9addressofIN7luabind6detail15mem_fn_callbackIM12AudioManagerFvSsES4_NS2_9null_typeEEEEEPT_RS9_ @1175
    _ZN5boost9addressofIN7luabind6detail15mem_fn_callbackIM12AudioManagerFvSsbES4_NS2_9null_typeEEEEEPT_RS9_ @1176
    _ZN5boost9addressofIN7luabind6detail15mem_fn_callbackIM12AudioManagerFvvES4_NS2_9null_typeEEEEEPT_RS9_ @1177
    _ZN5boost9addressofIN7luabind6detail15mem_fn_callbackIMN6Hinage12InputManagerEFbiES5_NS2_9null_typeEEEEEPT_RSA_ @1178
    _ZN5boost9addressofIN7luabind6detail15mem_fn_callbackIMN6Hinage14PhysicalEntityEFSsvES5_NS2_9null_typeEEEEEPT_RSA_ @1179
    _ZN5boost9addressofIN7luabind6detail15mem_fn_callbackIMN6Hinage14PhysicalEntityEFbSsbdES5_NS2_9null_typeEEEEEPT_RSA_ @1180
    _ZN5boost9addressofIN7luabind6detail15mem_fn_callbackIMN6Hinage14PhysicalEntityEFdvES5_NS2_9null_typeEEEEEPT_RSA_ @1181
    _ZN5boost9addressofIN7luabind6detail15mem_fn_callbackIMN6Hinage14PhysicalEntityEFivES5_NS2_9null_typeEEEEEPT_RSA_ @1182
    _ZN5boost9addressofIN7luabind6detail15mem_fn_callbackIMN6Hinage14PhysicalEntityEFvbES5_NS2_9null_typeEEEEEPT_RSA_ @1183
    _ZN5boost9addressofIN7luabind6detail15mem_fn_callbackIMN6Hinage14PhysicalEntityEFvdES5_NS2_9null_typeEEEEEPT_RSA_ @1184
    _ZN5boost9addressofIN7luabind6detail15mem_fn_callbackIMN6Hinage14PhysicalEntityEFvddES5_NS2_9null_typeEEEEEPT_RSA_ @1185
    _ZN5boost9addressofIN7luabind6detail15mem_fn_callbackIMN6Hinage14PhysicalEntityEFvdddES5_NS2_9null_typeEEEEEPT_RSA_ @1186
    _ZN5boost9addressofIN7luabind6detail15mem_fn_callbackIMN6Hinage3MapEFRNS4_14PhysicalEntityESsddES5_NS2_9null_typeEEEEEPT_RSC_ @1187
    _ZN5boost9addressofIN7luabind6detail15mem_fn_callbackIMN6Hinage3MapEFRNS4_14PhysicalEntityEiES5_NS2_9null_typeEEEEEPT_RSC_ @1188
    _ZN5boost9addressofIN7luabind6detail15mem_fn_callbackIMN6Hinage3MapEFivES5_NS2_9null_typeEEEEEPT_RSA_ @1189
    _ZN5boost9addressofIN7luabind6detail15mem_fn_callbackIMN6Hinage3MapEFvSsES5_NS2_9null_typeEEEEEPT_RSA_ @1190
    _ZN5boost9addressofIN7luabind6detail15mem_fn_callbackIMN6Hinage3MapEFvSsbES5_NS2_9null_typeEEEEEPT_RSA_ @1191
    _ZN5boost9addressofIN7luabind6detail15mem_fn_callbackIMN6Hinage3MapEFviES5_NS2_9null_typeEEEEEPT_RSA_ @1192
    _ZN5boost9addressofIN7luabind6detail15mem_fn_callbackIMN6Hinage3MapEFvvES5_NS2_9null_typeEEEEEPT_RSA_ @1193
    _ZN5boost9addressofIN7luabind6detail15mem_fn_callbackIMN6Hinage3MapEKFivES5_NS2_9null_typeEEEEEPT_RSA_ @1194
    _ZN5boost9addressofIN7luabind6detail15mem_fn_callbackIMN6Hinage4GameEFRNS4_4FontESsES5_NS2_9null_typeEEEEEPT_RSC_ @1195
    _ZN5boost9addressofIN7luabind6detail15mem_fn_callbackIMN6Hinage4GameEFdvES5_NS2_9null_typeEEEEEPT_RSA_ @1196
    _ZN5boost9addressofIN7luabind6detail15mem_fn_callbackIMN6Hinage4GameEFvRNS4_4FontESsddddES5_NS2_9null_typeEEEEEPT_RSC_ @1197
    _ZN5boost9addressofIN7luabind6detail15mem_fn_callbackIMN6Hinage4GameEFvdES5_NS2_9null_typeEEEEEPT_RSA_ @1198
    _ZN5boost9addressofIN7luabind6detail15mem_fn_callbackIMN6Hinage4GameEFvvES5_NS2_9null_typeEEEEEPT_RSA_ @1199
    _ZN5boost9addressofIN7luabind6detail15mem_fn_callbackIMN6Hinage5TimerEFbdES5_NS2_9null_typeEEEEEPT_RSA_ @1200
    _ZN5boost9addressofIN7luabind6detail15mem_fn_callbackIMN6Hinage5TimerEFdvES5_NS2_9null_typeEEEEEPT_RSA_ @1201
    _ZN5boost9addressofIN7luabind6detail15mem_fn_callbackIMN6Hinage5TimerEFvvES5_NS2_9null_typeEEEEEPT_RSA_ @1202
    _ZN5boost9addressofIN7luabind6detail15mem_fn_callbackIMN6Hinage7DisplayEFdvES5_NS2_9null_typeEEEEEPT_RSA_ @1203
    _ZN5boost9addressofIN7luabind6detail15mem_fn_callbackIMN6Hinage7DisplayEFfvES5_NS2_9null_typeEEEEEPT_RSA_ @1204
    _ZN5boost9addressofIN7luabind6detail15mem_fn_callbackIMN6Hinage7DisplayEFvdES5_NS2_9null_typeEEEEEPT_RSA_ @1205
    _ZN5boost9addressofIN7luabind6detail15mem_fn_callbackIMN6Hinage7DisplayEFvffES5_NS2_9null_typeEEEEEPT_RSA_ @1206
    _ZN5boost9addressofIN7luabind6detail15mem_fn_callbackIMN6Hinage7Vector2IdEEFvdES6_NS2_9null_typeEEEEEPT_RSB_ @1207
    _ZN5boost9addressofIN7luabind6detail15mem_fn_callbackIMN6Hinage7Vector2IdEEFvddES6_NS2_9null_typeEEEEEPT_RSB_ @1208
    _ZN5boost9addressofIN7luabind6detail15mem_fn_callbackIMN6Hinage7Vector2IdEEKFdvES6_NS2_9null_typeEEEEEPT_RSB_ @1209
    _ZN5boost9addressofINS_3_bi6bind_tIiN7luabind6detail8auto_getIN6Hinage14PhysicalEntityEbNS4_9null_typeEEENS1_5list3IPFNS_3argILi1EEEvEPFNSB_ILi2EEEvENS1_5valueIMS7_bEEEEEEEEPT_RSN_ @1210
    _ZN5boost9function1IiP9lua_StateSaINS_13function_baseEEE13assign_to_ownERKS5_ @1211
    _ZN5boost9function1IiP9lua_StateSaINS_13function_baseEEE5clearEv @1212
    _ZN5boost9function1IiP9lua_StateSaINS_13function_baseEEE9assign_toIN7luabind6detail14mem_fn_matcherIM12AudioManagerFvSsESA_NS8_9null_typeEEEEEvT_ @1213
    _ZN5boost9function1IiP9lua_StateSaINS_13function_baseEEE9assign_toIN7luabind6detail14mem_fn_matcherIM12AudioManagerFvSsbESA_NS8_9null_typeEEEEEvT_ @1214
    _ZN5boost9function1IiP9lua_StateSaINS_13function_baseEEE9assign_toIN7luabind6detail14mem_fn_matcherIM12AudioManagerFvvESA_NS8_9null_typeEEEEEvT_ @1215
    _ZN5boost9function1IiP9lua_StateSaINS_13function_baseEEE9assign_toIN7luabind6detail14mem_fn_matcherIMN6Hinage12InputManagerEFbiESB_NS8_9null_typeEEEEEvT_ @1216
    _ZN5boost9function1IiP9lua_StateSaINS_13function_baseEEE9assign_toIN7luabind6detail14mem_fn_matcherIMN6Hinage14PhysicalEntityEFSsvESB_NS8_9null_typeEEEEEvT_ @1217
    _ZN5boost9function1IiP9lua_StateSaINS_13function_baseEEE9assign_toIN7luabind6detail14mem_fn_matcherIMN6Hinage14PhysicalEntityEFbSsbdESB_NS8_9null_typeEEEEEvT_ @1218
    _ZN5boost9function1IiP9lua_StateSaINS_13function_baseEEE9assign_toIN7luabind6detail14mem_fn_matcherIMN6Hinage14PhysicalEntityEFdvESB_NS8_9null_typeEEEEEvT_ @1219
    _ZN5boost9function1IiP9lua_StateSaINS_13function_baseEEE9assign_toIN7luabind6detail14mem_fn_matcherIMN6Hinage14PhysicalEntityEFivESB_NS8_9null_typeEEEEEvT_ @1220
    _ZN5boost9function1IiP9lua_StateSaINS_13function_baseEEE9assign_toIN7luabind6detail14mem_fn_matcherIMN6Hinage14PhysicalEntityEFvbESB_NS8_9null_typeEEEEEvT_ @1221
    _ZN5boost9function1IiP9lua_StateSaINS_13function_baseEEE9assign_toIN7luabind6detail14mem_fn_matcherIMN6Hinage14PhysicalEntityEFvdESB_NS8_9null_typeEEEEEvT_ @1222
    _ZN5boost9function1IiP9lua_StateSaINS_13function_baseEEE9assign_toIN7luabind6detail14mem_fn_matcherIMN6Hinage14PhysicalEntityEFvddESB_NS8_9null_typeEEEEEvT_ @1223
    _ZN5boost9function1IiP9lua_StateSaINS_13function_baseEEE9assign_toIN7luabind6detail14mem_fn_matcherIMN6Hinage14PhysicalEntityEFvdddESB_NS8_9null_typeEEEEEvT_ @1224
    _ZN5boost9function1IiP9lua_StateSaINS_13function_baseEEE9assign_toIN7luabind6detail14mem_fn_matcherIMN6Hinage3MapEFRNSA_14PhysicalEntityESsddESB_NS8_9null_typeEEEEEvT_ @1225
    _ZN5boost9function1IiP9lua_StateSaINS_13function_baseEEE9assign_toIN7luabind6detail14mem_fn_matcherIMN6Hinage3MapEFRNSA_14PhysicalEntityEiESB_NS8_9null_typeEEEEEvT_ @1226
    _ZN5boost9function1IiP9lua_StateSaINS_13function_baseEEE9assign_toIN7luabind6detail14mem_fn_matcherIMN6Hinage3MapEFivESB_NS8_9null_typeEEEEEvT_ @1227
    _ZN5boost9function1IiP9lua_StateSaINS_13function_baseEEE9assign_toIN7luabind6detail14mem_fn_matcherIMN6Hinage3MapEFvSsESB_NS8_9null_typeEEEEEvT_ @1228
    _ZN5boost9function1IiP9lua_StateSaINS_13function_baseEEE9assign_toIN7luabind6detail14mem_fn_matcherIMN6Hinage3MapEFvSsbESB_NS8_9null_typeEEEEEvT_ @1229
    _ZN5boost9function1IiP9lua_StateSaINS_13function_baseEEE9assign_toIN7luabind6detail14mem_fn_matcherIMN6Hinage3MapEFviESB_NS8_9null_typeEEEEEvT_ @1230
    _ZN5boost9function1IiP9lua_StateSaINS_13function_baseEEE9assign_toIN7luabind6detail14mem_fn_matcherIMN6Hinage3MapEFvvESB_NS8_9null_typeEEEEEvT_ @1231
    _ZN5boost9function1IiP9lua_StateSaINS_13function_baseEEE9assign_toIN7luabind6detail14mem_fn_matcherIMN6Hinage3MapEKFivESB_NS8_9null_typeEEEEEvT_ @1232
    _ZN5boost9function1IiP9lua_StateSaINS_13function_baseEEE9assign_toIN7luabind6detail14mem_fn_matcherIMN6Hinage4GameEFRNSA_4FontESsESB_NS8_9null_typeEEEEEvT_ @1233
    _ZN5boost9function1IiP9lua_StateSaINS_13function_baseEEE9assign_toIN7luabind6detail14mem_fn_matcherIMN6Hinage4GameEFdvESB_NS8_9null_typeEEEEEvT_ @1234
    _ZN5boost9function1IiP9lua_StateSaINS_13function_baseEEE9assign_toIN7luabind6detail14mem_fn_matcherIMN6Hinage4GameEFvRNSA_4FontESsddddESB_NS8_9null_typeEEEEEvT_ @1235
    _ZN5boost9function1IiP9lua_StateSaINS_13function_baseEEE9assign_toIN7luabind6detail14mem_fn_matcherIMN6Hinage4GameEFvdESB_NS8_9null_typeEEEEEvT_ @1236
    _ZN5boost9function1IiP9lua_StateSaINS_13function_baseEEE9assign_toIN7luabind6detail14mem_fn_matcherIMN6Hinage4GameEFvvESB_NS8_9null_typeEEEEEvT_ @1237
    _ZN5boost9function1IiP9lua_StateSaINS_13function_baseEEE9assign_toIN7luabind6detail14mem_fn_matcherIMN6Hinage5TimerEFbdESB_NS8_9null_typeEEEEEvT_ @1238
    _ZN5boost9function1IiP9lua_StateSaINS_13function_baseEEE9assign_toIN7luabind6detail14mem_fn_matcherIMN6Hinage5TimerEFdvESB_NS8_9null_typeEEEEEvT_ @1239
    _ZN5boost9function1IiP9lua_StateSaINS_13function_baseEEE9assign_toIN7luabind6detail14mem_fn_matcherIMN6Hinage5TimerEFvvESB_NS8_9null_typeEEEEEvT_ @1240
    _ZN5boost9function1IiP9lua_StateSaINS_13function_baseEEE9assign_toIN7luabind6detail14mem_fn_matcherIMN6Hinage7DisplayEFdvESB_NS8_9null_typeEEEEEvT_ @1241
    _ZN5boost9function1IiP9lua_StateSaINS_13function_baseEEE9assign_toIN7luabind6detail14mem_fn_matcherIMN6Hinage7DisplayEFfvESB_NS8_9null_typeEEEEEvT_ @1242
    _ZN5boost9function1IiP9lua_StateSaINS_13function_baseEEE9assign_toIN7luabind6detail14mem_fn_matcherIMN6Hinage7DisplayEFvdESB_NS8_9null_typeEEEEEvT_ @1243
    _ZN5boost9function1IiP9lua_StateSaINS_13function_baseEEE9assign_toIN7luabind6detail14mem_fn_matcherIMN6Hinage7DisplayEFvffESB_NS8_9null_typeEEEEEvT_ @1244
    _ZN5boost9function1IiP9lua_StateSaINS_13function_baseEEE9assign_toIN7luabind6detail14mem_fn_matcherIMN6Hinage7Vector2IdEEFvdESC_NS8_9null_typeEEEEEvT_ @1245
    _ZN5boost9function1IiP9lua_StateSaINS_13function_baseEEE9assign_toIN7luabind6detail14mem_fn_matcherIMN6Hinage7Vector2IdEEFvddESC_NS8_9null_typeEEEEEvT_ @1246
    _ZN5boost9function1IiP9lua_StateSaINS_13function_baseEEE9assign_toIN7luabind6detail14mem_fn_matcherIMN6Hinage7Vector2IdEEKFdvESC_NS8_9null_typeEEEEEvT_ @1247
    _ZN5boost9function1IiP9lua_StateSaINS_13function_baseEEE9assign_toIN7luabind6detail15mem_fn_callbackIM12AudioManagerFvSsESA_NS8_9null_typeEEEEEvT_ @1248
    _ZN5boost9function1IiP9lua_StateSaINS_13function_baseEEE9assign_toIN7luabind6detail15mem_fn_callbackIM12AudioManagerFvSsbESA_NS8_9null_typeEEEEEvT_ @1249
    _ZN5boost9function1IiP9lua_StateSaINS_13function_baseEEE9assign_toIN7luabind6detail15mem_fn_callbackIM12AudioManagerFvvESA_NS8_9null_typeEEEEEvT_ @1250
    _ZN5boost9function1IiP9lua_StateSaINS_13function_baseEEE9assign_toIN7luabind6detail15mem_fn_callbackIMN6Hinage12InputManagerEFbiESB_NS8_9null_typeEEEEEvT_ @1251
    _ZN5boost9function1IiP9lua_StateSaINS_13function_baseEEE9assign_toIN7luabind6detail15mem_fn_callbackIMN6Hinage14PhysicalEntityEFSsvESB_NS8_9null_typeEEEEEvT_ @1252
    _ZN5boost9function1IiP9lua_StateSaINS_13function_baseEEE9assign_toIN7luabind6detail15mem_fn_callbackIMN6Hinage14PhysicalEntityEFbSsbdESB_NS8_9null_typeEEEEEvT_ @1253
    _ZN5boost9function1IiP9lua_StateSaINS_13function_baseEEE9assign_toIN7luabind6detail15mem_fn_callbackIMN6Hinage14PhysicalEntityEFdvESB_NS8_9null_typeEEEEEvT_ @1254
    _ZN5boost9function1IiP9lua_StateSaINS_13function_baseEEE9assign_toIN7luabind6detail15mem_fn_callbackIMN6Hinage14PhysicalEntityEFivESB_NS8_9null_typeEEEEEvT_ @1255
    _ZN5boost9function1IiP9lua_StateSaINS_13function_baseEEE9assign_toIN7luabind6detail15mem_fn_callbackIMN6Hinage14PhysicalEntityEFvbESB_NS8_9null_typeEEEEEvT_ @1256
    _ZN5boost9function1IiP9lua_StateSaINS_13function_baseEEE9assign_toIN7luabind6detail15mem_fn_callbackIMN6Hinage14PhysicalEntityEFvdESB_NS8_9null_typeEEEEEvT_ @1257
    _ZN5boost9function1IiP9lua_StateSaINS_13function_baseEEE9assign_toIN7luabind6detail15mem_fn_callbackIMN6Hinage14PhysicalEntityEFvddESB_NS8_9null_typeEEEEEvT_ @1258
    _ZN5boost9function1IiP9lua_StateSaINS_13function_baseEEE9assign_toIN7luabind6detail15mem_fn_callbackIMN6Hinage14PhysicalEntityEFvdddESB_NS8_9null_typeEEEEEvT_ @1259
    _ZN5boost9function1IiP9lua_StateSaINS_13function_baseEEE9assign_toIN7luabind6detail15mem_fn_callbackIMN6Hinage3MapEFRNSA_14PhysicalEntityESsddESB_NS8_9null_typeEEEEEvT_ @1260
    _ZN5boost9function1IiP9lua_StateSaINS_13function_baseEEE9assign_toIN7luabind6detail15mem_fn_callbackIMN6Hinage3MapEFRNSA_14PhysicalEntityEiESB_NS8_9null_typeEEEEEvT_ @1261
    _ZN5boost9function1IiP9lua_StateSaINS_13function_baseEEE9assign_toIN7luabind6detail15mem_fn_callbackIMN6Hinage3MapEFivESB_NS8_9null_typeEEEEEvT_ @1262
    _ZN5boost9function1IiP9lua_StateSaINS_13function_baseEEE9assign_toIN7luabind6detail15mem_fn_callbackIMN6Hinage3MapEFvSsESB_NS8_9null_typeEEEEEvT_ @1263
    _ZN5boost9function1IiP9lua_StateSaINS_13function_baseEEE9assign_toIN7luabind6detail15mem_fn_callbackIMN6Hinage3MapEFvSsbESB_NS8_9null_typeEEEEEvT_ @1264
    _ZN5boost9function1IiP9lua_StateSaINS_13function_baseEEE9assign_toIN7luabind6detail15mem_fn_callbackIMN6Hinage3MapEFviESB_NS8_9null_typeEEEEEvT_ @1265
    _ZN5boost9function1IiP9lua_StateSaINS_13function_baseEEE9assign_toIN7luabind6detail15mem_fn_callbackIMN6Hinage3MapEFvvESB_NS8_9null_typeEEEEEvT_ @1266
    _ZN5boost9function1IiP9lua_StateSaINS_13function_baseEEE9assign_toIN7luabind6detail15mem_fn_callbackIMN6Hinage3MapEKFivESB_NS8_9null_typeEEEEEvT_ @1267
    _ZN5boost9function1IiP9lua_StateSaINS_13function_baseEEE9assign_toIN7luabind6detail15mem_fn_callbackIMN6Hinage4GameEFRNSA_4FontESsESB_NS8_9null_typeEEEEEvT_ @1268
    _ZN5boost9function1IiP9lua_StateSaINS_13function_baseEEE9assign_toIN7luabind6detail15mem_fn_callbackIMN6Hinage4GameEFdvESB_NS8_9null_typeEEEEEvT_ @1269
    _ZN5boost9function1IiP9lua_StateSaINS_13function_baseEEE9assign_toIN7luabind6detail15mem_fn_callbackIMN6Hinage4GameEFvRNSA_4FontESsddddESB_NS8_9null_typeEEEEEvT_ @1270
    _ZN5boost9function1IiP9lua_StateSaINS_13function_baseEEE9assign_toIN7luabind6detail15mem_fn_callbackIMN6Hinage4GameEFvdESB_NS8_9null_typeEEEEEvT_ @1271
    _ZN5boost9function1IiP9lua_StateSaINS_13function_baseEEE9assign_toIN7luabind6detail15mem_fn_callbackIMN6Hinage4GameEFvvESB_NS8_9null_typeEEEEEvT_ @1272
    _ZN5boost9function1IiP9lua_StateSaINS_13function_baseEEE9assign_toIN7luabind6detail15mem_fn_callbackIMN6Hinage5TimerEFbdESB_NS8_9null_typeEEEEEvT_ @1273
    _ZN5boost9function1IiP9lua_StateSaINS_13function_baseEEE9assign_toIN7luabind6detail15mem_fn_callbackIMN6Hinage5TimerEFdvESB_NS8_9null_typeEEEEEvT_ @1274
    _ZN5boost9function1IiP9lua_StateSaINS_13function_baseEEE9assign_toIN7luabind6detail15mem_fn_callbackIMN6Hinage5TimerEFvvESB_NS8_9null_typeEEEEEvT_ @1275
    _ZN5boost9function1IiP9lua_StateSaINS_13function_baseEEE9assign_toIN7luabind6detail15mem_fn_callbackIMN6Hinage7DisplayEFdvESB_NS8_9null_typeEEEEEvT_ @1276
    _ZN5boost9function1IiP9lua_StateSaINS_13function_baseEEE9assign_toIN7luabind6detail15mem_fn_callbackIMN6Hinage7DisplayEFfvESB_NS8_9null_typeEEEEEvT_ @1277
    _ZN5boost9function1IiP9lua_StateSaINS_13function_baseEEE9assign_toIN7luabind6detail15mem_fn_callbackIMN6Hinage7DisplayEFvdESB_NS8_9null_typeEEEEEvT_ @1278
    _ZN5boost9function1IiP9lua_StateSaINS_13function_baseEEE9assign_toIN7luabind6detail15mem_fn_callbackIMN6Hinage7DisplayEFvffESB_NS8_9null_typeEEEEEvT_ @1279
    _ZN5boost9function1IiP9lua_StateSaINS_13function_baseEEE9assign_toIN7luabind6detail15mem_fn_callbackIMN6Hinage7Vector2IdEEFvdESC_NS8_9null_typeEEEEEvT_ @1280
    _ZN5boost9function1IiP9lua_StateSaINS_13function_baseEEE9assign_toIN7luabind6detail15mem_fn_callbackIMN6Hinage7Vector2IdEEFvddESC_NS8_9null_typeEEEEEvT_ @1281
    _ZN5boost9function1IiP9lua_StateSaINS_13function_baseEEE9assign_toIN7luabind6detail15mem_fn_callbackIMN6Hinage7Vector2IdEEKFdvESC_NS8_9null_typeEEEEEvT_ @1282
    _ZN5boost9function1IiP9lua_StateSaINS_13function_baseEEE9assign_toIPFiS2_EEEvT_ @1283
    _ZN5boost9function1IiP9lua_StateSaINS_13function_baseEEEC1EPNS5_10clear_typeE @1284
    _ZN5boost9function1IiP9lua_StateSaINS_13function_baseEEEC1Ev @1285
    _ZN5boost9function1IiP9lua_StateSaINS_13function_baseEEEC1IN7luabind6detail14mem_fn_matcherIM12AudioManagerFvSsESA_NS8_9null_typeEEEEET_NS_11enable_if_cIXsrNS_11type_traits7ice_notIXsrNS_11is_integralISF_EE5valueEEE5valueEiE4typeE @1286
    _ZN5boost9function1IiP9lua_StateSaINS_13function_baseEEEC1IN7luabind6detail14mem_fn_matcherIM12AudioManagerFvSsbESA_NS8_9null_typeEEEEET_NS_11enable_if_cIXsrNS_11type_traits7ice_notIXsrNS_11is_integralISF_EE5valueEEE5valueEiE4typeE @1287
    _ZN5boost9function1IiP9lua_StateSaINS_13function_baseEEEC1IN7luabind6detail14mem_fn_matcherIM12AudioManagerFvvESA_NS8_9null_typeEEEEET_NS_11enable_if_cIXsrNS_11type_traits7ice_notIXsrNS_11is_integralISF_EE5valueEEE5valueEiE4typeE @1288
    _ZN5boost9function1IiP9lua_StateSaINS_13function_baseEEEC1IN7luabind6detail14mem_fn_matcherIMN6Hinage12InputManagerEFbiESB_NS8_9null_typeEEEEET_NS_11enable_if_cIXsrNS_11type_traits7ice_notIXsrNS_11is_integralISG_EE5valueEEE5valueEiE4typeE @1289
    _ZN5boost9function1IiP9lua_StateSaINS_13function_baseEEEC1IN7luabind6detail14mem_fn_matcherIMN6Hinage14PhysicalEntityEFSsvESB_NS8_9null_typeEEEEET_NS_11enable_if_cIXsrNS_11type_traits7ice_notIXsrNS_11is_integralISG_EE5valueEEE5valueEiE4typeE @1290
    _ZN5boost9function1IiP9lua_StateSaINS_13function_baseEEEC1IN7luabind6detail14mem_fn_matcherIMN6Hinage14PhysicalEntityEFbSsbdESB_NS8_9null_typeEEEEET_NS_11enable_if_cIXsrNS_11type_traits7ice_notIXsrNS_11is_integralISG_EE5valueEEE5valueEiE4typeE @1291
    _ZN5boost9function1IiP9lua_StateSaINS_13function_baseEEEC1IN7luabind6detail14mem_fn_matcherIMN6Hinage14PhysicalEntityEFdvESB_NS8_9null_typeEEEEET_NS_11enable_if_cIXsrNS_11type_traits7ice_notIXsrNS_11is_integralISG_EE5valueEEE5valueEiE4typeE @1292
    _ZN5boost9function1IiP9lua_StateSaINS_13function_baseEEEC1IN7luabind6detail14mem_fn_matcherIMN6Hinage14PhysicalEntityEFivESB_NS8_9null_typeEEEEET_NS_11enable_if_cIXsrNS_11type_traits7ice_notIXsrNS_11is_integralISG_EE5valueEEE5valueEiE4typeE @1293
    _ZN5boost9function1IiP9lua_StateSaINS_13function_baseEEEC1IN7luabind6detail14mem_fn_matcherIMN6Hinage14PhysicalEntityEFvbESB_NS8_9null_typeEEEEET_NS_11enable_if_cIXsrNS_11type_traits7ice_notIXsrNS_11is_integralISG_EE5valueEEE5valueEiE4typeE @1294
    _ZN5boost9function1IiP9lua_StateSaINS_13function_baseEEEC1IN7luabind6detail14mem_fn_matcherIMN6Hinage14PhysicalEntityEFvdESB_NS8_9null_typeEEEEET_NS_11enable_if_cIXsrNS_11type_traits7ice_notIXsrNS_11is_integralISG_EE5valueEEE5valueEiE4typeE @1295
    _ZN5boost9function1IiP9lua_StateSaINS_13function_baseEEEC1IN7luabind6detail14mem_fn_matcherIMN6Hinage14PhysicalEntityEFvddESB_NS8_9null_typeEEEEET_NS_11enable_if_cIXsrNS_11type_traits7ice_notIXsrNS_11is_integralISG_EE5valueEEE5valueEiE4typeE @1296
    _ZN5boost9function1IiP9lua_StateSaINS_13function_baseEEEC1IN7luabind6detail14mem_fn_matcherIMN6Hinage14PhysicalEntityEFvdddESB_NS8_9null_typeEEEEET_NS_11enable_if_cIXsrNS_11type_traits7ice_notIXsrNS_11is_integralISG_EE5valueEEE5valueEiE4typeE @1297
    _ZN5boost9function1IiP9lua_StateSaINS_13function_baseEEEC1IN7luabind6detail14mem_fn_matcherIMN6Hinage3MapEFRNSA_14PhysicalEntityESsddESB_NS8_9null_typeEEEEET_NS_11enable_if_cIXsrNS_11type_traits7ice_notIXsrNS_11is_integralISI_EE5valueEEE5valueEiE4typeE @1298
    _ZN5boost9function1IiP9lua_StateSaINS_13function_baseEEEC1IN7luabind6detail14mem_fn_matcherIMN6Hinage3MapEFRNSA_14PhysicalEntityEiESB_NS8_9null_typeEEEEET_NS_11enable_if_cIXsrNS_11type_traits7ice_notIXsrNS_11is_integralISI_EE5valueEEE5valueEiE4typeE @1299
    _ZN5boost9function1IiP9lua_StateSaINS_13function_baseEEEC1IN7luabind6detail14mem_fn_matcherIMN6Hinage3MapEFivESB_NS8_9null_typeEEEEET_NS_11enable_if_cIXsrNS_11type_traits7ice_notIXsrNS_11is_integralISG_EE5valueEEE5valueEiE4typeE @1300
    _ZN5boost9function1IiP9lua_StateSaINS_13function_baseEEEC1IN7luabind6detail14mem_fn_matcherIMN6Hinage3MapEFvSsESB_NS8_9null_typeEEEEET_NS_11enable_if_cIXsrNS_11type_traits7ice_notIXsrNS_11is_integralISG_EE5valueEEE5valueEiE4typeE @1301
    _ZN5boost9function1IiP9lua_StateSaINS_13function_baseEEEC1IN7luabind6detail14mem_fn_matcherIMN6Hinage3MapEFvSsbESB_NS8_9null_typeEEEEET_NS_11enable_if_cIXsrNS_11type_traits7ice_notIXsrNS_11is_integralISG_EE5valueEEE5valueEiE4typeE @1302
    _ZN5boost9function1IiP9lua_StateSaINS_13function_baseEEEC1IN7luabind6detail14mem_fn_matcherIMN6Hinage3MapEFviESB_NS8_9null_typeEEEEET_NS_11enable_if_cIXsrNS_11type_traits7ice_notIXsrNS_11is_integralISG_EE5valueEEE5valueEiE4typeE @1303
    _ZN5boost9function1IiP9lua_StateSaINS_13function_baseEEEC1IN7luabind6detail14mem_fn_matcherIMN6Hinage3MapEFvvESB_NS8_9null_typeEEEEET_NS_11enable_if_cIXsrNS_11type_traits7ice_notIXsrNS_11is_integralISG_EE5valueEEE5valueEiE4typeE @1304
    _ZN5boost9function1IiP9lua_StateSaINS_13function_baseEEEC1IN7luabind6detail14mem_fn_matcherIMN6Hinage3MapEKFivESB_NS8_9null_typeEEEEET_NS_11enable_if_cIXsrNS_11type_traits7ice_notIXsrNS_11is_integralISG_EE5valueEEE5valueEiE4typeE @1305
    _ZN5boost9function1IiP9lua_StateSaINS_13function_baseEEEC1IN7luabind6detail14mem_fn_matcherIMN6Hinage4GameEFRNSA_4FontESsESB_NS8_9null_typeEEEEET_NS_11enable_if_cIXsrNS_11type_traits7ice_notIXsrNS_11is_integralISI_EE5valueEEE5valueEiE4typeE @1306
    _ZN5boost9function1IiP9lua_StateSaINS_13function_baseEEEC1IN7luabind6detail14mem_fn_matcherIMN6Hinage4GameEFdvESB_NS8_9null_typeEEEEET_NS_11enable_if_cIXsrNS_11type_traits7ice_notIXsrNS_11is_integralISG_EE5valueEEE5valueEiE4typeE @1307
    _ZN5boost9function1IiP9lua_StateSaINS_13function_baseEEEC1IN7luabind6detail14mem_fn_matcherIMN6Hinage4GameEFvRNSA_4FontESsddddESB_NS8_9null_typeEEEEET_NS_11enable_if_cIXsrNS_11type_traits7ice_notIXsrNS_11is_integralISI_EE5valueEEE5valueEiE4typeE @1308
    _ZN5boost9function1IiP9lua_StateSaINS_13function_baseEEEC1IN7luabind6detail14mem_fn_matcherIMN6Hinage4GameEFvdESB_NS8_9null_typeEEEEET_NS_11enable_if_cIXsrNS_11type_traits7ice_notIXsrNS_11is_integralISG_EE5valueEEE5valueEiE4typeE @1309
    _ZN5boost9function1IiP9lua_StateSaINS_13function_baseEEEC1IN7luabind6detail14mem_fn_matcherIMN6Hinage4GameEFvvESB_NS8_9null_typeEEEEET_NS_11enable_if_cIXsrNS_11type_traits7ice_notIXsrNS_11is_integralISG_EE5valueEEE5valueEiE4typeE @1310
    _ZN5boost9function1IiP9lua_StateSaINS_13function_baseEEEC1IN7luabind6detail14mem_fn_matcherIMN6Hinage5TimerEFbdESB_NS8_9null_typeEEEEET_NS_11enable_if_cIXsrNS_11type_traits7ice_notIXsrNS_11is_integralISG_EE5valueEEE5valueEiE4typeE @1311
    _ZN5boost9function1IiP9lua_StateSaINS_13function_baseEEEC1IN7luabind6detail14mem_fn_matcherIMN6Hinage5TimerEFdvESB_NS8_9null_typeEEEEET_NS_11enable_if_cIXsrNS_11type_traits7ice_notIXsrNS_11is_integralISG_EE5valueEEE5valueEiE4typeE @1312
    _ZN5boost9function1IiP9lua_StateSaINS_13function_baseEEEC1IN7luabind6detail14mem_fn_matcherIMN6Hinage5TimerEFvvESB_NS8_9null_typeEEEEET_NS_11enable_if_cIXsrNS_11type_traits7ice_notIXsrNS_11is_integralISG_EE5valueEEE5valueEiE4typeE @1313
    _ZN5boost9function1IiP9lua_StateSaINS_13function_baseEEEC1IN7luabind6detail14mem_fn_matcherIMN6Hinage7DisplayEFdvESB_NS8_9null_typeEEEEET_NS_11enable_if_cIXsrNS_11type_traits7ice_notIXsrNS_11is_integralISG_EE5valueEEE5valueEiE4typeE @1314
    _ZN5boost9function1IiP9lua_StateSaINS_13function_baseEEEC1IN7luabind6detail14mem_fn_matcherIMN6Hinage7DisplayEFfvESB_NS8_9null_typeEEEEET_NS_11enable_if_cIXsrNS_11type_traits7ice_notIXsrNS_11is_integralISG_EE5valueEEE5valueEiE4typeE @1315
    _ZN5boost9function1IiP9lua_StateSaINS_13function_baseEEEC1IN7luabind6detail14mem_fn_matcherIMN6Hinage7DisplayEFvdESB_NS8_9null_typeEEEEET_NS_11enable_if_cIXsrNS_11type_traits7ice_notIXsrNS_11is_integralISG_EE5valueEEE5valueEiE4typeE @1316
    _ZN5boost9function1IiP9lua_StateSaINS_13function_baseEEEC1IN7luabind6detail14mem_fn_matcherIMN6Hinage7DisplayEFvffESB_NS8_9null_typeEEEEET_NS_11enable_if_cIXsrNS_11type_traits7ice_notIXsrNS_11is_integralISG_EE5valueEEE5valueEiE4typeE @1317
    _ZN5boost9function1IiP9lua_StateSaINS_13function_baseEEEC1IN7luabind6detail14mem_fn_matcherIMN6Hinage7Vector2IdEEFvdESC_NS8_9null_typeEEEEET_NS_11enable_if_cIXsrNS_11type_traits7ice_notIXsrNS_11is_integralISH_EE5valueEEE5valueEiE4typeE @1318
    _ZN5boost9function1IiP9lua_StateSaINS_13function_baseEEEC1IN7luabind6detail14mem_fn_matcherIMN6Hinage7Vector2IdEEFvddESC_NS8_9null_typeEEEEET_NS_11enable_if_cIXsrNS_11type_traits7ice_notIXsrNS_11is_integralISH_EE5valueEEE5valueEiE4typeE @1319
    _ZN5boost9function1IiP9lua_StateSaINS_13function_baseEEEC1IN7luabind6detail14mem_fn_matcherIMN6Hinage7Vector2IdEEKFdvESC_NS8_9null_typeEEEEET_NS_11enable_if_cIXsrNS_11type_traits7ice_notIXsrNS_11is_integralISH_EE5valueEEE5valueEiE4typeE @1320
    _ZN5boost9function1IiP9lua_StateSaINS_13function_baseEEEC1IN7luabind6detail15mem_fn_callbackIM12AudioManagerFvSsESA_NS8_9null_typeEEEEET_NS_11enable_if_cIXsrNS_11type_traits7ice_notIXsrNS_11is_integralISF_EE5valueEEE5valueEiE4typeE @1321
    _ZN5boost9function1IiP9lua_StateSaINS_13function_baseEEEC1IN7luabind6detail15mem_fn_callbackIM12AudioManagerFvSsbESA_NS8_9null_typeEEEEET_NS_11enable_if_cIXsrNS_11type_traits7ice_notIXsrNS_11is_integralISF_EE5valueEEE5valueEiE4typeE @1322
    _ZN5boost9function1IiP9lua_StateSaINS_13function_baseEEEC1IN7luabind6detail15mem_fn_callbackIM12AudioManagerFvvESA_NS8_9null_typeEEEEET_NS_11enable_if_cIXsrNS_11type_traits7ice_notIXsrNS_11is_integralISF_EE5valueEEE5valueEiE4typeE @1323
    _ZN5boost9function1IiP9lua_StateSaINS_13function_baseEEEC1IN7luabind6detail15mem_fn_callbackIMN6Hinage12InputManagerEFbiESB_NS8_9null_typeEEEEET_NS_11enable_if_cIXsrNS_11type_traits7ice_notIXsrNS_11is_integralISG_EE5valueEEE5valueEiE4typeE @1324
    _ZN5boost9function1IiP9lua_StateSaINS_13function_baseEEEC1IN7luabind6detail15mem_fn_callbackIMN6Hinage14PhysicalEntityEFSsvESB_NS8_9null_typeEEEEET_NS_11enable_if_cIXsrNS_11type_traits7ice_notIXsrNS_11is_integralISG_EE5valueEEE5valueEiE4typeE @1325
    _ZN5boost9function1IiP9lua_StateSaINS_13function_baseEEEC1IN7luabind6detail15mem_fn_callbackIMN6Hinage14PhysicalEntityEFbSsbdESB_NS8_9null_typeEEEEET_NS_11enable_if_cIXsrNS_11type_traits7ice_notIXsrNS_11is_integralISG_EE5valueEEE5valueEiE4typeE @1326
    _ZN5boost9function1IiP9lua_StateSaINS_13function_baseEEEC1IN7luabind6detail15mem_fn_callbackIMN6Hinage14PhysicalEntityEFdvESB_NS8_9null_typeEEEEET_NS_11enable_if_cIXsrNS_11type_traits7ice_notIXsrNS_11is_integralISG_EE5valueEEE5valueEiE4typeE @1327
    _ZN5boost9function1IiP9lua_StateSaINS_13function_baseEEEC1IN7luabind6detail15mem_fn_callbackIMN6Hinage14PhysicalEntityEFivESB_NS8_9null_typeEEEEET_NS_11enable_if_cIXsrNS_11type_traits7ice_notIXsrNS_11is_integralISG_EE5valueEEE5valueEiE4typeE @1328
    _ZN5boost9function1IiP9lua_StateSaINS_13function_baseEEEC1IN7luabind6detail15mem_fn_callbackIMN6Hinage14PhysicalEntityEFvbESB_NS8_9null_typeEEEEET_NS_11enable_if_cIXsrNS_11type_traits7ice_notIXsrNS_11is_integralISG_EE5valueEEE5valueEiE4typeE @1329
    _ZN5boost9function1IiP9lua_StateSaINS_13function_baseEEEC1IN7luabind6detail15mem_fn_callbackIMN6Hinage14PhysicalEntityEFvdESB_NS8_9null_typeEEEEET_NS_11enable_if_cIXsrNS_11type_traits7ice_notIXsrNS_11is_integralISG_EE5valueEEE5valueEiE4typeE @1330
    _ZN5boost9function1IiP9lua_StateSaINS_13function_baseEEEC1IN7luabind6detail15mem_fn_callbackIMN6Hinage14PhysicalEntityEFvddESB_NS8_9null_typeEEEEET_NS_11enable_if_cIXsrNS_11type_traits7ice_notIXsrNS_11is_integralISG_EE5valueEEE5valueEiE4typeE @1331
    _ZN5boost9function1IiP9lua_StateSaINS_13function_baseEEEC1IN7luabind6detail15mem_fn_callbackIMN6Hinage14PhysicalEntityEFvdddESB_NS8_9null_typeEEEEET_NS_11enable_if_cIXsrNS_11type_traits7ice_notIXsrNS_11is_integralISG_EE5valueEEE5valueEiE4typeE @1332
    _ZN5boost9function1IiP9lua_StateSaINS_13function_baseEEEC1IN7luabind6detail15mem_fn_callbackIMN6Hinage3MapEFRNSA_14PhysicalEntityESsddESB_NS8_9null_typeEEEEET_NS_11enable_if_cIXsrNS_11type_traits7ice_notIXsrNS_11is_integralISI_EE5valueEEE5valueEiE4typeE @1333
    _ZN5boost9function1IiP9lua_StateSaINS_13function_baseEEEC1IN7luabind6detail15mem_fn_callbackIMN6Hinage3MapEFRNSA_14PhysicalEntityEiESB_NS8_9null_typeEEEEET_NS_11enable_if_cIXsrNS_11type_traits7ice_notIXsrNS_11is_integralISI_EE5valueEEE5valueEiE4typeE @1334
    _ZN5boost9function1IiP9lua_StateSaINS_13function_baseEEEC1IN7luabind6detail15mem_fn_callbackIMN6Hinage3MapEFivESB_NS8_9null_typeEEEEET_NS_11enable_if_cIXsrNS_11type_traits7ice_notIXsrNS_11is_integralISG_EE5valueEEE5valueEiE4typeE @1335
    _ZN5boost9function1IiP9lua_StateSaINS_13function_baseEEEC1IN7luabind6detail15mem_fn_callbackIMN6Hinage3MapEFvSsESB_NS8_9null_typeEEEEET_NS_11enable_if_cIXsrNS_11type_traits7ice_notIXsrNS_11is_integralISG_EE5valueEEE5valueEiE4typeE @1336
    _ZN5boost9function1IiP9lua_StateSaINS_13function_baseEEEC1IN7luabind6detail15mem_fn_callbackIMN6Hinage3MapEFvSsbESB_NS8_9null_typeEEEEET_NS_11enable_if_cIXsrNS_11type_traits7ice_notIXsrNS_11is_integralISG_EE5valueEEE5valueEiE4typeE @1337
    _ZN5boost9function1IiP9lua_StateSaINS_13function_baseEEEC1IN7luabind6detail15mem_fn_callbackIMN6Hinage3MapEFviESB_NS8_9null_typeEEEEET_NS_11enable_if_cIXsrNS_11type_traits7ice_notIXsrNS_11is_integralISG_EE5valueEEE5valueEiE4typeE @1338
    _ZN5boost9function1IiP9lua_StateSaINS_13function_baseEEEC1IN7luabind6detail15mem_fn_callbackIMN6Hinage3MapEFvvESB_NS8_9null_typeEEEEET_NS_11enable_if_cIXsrNS_11type_traits7ice_notIXsrNS_11is_integralISG_EE5valueEEE5valueEiE4typeE @1339
    _ZN5boost9function1IiP9lua_StateSaINS_13function_baseEEEC1IN7luabind6detail15mem_fn_callbackIMN6Hinage3MapEKFivESB_NS8_9null_typeEEEEET_NS_11enable_if_cIXsrNS_11type_traits7ice_notIXsrNS_11is_integralISG_EE5valueEEE5valueEiE4typeE @1340
    _ZN5boost9function1IiP9lua_StateSaINS_13function_baseEEEC1IN7luabind6detail15mem_fn_callbackIMN6Hinage4GameEFRNSA_4FontESsESB_NS8_9null_typeEEEEET_NS_11enable_if_cIXsrNS_11type_traits7ice_notIXsrNS_11is_integralISI_EE5valueEEE5valueEiE4typeE @1341
    _ZN5boost9function1IiP9lua_StateSaINS_13function_baseEEEC1IN7luabind6detail15mem_fn_callbackIMN6Hinage4GameEFdvESB_NS8_9null_typeEEEEET_NS_11enable_if_cIXsrNS_11type_traits7ice_notIXsrNS_11is_integralISG_EE5valueEEE5valueEiE4typeE @1342
    _ZN5boost9function1IiP9lua_StateSaINS_13function_baseEEEC1IN7luabind6detail15mem_fn_callbackIMN6Hinage4GameEFvRNSA_4FontESsddddESB_NS8_9null_typeEEEEET_NS_11enable_if_cIXsrNS_11type_traits7ice_notIXsrNS_11is_integralISI_EE5valueEEE5valueEiE4typeE @1343
    _ZN5boost9function1IiP9lua_StateSaINS_13function_baseEEEC1IN7luabind6detail15mem_fn_callbackIMN6Hinage4GameEFvdESB_NS8_9null_typeEEEEET_NS_11enable_if_cIXsrNS_11type_traits7ice_notIXsrNS_11is_integralISG_EE5valueEEE5valueEiE4typeE @1344
    _ZN5boost9function1IiP9lua_StateSaINS_13function_baseEEEC1IN7luabind6detail15mem_fn_callbackIMN6Hinage4GameEFvvESB_NS8_9null_typeEEEEET_NS_11enable_if_cIXsrNS_11type_traits7ice_notIXsrNS_11is_integralISG_EE5valueEEE5valueEiE4typeE @1345
    _ZN5boost9function1IiP9lua_StateSaINS_13function_baseEEEC1IN7luabind6detail15mem_fn_callbackIMN6Hinage5TimerEFbdESB_NS8_9null_typeEEEEET_NS_11enable_if_cIXsrNS_11type_traits7ice_notIXsrNS_11is_integralISG_EE5valueEEE5valueEiE4typeE @1346
    _ZN5boost9function1IiP9lua_StateSaINS_13function_baseEEEC1IN7luabind6detail15mem_fn_callbackIMN6Hinage5TimerEFdvESB_NS8_9null_typeEEEEET_NS_11enable_if_cIXsrNS_11type_traits7ice_notIXsrNS_11is_integralISG_EE5valueEEE5valueEiE4typeE @1347
    _ZN5boost9function1IiP9lua_StateSaINS_13function_baseEEEC1IN7luabind6detail15mem_fn_callbackIMN6Hinage5TimerEFvvESB_NS8_9null_typeEEEEET_NS_11enable_if_cIXsrNS_11type_traits7ice_notIXsrNS_11is_integralISG_EE5valueEEE5valueEiE4typeE @1348
    _ZN5boost9function1IiP9lua_StateSaINS_13function_baseEEEC1IN7luabind6detail15mem_fn_callbackIMN6Hinage7DisplayEFdvESB_NS8_9null_typeEEEEET_NS_11enable_if_cIXsrNS_11type_traits7ice_notIXsrNS_11is_integralISG_EE5valueEEE5valueEiE4typeE @1349
    _ZN5boost9function1IiP9lua_StateSaINS_13function_baseEEEC1IN7luabind6detail15mem_fn_callbackIMN6Hinage7DisplayEFfvESB_NS8_9null_typeEEEEET_NS_11enable_if_cIXsrNS_11type_traits7ice_notIXsrNS_11is_integralISG_EE5valueEEE5valueEiE4typeE @1350
    _ZN5boost9function1IiP9lua_StateSaINS_13function_baseEEEC1IN7luabind6detail15mem_fn_callbackIMN6Hinage7DisplayEFvdESB_NS8_9null_typeEEEEET_NS_11enable_if_cIXsrNS_11type_traits7ice_notIXsrNS_11is_integralISG_EE5valueEEE5valueEiE4typeE @1351
    _ZN5boost9function1IiP9lua_StateSaINS_13function_baseEEEC1IN7luabind6detail15mem_fn_callbackIMN6Hinage7DisplayEFvffESB_NS8_9null_typeEEEEET_NS_11enable_if_cIXsrNS_11type_traits7ice_notIXsrNS_11is_integralISG_EE5valueEEE5valueEiE4typeE @1352
    _ZN5boost9function1IiP9lua_StateSaINS_13function_baseEEEC1IN7luabind6detail15mem_fn_callbackIMN6Hinage7Vector2IdEEFvdESC_NS8_9null_typeEEEEET_NS_11enable_if_cIXsrNS_11type_traits7ice_notIXsrNS_11is_integralISH_EE5valueEEE5valueEiE4typeE @1353
    _ZN5boost9function1IiP9lua_StateSaINS_13function_baseEEEC1IN7luabind6detail15mem_fn_callbackIMN6Hinage7Vector2IdEEFvddESC_NS8_9null_typeEEEEET_NS_11enable_if_cIXsrNS_11type_traits7ice_notIXsrNS_11is_integralISH_EE5valueEEE5valueEiE4typeE @1354
    _ZN5boost9function1IiP9lua_StateSaINS_13function_baseEEEC1IN7luabind6detail15mem_fn_callbackIMN6Hinage7Vector2IdEEKFdvESC_NS8_9null_typeEEEEET_NS_11enable_if_cIXsrNS_11type_traits7ice_notIXsrNS_11is_integralISH_EE5valueEEE5valueEiE4typeE @1355
    _ZN5boost9function1IiP9lua_StateSaINS_13function_baseEEEC1IPFiS2_EEET_NS_11enable_if_cIXsrNS_11type_traits7ice_notIXsrNS_11is_integralIS9_EE5valueEEE5valueEiE4typeE @1356
    _ZN5boost9function1IiP9lua_StateSaINS_13function_baseEEED1Ev @1357
    _ZN5boost9function1IiP9lua_StateSaINS_13function_baseEEEaSERKS5_ @1358
    _ZN5boost9function2IiP9lua_StateiSaINS_13function_baseEEE5clearEv @1359
    _ZN5boost9function2IiP9lua_StateiSaINS_13function_baseEEE9assign_toINS_3_bi6bind_tIiN7luabind6detail8auto_getIN6Hinage14PhysicalEntityEbNSA_9null_typeEEENS7_5list3IPFNS_3argILi1EEEvEPFNSH_ILi2EEEvENS7_5valueIMSD_bEEEEEEEEvT_ @1360
    _ZN5boost9function2IiP9lua_StateiSaINS_13function_baseEEEC1INS_3_bi6bind_tIiN7luabind6detail8auto_getIN6Hinage14PhysicalEntityEbNSA_9null_typeEEENS7_5list3IPFNS_3argILi1EEEvEPFNSH_ILi2EEEvENS7_5valueIMSD_bEEEEEEEET_NS_11enable_if_cIXsrNS_11type_traits7ice_notIXsrNS_11is_integralIST_EE5valueEEE5valueEiE4typeE @1361
    _ZN5boost9function2IiP9lua_StateiSaINS_13function_baseEEED1Ev @1362
    _ZN5boosteqINS_10filesystem6detail11dir_itr_impINS1_10basic_pathISsNS1_11path_traitsEEEEES7_EEbRKNS_10shared_ptrIT_EERKNS8_IT0_EE @1363
    _ZN5boostneINS_10filesystem24basic_directory_iteratorINS1_10basic_pathISsNS1_11path_traitsEEEEENS1_21basic_directory_entryIS5_EENS_25single_pass_traversal_tagERS8_iS6_S8_S9_SA_iEENS_6detail23enable_if_interoperableIT_T4_NS_3mpl6apply2INSB_12always_bool2ESD_SE_E4typeEE4typeERKNS_15iterator_facadeISD_T0_T1_T2_T3_EERKNSM_ISE_T5_T6_T7_T8_EE @1364
    _ZN5boostppINS_10filesystem24basic_directory_iteratorINS1_10basic_pathISsNS1_11path_traitsEEEEENS1_21basic_directory_entryIS5_EENS_25single_pass_traversal_tagERS8_iEENS_6detail24postfix_increment_resultIT_T0_T2_T1_E4typeERNS_15iterator_facadeISD_SE_SG_SF_T3_EEi @1365
    _ZN6Hinage10EntityBaseC2Ev @1366
    _ZN6Hinage10EntityBaseD0Ev @1367
    _ZN6Hinage10EntityBaseD1Ev @1368
    _ZN6Hinage10EntityBaseD2Ev @1369
    _ZN6Hinage11FontFactory10createFontESsPNS_4GameE @1370
    _ZN6Hinage11FontFactoryC1Ev @1371
    _ZN6Hinage11FontFactoryC2Ev @1372
    _ZN6Hinage11FontFactoryD1Ev @1373
    _ZN6Hinage11FontFactoryD2Ev @1374
    _ZN6Hinage11FontManager12loadResourceEPKc @1375
    _ZN6Hinage11FontManagerC1Ev @1376
    _ZN6Hinage11FontManagerD1Ev @1377
    _ZN6Hinage11IOExceptionC1ESsbRSo @1378
    _ZN6Hinage11IOExceptionC2ESsbRSo @1379
    _ZN6Hinage11IOExceptionD0Ev @1380
    _ZN6Hinage11IOExceptionD1Ev @1381
    _ZN6Hinage12InputManager10initializeEv @1382
    _ZN6Hinage12InputManager15mouseButtonDownEPNS_7Vector2IdEE @1383
    _ZN6Hinage12InputManager15mouseButtonDownEiPNS_7Vector2IdEE @1384
    _ZN6Hinage12InputManager16getMousePositionEv @1385
    _ZN6Hinage12InputManager7keyDownEi @1386
    _ZN6Hinage12InputManagerC1Ev @1387
    _ZN6Hinage12InputManagerC2Ev @1388
    _ZN6Hinage13EntityFactory12createObjectESsPNS_4GameE @1389
    _ZN6Hinage13EntityFactoryC1ERS0_ @1390
    _ZN6Hinage13EntityFactoryC1Ev @1391
    _ZN6Hinage13EntityFactoryC2ERS0_ @1392
    _ZN6Hinage13EntityFactoryC2Ev @1393
    _ZN6Hinage13EntityFactoryD1Ev @1394
    _ZN6Hinage13EntityFactoryD2Ev @1395
    _ZN6Hinage13EntityFactoryaSERKS0_ @1396
    _ZN6Hinage13MovableEntityC2Ev @1397
    _ZN6Hinage13MovableEntityD0Ev @1398
    _ZN6Hinage13MovableEntityD1Ev @1399
    _ZN6Hinage13MovableEntityD2Ev @1400
    _ZN6Hinage13SpriteManager12loadResourceEPKc @1401
    _ZN6Hinage13SpriteManagerC1Ev @1402
    _ZN6Hinage13SpriteManagerD1Ev @1403
    _ZN6Hinage14FatalExceptionC1ESsbRSo @1404
    _ZN6Hinage14FatalExceptionC2ESsbRSo @1405
    _ZN6Hinage14FatalExceptionD0Ev @1406
    _ZN6Hinage14FatalExceptionD1Ev @1407
    _ZN6Hinage14ParticleSystem10setTextureEPNS_7TextureE @1408
    _ZN6Hinage14ParticleSystem11addParticleERNS_18ParticleCreateDataE @1409
    _ZN6Hinage14ParticleSystem6renderERNS_8RendererENS1_7ObjectZE @1410
    _ZN6Hinage14ParticleSystem6updateEd @1411
    _ZN6Hinage14ParticleSystemC1EPNS_7TextureE @1412
    _ZN6Hinage14ParticleSystemC1Ev @1413
    _ZN6Hinage14ParticleSystemC2EPNS_7TextureE @1414
    _ZN6Hinage14ParticleSystemC2Ev @1415
    _ZN6Hinage14PhysicalEntity11accellerateEdNS_7Vector2IdEE @1416
    _ZN6Hinage14PhysicalEntity11accellerateEddd @1417
    _ZN6Hinage14PhysicalEntity11setMaxSpeedEd @1418
    _ZN6Hinage14PhysicalEntity11setPositionENS_7Vector2IdEE @1419
    _ZN6Hinage14PhysicalEntity11setPositionEdd @1420
    _ZN6Hinage14PhysicalEntity11setVelocityENS_7Vector2IdEE @1421
    _ZN6Hinage14PhysicalEntity11setVelocityEdd @1422
    _ZN6Hinage14PhysicalEntity11willCollideERS0_dRNS_7Vector2IdEES4_ @1423
    _ZN6Hinage14PhysicalEntity12getHitboxTopEv @1424
    _ZN6Hinage14PhysicalEntity12getXVelocityEv @1425
    _ZN6Hinage14PhysicalEntity12getYVelocityEv @1426
    _ZN6Hinage14PhysicalEntity12setCollisionEb @1427
    _ZN6Hinage14PhysicalEntity12setXVelocityEd @1428
    _ZN6Hinage14PhysicalEntity12setYVelocityEd @1429
    _ZN6Hinage14PhysicalEntity13getHitboxLeftEv @1430
    _ZN6Hinage14PhysicalEntity13playAnimationESsbd @1431
    _ZN6Hinage14PhysicalEntity14createFromFileESsPNS_6SpriteE @1432
    _ZN6Hinage14PhysicalEntity14getHitboxRightEv @1433
    _ZN6Hinage14PhysicalEntity15getHitboxBottomEv @1434
    _ZN6Hinage14PhysicalEntity17TileCollisionDataC1ENS_7Vector2IiEENS2_IdEE @1435
    _ZN6Hinage14PhysicalEntity17TileCollisionDataaSERKS1_ @1436
    _ZN6Hinage14PhysicalEntity18setDestructionFlagEb @1437
    _ZN6Hinage14PhysicalEntity18willCollideWithMapERNS_7TilemapEd @1438
    _ZN6Hinage14PhysicalEntity4getXEv @1439
    _ZN6Hinage14PhysicalEntity4getYEv @1440
    _ZN6Hinage14PhysicalEntity4setXEd @1441
    _ZN6Hinage14PhysicalEntity4setYEd @1442
    _ZN6Hinage14PhysicalEntity5flipxEb @1443
    _ZN6Hinage14PhysicalEntity5flipyEb @1444
    _ZN6Hinage14PhysicalEntity6renderERNS_8RendererENS1_7ObjectZE @1445
    _ZN6Hinage14PhysicalEntity6updateEd @1446
    _ZN6Hinage14PhysicalEntity7getNameEv @1447
    _ZN6Hinage14PhysicalEntity7getTypeEv @1448
    _ZN6Hinage14PhysicalEntity8getSpeedEv @1449
    _ZN6Hinage14PhysicalEntity9setSpriteEPNS_6SpriteE @1450
    _ZN6Hinage14PhysicalEntityC1Ev @1451
    _ZN6Hinage14PhysicalEntityC2Ev @1452
    _ZN6Hinage14PhysicalEntityD0Ev @1453
    _ZN6Hinage14PhysicalEntityD1Ev @1454
    _ZN6Hinage14PhysicalEntityD2Ev @1455
    _ZN6Hinage14TextureManager12loadResourceEPKc @1456
    _ZN6Hinage14TextureManagerC1Ev @1457
    _ZN6Hinage14TextureManagerD1Ev @1458
    _ZN6Hinage14TilesetManager12loadResourceEPKc @1459
    _ZN6Hinage14TilesetManagerC1Ev @1460
    _ZN6Hinage14TilesetManagerD1Ev @1461
    _ZN6Hinage15ResourceManagerINS_4FontEE17findResourceIndexEPKc @1462
    _ZN6Hinage15ResourceManagerINS_4FontEE18requestResourcePtrEPKc @1463
    _ZN6Hinage15ResourceManagerINS_4FontEE4loadEPKcS4_ @1464
    _ZN6Hinage15ResourceManagerINS_4FontEE8ResourceC1Ev @1465
    _ZN6Hinage15ResourceManagerINS_4FontEE8ResourceD1Ev @1466
    _ZN6Hinage15ResourceManagerINS_4FontEEC2Ev @1467
    _ZN6Hinage15ResourceManagerINS_4FontEED0Ev @1468
    _ZN6Hinage15ResourceManagerINS_4FontEED1Ev @1469
    _ZN6Hinage15ResourceManagerINS_4FontEED2Ev @1470
    _ZN6Hinage15ResourceManagerINS_6SpriteEE17findResourceIndexEPKc @1471
    _ZN6Hinage15ResourceManagerINS_6SpriteEE19requestResourceCopyEPKc @1472
    _ZN6Hinage15ResourceManagerINS_6SpriteEE4loadEPKcS4_ @1473
    _ZN6Hinage15ResourceManagerINS_6SpriteEE8ResourceC1Ev @1474
    _ZN6Hinage15ResourceManagerINS_6SpriteEE8ResourceD1Ev @1475
    _ZN6Hinage15ResourceManagerINS_6SpriteEE8ResourceaSERKS3_ @1476
    _ZN6Hinage15ResourceManagerINS_6SpriteEEC2Ev @1477
    _ZN6Hinage15ResourceManagerINS_6SpriteEED0Ev @1478
    _ZN6Hinage15ResourceManagerINS_6SpriteEED1Ev @1479
    _ZN6Hinage15ResourceManagerINS_6SpriteEED2Ev @1480
    _ZN6Hinage15ResourceManagerINS_7TextureEE17findResourceIndexEPKc @1481
    _ZN6Hinage15ResourceManagerINS_7TextureEE18requestResourcePtrEPKc @1482
    _ZN6Hinage15ResourceManagerINS_7TextureEE4loadEPKcS4_ @1483
    _ZN6Hinage15ResourceManagerINS_7TextureEE8ResourceC1Ev @1484
    _ZN6Hinage15ResourceManagerINS_7TextureEE8ResourceD1Ev @1485
    _ZN6Hinage15ResourceManagerINS_7TextureEEC2Ev @1486
    _ZN6Hinage15ResourceManagerINS_7TextureEED0Ev @1487
    _ZN6Hinage15ResourceManagerINS_7TextureEED1Ev @1488
    _ZN6Hinage15ResourceManagerINS_7TextureEED2Ev @1489
    _ZN6Hinage15ResourceManagerINS_7TilesetEE17findResourceIndexEPKc @1490
    _ZN6Hinage15ResourceManagerINS_7TilesetEE18requestResourcePtrEPKc @1491
    _ZN6Hinage15ResourceManagerINS_7TilesetEE4loadEPKcS4_ @1492
    _ZN6Hinage15ResourceManagerINS_7TilesetEE8ResourceC1Ev @1493
    _ZN6Hinage15ResourceManagerINS_7TilesetEE8ResourceD1Ev @1494
    _ZN6Hinage15ResourceManagerINS_7TilesetEEC2Ev @1495
    _ZN6Hinage15ResourceManagerINS_7TilesetEED0Ev @1496
    _ZN6Hinage15ResourceManagerINS_7TilesetEED1Ev @1497
    _ZN6Hinage15ResourceManagerINS_7TilesetEED2Ev @1498
    _ZN6Hinage15SpriteAnimation12runAnimationEd @1499
    _ZN6Hinage15SpriteAnimation15getCurrentFrameEv @1500
    _ZN6Hinage15SpriteAnimation5FrameC1Ev @1501
    _ZN6Hinage15SpriteAnimation5resetEv @1502
    _ZN6Hinage15SpriteAnimation7getNameEv @1503
    _ZN6Hinage15SpriteAnimation7setNameESs @1504
    _ZN6Hinage15SpriteAnimation8addFrameEiidjNS_4RectE @1505
    _ZN6Hinage15SpriteAnimationC1Ev @1506
    _ZN6Hinage15SpriteAnimationC2Ev @1507
    _ZN6Hinage15SpriteAnimationD1Ev @1508
    _ZN6Hinage15SpriteAnimationD2Ev @1509
    _ZN6Hinage15SpriteAnimationaSERKS0_ @1510
    _ZN6Hinage16RenderableEntityC2Ev @1511
    _ZN6Hinage16RenderableEntityD0Ev @1512
    _ZN6Hinage16RenderableEntityD1Ev @1513
    _ZN6Hinage16RenderableEntityD2Ev @1514
    _ZN6Hinage3Map10MAPVERSIONE @1515 DATA
    _ZN6Hinage3Map10saveToFileESs @1516
    _ZN6Hinage3Map10setTilesetESs @1517
    _ZN6Hinage3Map11createEmptyEiiii @1518
    _ZN6Hinage3Map11getObjectAtEdd @1519
    _ZN6Hinage3Map11sortObjectsERKSt6vectorIPNS_14PhysicalEntityESaIS3_EE @1520
    _ZN6Hinage3Map12createObjectESsdd @1521
    _ZN6Hinage3Map12createObjectESsddb @1522
    _ZN6Hinage3Map12deleteObjectEi @1523
    _ZN6Hinage3Map13getLayerCountEv @1524
    _ZN6Hinage3Map13setBackgroundESs @1525
    _ZN6Hinage3Map14createFromFileESs @1526
    _ZN6Hinage3Map14createFromFileESsb @1527
    _ZN6Hinage3Map14deleteObjectAtEdd @1528
    _ZN6Hinage3Map14getTilesetNameEv @1529
    _ZN6Hinage3Map6renderEv @1530
    _ZN6Hinage3Map6updateEd @1531
    _ZN6Hinage3Map7destroyEv @1532
    _ZN6Hinage3Map7setFlagESsb @1533
    _ZN6Hinage3Map7setTileEiiii @1534
    _ZN6Hinage3Map8getWidthEv @1535
    _ZN6Hinage3Map9getHeightEv @1536
    _ZN6Hinage3Map9getObjectEi @1537
    _ZN6Hinage3Map9setTileAtEddii @1538
    _ZN6Hinage3MapC1ERNS_4GameE @1539
    _ZN6Hinage3MapC2ERNS_4GameE @1540
    _ZN6Hinage3MapD1Ev @1541
    _ZN6Hinage3MapD2Ev @1542
    _ZN6Hinage4Font10renderTextERNS_8RendererESsNS_7Vector2IdEEff @1543
    _ZN6Hinage4Font12destroyTableEv @1544
    _ZN6Hinage4Font12getTableColsEv @1545
    _ZN6Hinage4Font12getTableRowsEv @1546
    _ZN6Hinage4Font17getCharacterTableEv @1547
    _ZN6Hinage4Font17setCharacterTableEPPcii @1548
    _ZN6Hinage4Font19getIndexOfCharacterEcRiS1_ @1549
    _ZN6Hinage4Font6createEPNS_7TextureEii @1550
    _ZN6Hinage4FontC1Ev @1551
    _ZN6Hinage4FontC2Ev @1552
    _ZN6Hinage4FontD1Ev @1553
    _ZN6Hinage4FontD2Ev @1554
    _ZN6Hinage4Game10createFontESs @1555
    _ZN6Hinage4Game10getDisplayEv @1556
    _ZN6Hinage4Game10initializeEiib @1557
    _ZN6Hinage4Game12setGameStateEPNS_9GameStateE @1558
    _ZN6Hinage4Game13getObjectFileESs @1559
    _ZN6Hinage4Game13getObjectListEv @1560
    _ZN6Hinage4Game13getTimeFactorEv @1561
    _ZN6Hinage4Game13loadResourcesESsNS_16ResourceTypeEnumE @1562
    _ZN6Hinage4Game13setTimeFactorEd @1563
    _ZN6Hinage4Game14getFontManagerEv @1564
    _ZN6Hinage4Game15getAudioManagerEv @1565
    _ZN6Hinage4Game15getInputManagerEv @1566
    _ZN6Hinage4Game15getObjectSpriteESs @1567
    _ZN6Hinage4Game16getSpriteManagerEv @1568
    _ZN6Hinage4Game17getTextureManagerEv @1569
    _ZN6Hinage4Game17getTilesetManagerEv @1570
    _ZN6Hinage4Game3runEdb @1571
    _ZN6Hinage4Game4stopEv @1572
    _ZN6Hinage4Game8popStateEv @1573
    _ZN6Hinage4Game8shutdownEv @1574
    _ZN6Hinage4Game9isRunningEv @1575
    _ZN6Hinage4Game9printTextERNS_4FontESsdddd @1576
    _ZN6Hinage4Game9pushStateEPNS_9GameStateE @1577
    _ZN6Hinage4GameC1Ev @1578
    _ZN6Hinage4GameC2Ev @1579
    _ZN6Hinage4GameD0Ev @1580
    _ZN6Hinage4GameD1Ev @1581
    _ZN6Hinage4GameD2Ev @1582
    _ZN6Hinage4RectC1Edddd @1583
    _ZN6Hinage4RectC1Ev @1584
    _ZN6Hinage5LuaVM10initializeEv @1585
    _ZN6Hinage5LuaVM10loadScriptESsSs @1586
    _ZN6Hinage5LuaVM11executeLineESs @1587
    _ZN6Hinage5LuaVM5getVmEv @1588
    _ZN6Hinage5LuaVM7runFileESs @1589
    _ZN6Hinage5LuaVM9runScriptESs @1590
    _ZN6Hinage5LuaVMC1ERS0_ @1591
    _ZN6Hinage5LuaVMC1Ev @1592
    _ZN6Hinage5LuaVMC2ERS0_ @1593
    _ZN6Hinage5LuaVMC2Ev @1594
    _ZN6Hinage5LuaVMD1Ev @1595
    _ZN6Hinage5LuaVMD2Ev @1596
    _ZN6Hinage5Timer10hasReachedEd @1597
    _ZN6Hinage5Timer16getPrecisionTimeEv @1598
    _ZN6Hinage5Timer4stopEv @1599
    _ZN6Hinage5Timer5resetEv @1600
    _ZN6Hinage5Timer5startEv @1601
    _ZN6Hinage5Timer6updateEv @1602
    _ZN6Hinage5Timer7getTimeEv @1603
    _ZN6Hinage5Timer7setTimeEd @1604
    _ZN6Hinage5TimerC1Eb @1605
    _ZN6Hinage5TimerC1Ev @1606
    _ZN6Hinage5TimerC2Eb @1607
    _ZN6Hinage5TimerC2Ev @1608
    _ZN6Hinage6Sprite11setPositionEff @1609
    _ZN6Hinage6Sprite12addAnimationEPKc @1610
    _ZN6Hinage6Sprite13playAnimationEPKcbd @1611
    _ZN6Hinage6Sprite15updateAnimationEd @1612
    _ZN6Hinage6Sprite16getAnimationNameEj @1613
    _ZN6Hinage6Sprite6createEPNS_7TextureEii @1614
    _ZN6Hinage6Sprite6renderERNS_8RendererENS1_7ObjectZEfbbf @1615
    _ZN6Hinage6Sprite8addFrameEjiidjNS_4RectE @1616
    _ZN6Hinage6SpriteC1ERKS0_ @1617
    _ZN6Hinage6SpriteC1Ev @1618
    _ZN6Hinage6SpriteC2Ev @1619
    _ZN6Hinage6SpriteD1Ev @1620
    _ZN6Hinage6SpriteD2Ev @1621
    _ZN6Hinage6SpriteaSES0_ @1622
    _ZN6Hinage6UIItem6renderEfffff @1623
    _ZN6Hinage6UIItemC1Ev @1624
    _ZN6Hinage6UIItemC2Ev @1625
    _ZN6Hinage6UIMenu10drawCursorEi @1626
    _ZN6Hinage6UIMenu6renderEf @1627
    _ZN6Hinage6UIMenuC1Ev @1628
    _ZN6Hinage6UIMenuC2Ev @1629
    _ZN6Hinage7Display10initializeEiib @1630
    _ZN6Hinage7Display11beginRenderEv @1631
    _ZN6Hinage7Display11getRendererEv @1632
    _ZN6Hinage7Display12getViewWidthEv @1633
    _ZN6Hinage7Display13getViewHeightEv @1634
    _ZN6Hinage7Display14getAspectRatioEv @1635
    _ZN6Hinage7Display14setCamPositionEff @1636
    _ZN6Hinage7Display16windowToViewportENS_7Vector2IdEE @1637
    _ZN6Hinage7Display19environmentToWindowENS_7Vector2IdEE @1638
    _ZN6Hinage7Display19windowToEnvironmentENS_7Vector2IdEE @1639
    _ZN6Hinage7Display6renderEv @1640
    _ZN6Hinage7Display6resizeEii @1641
    _ZN6Hinage7Display7getCamXEv @1642
    _ZN6Hinage7Display7getCamYEv @1643
    _ZN6Hinage7Display7getZoomEv @1644
    _ZN6Hinage7Display7setZoomEd @1645
    _ZN6Hinage7Display8setStateENS0_12DisplayStateEb @1646
    _ZN6Hinage7DisplayC1Ev @1647
    _ZN6Hinage7DisplayC2Ev @1648
    _ZN6Hinage7DisplayD1Ev @1649
    _ZN6Hinage7Texture11loadTextureEPKc @1650
    _ZN6Hinage7Texture12getTextureIDEv @1651
    _ZN6Hinage7Texture13createTextureEPKhssc @1652
    _ZN6Hinage7Texture6selectEv @1653
    _ZN6Hinage7Texture8getWidthEv @1654
    _ZN6Hinage7Texture9getHeightEv @1655
    _ZN6Hinage7TextureC1Ev @1656
    _ZN6Hinage7TextureD1Ev @1657
    _ZN6Hinage7TextureD2Ev @1658
    _ZN6Hinage7Tilemap10setTilesetEPNS_7TilesetE @1659
    _ZN6Hinage7Tilemap6renderERNS_8RendererEffffNS1_7ObjectZEi @1660
    _ZN6Hinage7Tilemap7destroyEv @1661
    _ZN6Hinage7Tilemap7setTileEjjjj @1662
    _ZN6Hinage7Tilemap8getWidthEv @1663
    _ZN6Hinage7Tilemap9createMapEiiii @1664
    _ZN6Hinage7Tilemap9getHeightEv @1665
    _ZN6Hinage7Tilemap9getLayersEv @1666
    _ZN6Hinage7Tilemap9importMapEPPPj @1667
    _ZN6Hinage7TilemapC1Eiiii @1668
    _ZN6Hinage7TilemapC1Ev @1669
    _ZN6Hinage7TilemapC2Eiiii @1670
    _ZN6Hinage7TilemapC2Ev @1671
    _ZN6Hinage7TilemapD1Ev @1672
    _ZN6Hinage7TilemapD2Ev @1673
    _ZN6Hinage7Tileset11updateTilesEv @1674
    _ZN6Hinage7Tileset18getTextureFileNameEi @1675
    _ZN6Hinage7Tileset7addTileEPNS_7TextureEiiiSs @1676
    _ZN6Hinage7TilesetC1Ev @1677
    _ZN6Hinage7TilesetC2Ev @1678
    _ZN6Hinage7TilesetD1Ev @1679
    _ZN6Hinage7TilesetD2Ev @1680
    _ZN6Hinage7Vector2IdE3addES1_ @1681
    _ZN6Hinage7Vector2IdE3setERKS1_ @1682
    _ZN6Hinage7Vector2IdE3setEdd @1683
    _ZN6Hinage7Vector2IdE4setXEd @1684
    _ZN6Hinage7Vector2IdE4setYEd @1685
    _ZN6Hinage7Vector2IdE5scaleEd @1686
    _ZN6Hinage7Vector2IdE6lengthEv @1687
    _ZN6Hinage7Vector2IdE8subtractES1_ @1688
    _ZN6Hinage7Vector2IdE9normalizeEv @1689
    _ZN6Hinage7Vector2IdEC1Edd @1690
    _ZN6Hinage7Vector2IdEC1Ev @1691
    _ZN6Hinage7Vector2IdEaSERKS1_ @1692
    _ZN6Hinage7Vector2IdEmIERKS1_ @1693
    _ZN6Hinage7Vector2IdEpLERKS1_ @1694
    _ZN6Hinage7Vector2IiE3setERKS1_ @1695
    _ZN6Hinage7Vector2IiE3setEii @1696
    _ZN6Hinage7Vector2IiEC1Eii @1697
    _ZN6Hinage7Vector2IiEC1Ev @1698
    _ZN6Hinage7Vector2IiEaSERKS1_ @1699
    _ZN6Hinage8MapState10initScriptEv @1700
    _ZN6Hinage8MapStateC1ERNS_4GameE @1701
    _ZN6Hinage8MapStateC2ERNS_4GameE @1702
    _ZN6Hinage8MapStateD0Ev @1703
    _ZN6Hinage8MapStateD1Ev @1704
    _ZN6Hinage8MapStateD2Ev @1705
    _ZN6Hinage8Particle6renderERNS_8RendererENS1_7ObjectZEPNS_7TextureE @1706
    _ZN6Hinage8Particle6updateEd @1707
    _ZN6Hinage8Particle7isAliveEv @1708
    _ZN6Hinage8ParticleC1ERNS_18ParticleCreateDataE @1709
    _ZN6Hinage8ParticleC2ERNS_18ParticleCreateDataE @1710
    _ZN6Hinage8Renderer11beginRenderENS0_7ObjectZEPNS_7TextureE @1711
    _ZN6Hinage8Renderer11clearBufferEv @1712
    _ZN6Hinage8Renderer12RenderObjectC1ENS0_7ObjectZEPNS_7TextureE @1713
    _ZN6Hinage8Renderer12RenderObjectC1ERKS1_ @1714
    _ZN6Hinage8Renderer12RenderObjectD1Ev @1715
    _ZN6Hinage8Renderer12RenderObjectaSERKS1_ @1716
    _ZN6Hinage8Renderer12renderBufferEv @1717
    _ZN6Hinage8Renderer6VertexC1Edddd @1718
    _ZN6Hinage8Renderer9addVertexEdddd @1719
    _ZN6Hinage8Renderer9endRenderEv @1720
    _ZN6Hinage8RendererC1Ev @1721
    _ZN6Hinage8RendererC2Ev @1722
    _ZN6Hinage8RendererD1Ev @1723
    _ZN6Hinage8RendererD2Ev @1724
    _ZN6Hinage8UIWindow6createEfffffhhhhhhhh @1725
    _ZN6Hinage8UIWindow6renderEv @1726
    _ZN6Hinage8UIWindowC1Ev @1727
    _ZN6Hinage8UIWindowC2Ev @1728
    _ZN6Hinage9Exception5printEv @1729
    _ZN6Hinage9ExceptionC1ESsbRSo @1730
    _ZN6Hinage9ExceptionC2ESsbRSo @1731
    _ZN6Hinage9ExceptionD0Ev @1732
    _ZN6Hinage9ExceptionD1Ev @1733
    _ZN6Hinage9ExceptionD2Ev @1734
    _ZN6Hinage9GameState11changeStateEPNS_4GameEPS0_ @1735
    _ZN6Hinage9GameState5pauseEv @1736
    _ZN6Hinage9GameState6resumeEv @1737
    _ZN6Hinage9GameStateC1ERNS_4GameE @1738
    _ZN6Hinage9GameStateC2ERNS_4GameE @1739
    _ZN6Hinage9GameStateD0Ev @1740
    _ZN6Hinage9GameStateD1Ev @1741
    _ZN6Hinage9GameStateD2Ev @1742
    _ZN6HinagelsERSoRKNS_4RectE @1743
    _ZN6HinageplESsd @1744
    _ZN6HinageplESsi @1745
    _ZN6HinageplESsj @1746
    _ZN7luabind103_GLOBAL__N_G__Misc_Programmering_codeblocks_workspace_gameproject_engine_game_map.cpp_3F6EE7DC_C960923B12pure_virtualE @1747 DATA
    _ZN7luabind103_GLOBAL__N_G__Misc_Programmering_codeblocks_workspace_gameproject_engine_game_map.cpp_3F6EE7DC_C960923B5yieldE @1748 DATA
    _ZN7luabind105_GLOBAL__N_G__Misc_Programmering_codeblocks_workspace_gameproject_engine_script_lua.cpp_3F6EE7DC_E13851A712pure_virtualE @1749 DATA
    _ZN7luabind105_GLOBAL__N_G__Misc_Programmering_codeblocks_workspace_gameproject_engine_script_lua.cpp_3F6EE7DC_E13851A75yieldE @1750 DATA
    _ZN7luabind10from_stackC1EP9lua_Statei @1751
    _ZN7luabind112_GLOBAL__N_G__Misc_Programmering_codeblocks_workspace_gameproject_engine_com_objectfactory.cpp_3F6EE7DC_54230EEE12pure_virtualE @1752 DATA
    _ZN7luabind112_GLOBAL__N_G__Misc_Programmering_codeblocks_workspace_gameproject_engine_com_objectfactory.cpp_3F6EE7DC_54230EEE5yieldE @1753 DATA
    _ZN7luabind12value_vectorD0Ev @1754
    _ZN7luabind12value_vectorD1Ev @1755
    _ZN7luabind16get_const_holderEz @1756
    _ZN7luabind18get_back_referenceIN6Hinage14PhysicalEntityEEEbP9lua_StateRKT_ @1757
    _ZN7luabind18get_back_referenceIN6Hinage4FontEEEbP9lua_StateRKT_ @1758
    _ZN7luabind18get_back_referenceIP12AudioManagerEEbP9lua_StateRKT_ @1759
    _ZN7luabind18get_back_referenceIPN6Hinage12InputManagerEEEbP9lua_StateRKT_ @1760
    _ZN7luabind18get_back_referenceIPN6Hinage3MapEEEbP9lua_StateRKT_ @1761
    _ZN7luabind18get_back_referenceIPN6Hinage4GameEEEbP9lua_StateRKT_ @1762
    _ZN7luabind18get_back_referenceIPN6Hinage5TimerEEEbP9lua_StateRKT_ @1763
    _ZN7luabind18get_back_referenceIPN6Hinage7DisplayEEEbP9lua_StateRKT_ @1764
    _ZN7luabind20value_wrapper_traitsINS_3adl6objectEE6unwrapEP9lua_StateRKS2_ @1765
    _ZN7luabind3adl11index_proxyINS0_6objectEEC1IA10_cEERKS2_P9lua_StateRKT_ @1766
    _ZN7luabind3adl11index_proxyINS0_6objectEEC1IA4_cEERKS2_P9lua_StateRKT_ @1767
    _ZN7luabind3adl11index_proxyINS0_6objectEEC1IA5_cEERKS2_P9lua_StateRKT_ @1768
    _ZN7luabind3adl11index_proxyINS0_6objectEEC1IA6_cEERKS2_P9lua_StateRKT_ @1769
    _ZN7luabind3adl11index_proxyINS0_6objectEEC1IA7_cEERKS2_P9lua_StateRKT_ @1770
    _ZN7luabind3adl11index_proxyINS0_6objectEED1Ev @1771
    _ZN7luabind3adl11index_proxyINS0_6objectEEaSIP12AudioManagerEERS3_RKT_ @1772
    _ZN7luabind3adl11index_proxyINS0_6objectEEaSIPN6Hinage12InputManagerEEERS3_RKT_ @1773
    _ZN7luabind3adl11index_proxyINS0_6objectEEaSIPN6Hinage3MapEEERS3_RKT_ @1774
    _ZN7luabind3adl11index_proxyINS0_6objectEEaSIPN6Hinage4GameEEERS3_RKT_ @1775
    _ZN7luabind3adl11index_proxyINS0_6objectEEaSIPN6Hinage5TimerEEERS3_RKT_ @1776
    _ZN7luabind3adl11index_proxyINS0_6objectEEaSIPN6Hinage7DisplayEEERS3_RKT_ @1777
    _ZN7luabind3adl16object_interfaceINS0_11index_proxyINS0_6objectEEEEC2Ev @1778
    _ZN7luabind3adl16object_interfaceINS0_11index_proxyINS0_6objectEEEED2Ev @1779
    _ZN7luabind3adl16object_interfaceINS0_6objectEEC2Ev @1780
    _ZN7luabind3adl16object_interfaceINS0_6objectEED2Ev @1781
    _ZN7luabind3adl6objectC1ERKNS_10from_stackE @1782
    _ZN7luabind3adl6objectD1Ev @1783
    _ZN7luabind6class_I12AudioManagerNS_6detail11unspecifiedES3_S3_E11virtual_defIMS1_FvSsENS2_9null_typeEEERS4_PKcRKT_RKT0_S8_N4mpl_5bool_ILb1EEE @1784
    _ZN7luabind6class_I12AudioManagerNS_6detail11unspecifiedES3_S3_E11virtual_defIMS1_FvSsbENS2_9null_typeEEERS4_PKcRKT_RKT0_S8_N4mpl_5bool_ILb1EEE @1785
    _ZN7luabind6class_I12AudioManagerNS_6detail11unspecifiedES3_S3_E11virtual_defIMS1_FvvENS2_9null_typeEEERS4_PKcRKT_RKT0_S8_N4mpl_5bool_ILb1EEE @1786
    _ZN7luabind6class_I12AudioManagerNS_6detail11unspecifiedES3_S3_E13gen_base_infoENS2_5type_INS2_9null_typeEEE @1787
    _ZN7luabind6class_I12AudioManagerNS_6detail11unspecifiedES3_S3_E13get_adopt_funEPNS2_9null_typeE @1788
    _ZN7luabind6class_I12AudioManagerNS_6detail11unspecifiedES3_S3_E23generate_baseclass_listINS2_9null_typeES6_S6_S6_EEvNS2_5type_INS_5basesIT_T0_T1_T2_EEEE @1789
    _ZN7luabind6class_I12AudioManagerNS_6detail11unspecifiedES3_S3_E3defIMS1_FvSsEEERS4_PKcT_ @1790
    _ZN7luabind6class_I12AudioManagerNS_6detail11unspecifiedES3_S3_E3defIMS1_FvSsbEEERS4_PKcT_ @1791
    _ZN7luabind6class_I12AudioManagerNS_6detail11unspecifiedES3_S3_E3defIMS1_FvvEEERS4_PKcT_ @1792
    _ZN7luabind6class_I12AudioManagerNS_6detail11unspecifiedES3_S3_E4initEv @1793
    _ZN7luabind6class_I12AudioManagerNS_6detail11unspecifiedES3_S3_EC1EPKc @1794
    _ZN7luabind6class_I12AudioManagerNS_6detail11unspecifiedES3_S3_ED1Ev @1795
    _ZN7luabind6class_IN6Hinage12InputManagerENS_6detail11unspecifiedES4_S4_E11virtual_defIMS2_FbiENS3_9null_typeEEERS5_PKcRKT_RKT0_S9_N4mpl_5bool_ILb1EEE @1796
    _ZN7luabind6class_IN6Hinage12InputManagerENS_6detail11unspecifiedES4_S4_E13gen_base_infoENS3_5type_INS3_9null_typeEEE @1797
    _ZN7luabind6class_IN6Hinage12InputManagerENS_6detail11unspecifiedES4_S4_E13get_adopt_funEPNS3_9null_typeE @1798
    _ZN7luabind6class_IN6Hinage12InputManagerENS_6detail11unspecifiedES4_S4_E23generate_baseclass_listINS3_9null_typeES7_S7_S7_EEvNS3_5type_INS_5basesIT_T0_T1_T2_EEEE @1799
    _ZN7luabind6class_IN6Hinage12InputManagerENS_6detail11unspecifiedES4_S4_E3defIMS2_FbiEEERS5_PKcT_ @1800
    _ZN7luabind6class_IN6Hinage12InputManagerENS_6detail11unspecifiedES4_S4_E4initEv @1801
    _ZN7luabind6class_IN6Hinage12InputManagerENS_6detail11unspecifiedES4_S4_EC1EPKc @1802
    _ZN7luabind6class_IN6Hinage12InputManagerENS_6detail11unspecifiedES4_S4_ED1Ev @1803
    _ZN7luabind6class_IN6Hinage14PhysicalEntityENS_6detail11unspecifiedES4_S4_E11virtual_defIMS2_FSsvENS3_9null_typeEEERS5_PKcRKT_RKT0_S9_N4mpl_5bool_ILb1EEE @1804
    _ZN7luabind6class_IN6Hinage14PhysicalEntityENS_6detail11unspecifiedES4_S4_E11virtual_defIMS2_FbSsbdENS3_9null_typeEEERS5_PKcRKT_RKT0_S9_N4mpl_5bool_ILb1EEE @1805
    _ZN7luabind6class_IN6Hinage14PhysicalEntityENS_6detail11unspecifiedES4_S4_E11virtual_defIMS2_FdvENS3_9null_typeEEERS5_PKcRKT_RKT0_S9_N4mpl_5bool_ILb1EEE @1806
    _ZN7luabind6class_IN6Hinage14PhysicalEntityENS_6detail11unspecifiedES4_S4_E11virtual_defIMS2_FivENS3_9null_typeEEERS5_PKcRKT_RKT0_S9_N4mpl_5bool_ILb1EEE @1807
    _ZN7luabind6class_IN6Hinage14PhysicalEntityENS_6detail11unspecifiedES4_S4_E11virtual_defIMS2_FvbENS3_9null_typeEEERS5_PKcRKT_RKT0_S9_N4mpl_5bool_ILb1EEE @1808
    _ZN7luabind6class_IN6Hinage14PhysicalEntityENS_6detail11unspecifiedES4_S4_E11virtual_defIMS2_FvdENS3_9null_typeEEERS5_PKcRKT_RKT0_S9_N4mpl_5bool_ILb1EEE @1809
    _ZN7luabind6class_IN6Hinage14PhysicalEntityENS_6detail11unspecifiedES4_S4_E11virtual_defIMS2_FvddENS3_9null_typeEEERS5_PKcRKT_RKT0_S9_N4mpl_5bool_ILb1EEE @1810
    _ZN7luabind6class_IN6Hinage14PhysicalEntityENS_6detail11unspecifiedES4_S4_E11virtual_defIMS2_FvdddENS3_9null_typeEEERS5_PKcRKT_RKT0_S9_N4mpl_5bool_ILb1EEE @1811
    _ZN7luabind6class_IN6Hinage14PhysicalEntityENS_6detail11unspecifiedES4_S4_E12def_readonlyIbEERS5_PKcMS2_T_ @1812
    _ZN7luabind6class_IN6Hinage14PhysicalEntityENS_6detail11unspecifiedES4_S4_E13gen_base_infoENS3_5type_INS3_9null_typeEEE @1813
    _ZN7luabind6class_IN6Hinage14PhysicalEntityENS_6detail11unspecifiedES4_S4_E13get_adopt_funEPNS3_9null_typeE @1814
    _ZN7luabind6class_IN6Hinage14PhysicalEntityENS_6detail11unspecifiedES4_S4_E23generate_baseclass_listINS3_9null_typeES7_S7_S7_EEvNS3_5type_INS_5basesIT_T0_T1_T2_EEEE @1815
    _ZN7luabind6class_IN6Hinage14PhysicalEntityENS_6detail11unspecifiedES4_S4_E3defIMS2_FSsvEEERS5_PKcT_ @1816
    _ZN7luabind6class_IN6Hinage14PhysicalEntityENS_6detail11unspecifiedES4_S4_E3defIMS2_FbSsbdEEERS5_PKcT_ @1817
    _ZN7luabind6class_IN6Hinage14PhysicalEntityENS_6detail11unspecifiedES4_S4_E3defIMS2_FdvEEERS5_PKcT_ @1818
    _ZN7luabind6class_IN6Hinage14PhysicalEntityENS_6detail11unspecifiedES4_S4_E3defIMS2_FivEEERS5_PKcT_ @1819
    _ZN7luabind6class_IN6Hinage14PhysicalEntityENS_6detail11unspecifiedES4_S4_E3defIMS2_FvbEEERS5_PKcT_ @1820
    _ZN7luabind6class_IN6Hinage14PhysicalEntityENS_6detail11unspecifiedES4_S4_E3defIMS2_FvdEEERS5_PKcT_ @1821
    _ZN7luabind6class_IN6Hinage14PhysicalEntityENS_6detail11unspecifiedES4_S4_E3defIMS2_FvddEEERS5_PKcT_ @1822
    _ZN7luabind6class_IN6Hinage14PhysicalEntityENS_6detail11unspecifiedES4_S4_E3defIMS2_FvdddEEERS5_PKcT_ @1823
    _ZN7luabind6class_IN6Hinage14PhysicalEntityENS_6detail11unspecifiedES4_S4_E4initEv @1824
    _ZN7luabind6class_IN6Hinage14PhysicalEntityENS_6detail11unspecifiedES4_S4_EC1EPKc @1825
    _ZN7luabind6class_IN6Hinage14PhysicalEntityENS_6detail11unspecifiedES4_S4_ED1Ev @1826
    _ZN7luabind6class_IN6Hinage3MapENS_6detail11unspecifiedES4_S4_E11virtual_defIMS2_FRNS1_14PhysicalEntityESsddENS3_9null_typeEEERS5_PKcRKT_RKT0_SB_N4mpl_5bool_ILb1EEE @1827
    _ZN7luabind6class_IN6Hinage3MapENS_6detail11unspecifiedES4_S4_E11virtual_defIMS2_FRNS1_14PhysicalEntityEiENS3_9null_typeEEERS5_PKcRKT_RKT0_SB_N4mpl_5bool_ILb1EEE @1828
    _ZN7luabind6class_IN6Hinage3MapENS_6detail11unspecifiedES4_S4_E11virtual_defIMS2_FivENS3_9null_typeEEERS5_PKcRKT_RKT0_S9_N4mpl_5bool_ILb1EEE @1829
    _ZN7luabind6class_IN6Hinage3MapENS_6detail11unspecifiedES4_S4_E11virtual_defIMS2_FvSsENS3_9null_typeEEERS5_PKcRKT_RKT0_S9_N4mpl_5bool_ILb1EEE @1830
    _ZN7luabind6class_IN6Hinage3MapENS_6detail11unspecifiedES4_S4_E11virtual_defIMS2_FvSsbENS3_9null_typeEEERS5_PKcRKT_RKT0_S9_N4mpl_5bool_ILb1EEE @1831
    _ZN7luabind6class_IN6Hinage3MapENS_6detail11unspecifiedES4_S4_E11virtual_defIMS2_FviENS3_9null_typeEEERS5_PKcRKT_RKT0_S9_N4mpl_5bool_ILb1EEE @1832
    _ZN7luabind6class_IN6Hinage3MapENS_6detail11unspecifiedES4_S4_E11virtual_defIMS2_FvvENS3_9null_typeEEERS5_PKcRKT_RKT0_S9_N4mpl_5bool_ILb1EEE @1833
    _ZN7luabind6class_IN6Hinage3MapENS_6detail11unspecifiedES4_S4_E11virtual_defIMS2_KFivENS3_9null_typeEEERS5_PKcRKT_RKT0_S9_N4mpl_5bool_ILb1EEE @1834
    _ZN7luabind6class_IN6Hinage3MapENS_6detail11unspecifiedES4_S4_E13gen_base_infoENS3_5type_INS3_9null_typeEEE @1835
    _ZN7luabind6class_IN6Hinage3MapENS_6detail11unspecifiedES4_S4_E13get_adopt_funEPNS3_9null_typeE @1836
    _ZN7luabind6class_IN6Hinage3MapENS_6detail11unspecifiedES4_S4_E23generate_baseclass_listINS3_9null_typeES7_S7_S7_EEvNS3_5type_INS_5basesIT_T0_T1_T2_EEEE @1837
    _ZN7luabind6class_IN6Hinage3MapENS_6detail11unspecifiedES4_S4_E3defIMS2_FRNS1_14PhysicalEntityESsddEEERS5_PKcT_ @1838
    _ZN7luabind6class_IN6Hinage3MapENS_6detail11unspecifiedES4_S4_E3defIMS2_FRNS1_14PhysicalEntityEiEEERS5_PKcT_ @1839
    _ZN7luabind6class_IN6Hinage3MapENS_6detail11unspecifiedES4_S4_E3defIMS2_FivEEERS5_PKcT_ @1840
    _ZN7luabind6class_IN6Hinage3MapENS_6detail11unspecifiedES4_S4_E3defIMS2_FvSsEEERS5_PKcT_ @1841
    _ZN7luabind6class_IN6Hinage3MapENS_6detail11unspecifiedES4_S4_E3defIMS2_FvSsbEEERS5_PKcT_ @1842
    _ZN7luabind6class_IN6Hinage3MapENS_6detail11unspecifiedES4_S4_E3defIMS2_FviEEERS5_PKcT_ @1843
    _ZN7luabind6class_IN6Hinage3MapENS_6detail11unspecifiedES4_S4_E3defIMS2_FvvEEERS5_PKcT_ @1844
    _ZN7luabind6class_IN6Hinage3MapENS_6detail11unspecifiedES4_S4_E3defIMS2_KFivEEERS5_PKcT_ @1845
    _ZN7luabind6class_IN6Hinage3MapENS_6detail11unspecifiedES4_S4_E4initEv @1846
    _ZN7luabind6class_IN6Hinage3MapENS_6detail11unspecifiedES4_S4_EC1EPKc @1847
    _ZN7luabind6class_IN6Hinage3MapENS_6detail11unspecifiedES4_S4_ED1Ev @1848
    _ZN7luabind6class_IN6Hinage4FontENS_6detail11unspecifiedES4_S4_E13gen_base_infoENS3_5type_INS3_9null_typeEEE @1849
    _ZN7luabind6class_IN6Hinage4FontENS_6detail11unspecifiedES4_S4_E13get_adopt_funEPNS3_9null_typeE @1850
    _ZN7luabind6class_IN6Hinage4FontENS_6detail11unspecifiedES4_S4_E23generate_baseclass_listINS3_9null_typeES7_S7_S7_EEvNS3_5type_INS_5basesIT_T0_T1_T2_EEEE @1851
    _ZN7luabind6class_IN6Hinage4FontENS_6detail11unspecifiedES4_S4_E4initEv @1852
    _ZN7luabind6class_IN6Hinage4FontENS_6detail11unspecifiedES4_S4_EC1EPKc @1853
    _ZN7luabind6class_IN6Hinage4FontENS_6detail11unspecifiedES4_S4_ED1Ev @1854
    _ZN7luabind6class_IN6Hinage4GameENS_6detail11unspecifiedES4_S4_E11virtual_defIMS2_FRNS1_4FontESsENS3_9null_typeEEERS5_PKcRKT_RKT0_SB_N4mpl_5bool_ILb1EEE @1855
    _ZN7luabind6class_IN6Hinage4GameENS_6detail11unspecifiedES4_S4_E11virtual_defIMS2_FdvENS3_9null_typeEEERS5_PKcRKT_RKT0_S9_N4mpl_5bool_ILb1EEE @1856
    _ZN7luabind6class_IN6Hinage4GameENS_6detail11unspecifiedES4_S4_E11virtual_defIMS2_FvRNS1_4FontESsddddENS3_9null_typeEEERS5_PKcRKT_RKT0_SB_N4mpl_5bool_ILb1EEE @1857
    _ZN7luabind6class_IN6Hinage4GameENS_6detail11unspecifiedES4_S4_E11virtual_defIMS2_FvdENS3_9null_typeEEERS5_PKcRKT_RKT0_S9_N4mpl_5bool_ILb1EEE @1858
    _ZN7luabind6class_IN6Hinage4GameENS_6detail11unspecifiedES4_S4_E11virtual_defIMS2_FvvENS3_9null_typeEEERS5_PKcRKT_RKT0_S9_N4mpl_5bool_ILb1EEE @1859
    _ZN7luabind6class_IN6Hinage4GameENS_6detail11unspecifiedES4_S4_E13gen_base_infoENS3_5type_INS3_9null_typeEEE @1860
    _ZN7luabind6class_IN6Hinage4GameENS_6detail11unspecifiedES4_S4_E13get_adopt_funEPNS3_9null_typeE @1861
    _ZN7luabind6class_IN6Hinage4GameENS_6detail11unspecifiedES4_S4_E23generate_baseclass_listINS3_9null_typeES7_S7_S7_EEvNS3_5type_INS_5basesIT_T0_T1_T2_EEEE @1862
    _ZN7luabind6class_IN6Hinage4GameENS_6detail11unspecifiedES4_S4_E3defIMS2_FRNS1_4FontESsEEERS5_PKcT_ @1863
    _ZN7luabind6class_IN6Hinage4GameENS_6detail11unspecifiedES4_S4_E3defIMS2_FdvEEERS5_PKcT_ @1864
    _ZN7luabind6class_IN6Hinage4GameENS_6detail11unspecifiedES4_S4_E3defIMS2_FvRNS1_4FontESsddddEEERS5_PKcT_ @1865
    _ZN7luabind6class_IN6Hinage4GameENS_6detail11unspecifiedES4_S4_E3defIMS2_FvdEEERS5_PKcT_ @1866
    _ZN7luabind6class_IN6Hinage4GameENS_6detail11unspecifiedES4_S4_E3defIMS2_FvvEEERS5_PKcT_ @1867
    _ZN7luabind6class_IN6Hinage4GameENS_6detail11unspecifiedES4_S4_E4initEv @1868
    _ZN7luabind6class_IN6Hinage4GameENS_6detail11unspecifiedES4_S4_EC1EPKc @1869
    _ZN7luabind6class_IN6Hinage4GameENS_6detail11unspecifiedES4_S4_ED1Ev @1870
    _ZN7luabind6class_IN6Hinage5TimerENS_6detail11unspecifiedES4_S4_E11virtual_defIMS2_FbdENS3_9null_typeEEERS5_PKcRKT_RKT0_S9_N4mpl_5bool_ILb1EEE @1871
    _ZN7luabind6class_IN6Hinage5TimerENS_6detail11unspecifiedES4_S4_E11virtual_defIMS2_FdvENS3_9null_typeEEERS5_PKcRKT_RKT0_S9_N4mpl_5bool_ILb1EEE @1872
    _ZN7luabind6class_IN6Hinage5TimerENS_6detail11unspecifiedES4_S4_E11virtual_defIMS2_FvvENS3_9null_typeEEERS5_PKcRKT_RKT0_S9_N4mpl_5bool_ILb1EEE @1873
    _ZN7luabind6class_IN6Hinage5TimerENS_6detail11unspecifiedES4_S4_E13gen_base_infoENS3_5type_INS3_9null_typeEEE @1874
    _ZN7luabind6class_IN6Hinage5TimerENS_6detail11unspecifiedES4_S4_E13get_adopt_funEPNS3_9null_typeE @1875
    _ZN7luabind6class_IN6Hinage5TimerENS_6detail11unspecifiedES4_S4_E15def_constructorINS_11constructorINS3_9null_typeES8_S8_S8_S8_S8_S8_S8_S8_S8_EES8_EERS5_N4mpl_5bool_ILb1EEEPT_RKT0_ @1876
    _ZN7luabind6class_IN6Hinage5TimerENS_6detail11unspecifiedES4_S4_E15def_constructorINS_11constructorIbNS3_9null_typeES8_S8_S8_S8_S8_S8_S8_S8_EES8_EERS5_N4mpl_5bool_ILb1EEEPT_RKT0_ @1877
    _ZN7luabind6class_IN6Hinage5TimerENS_6detail11unspecifiedES4_S4_E23generate_baseclass_listINS3_9null_typeES7_S7_S7_EEvNS3_5type_INS_5basesIT_T0_T1_T2_EEEE @1878
    _ZN7luabind6class_IN6Hinage5TimerENS_6detail11unspecifiedES4_S4_E3defIMS2_FbdEEERS5_PKcT_ @1879
    _ZN7luabind6class_IN6Hinage5TimerENS_6detail11unspecifiedES4_S4_E3defIMS2_FdvEEERS5_PKcT_ @1880
    _ZN7luabind6class_IN6Hinage5TimerENS_6detail11unspecifiedES4_S4_E3defIMS2_FvvEEERS5_PKcT_ @1881
    _ZN7luabind6class_IN6Hinage5TimerENS_6detail11unspecifiedES4_S4_E3defINS3_9null_typeES7_S7_S7_S7_S7_S7_S7_S7_S7_EERS5_NS_11constructorIT_T0_T1_T2_T3_T4_T5_T6_T7_T8_EE @1882
    _ZN7luabind6class_IN6Hinage5TimerENS_6detail11unspecifiedES4_S4_E3defIbNS3_9null_typeES7_S7_S7_S7_S7_S7_S7_S7_EERS5_NS_11constructorIT_T0_T1_T2_T3_T4_T5_T6_T7_T8_EE @1883
    _ZN7luabind6class_IN6Hinage5TimerENS_6detail11unspecifiedES4_S4_E4initEv @1884
    _ZN7luabind6class_IN6Hinage5TimerENS_6detail11unspecifiedES4_S4_EC1EPKc @1885
    _ZN7luabind6class_IN6Hinage5TimerENS_6detail11unspecifiedES4_S4_ED1Ev @1886
    _ZN7luabind6class_IN6Hinage7DisplayENS_6detail11unspecifiedES4_S4_E11virtual_defIMS2_FdvENS3_9null_typeEEERS5_PKcRKT_RKT0_S9_N4mpl_5bool_ILb1EEE @1887
    _ZN7luabind6class_IN6Hinage7DisplayENS_6detail11unspecifiedES4_S4_E11virtual_defIMS2_FfvENS3_9null_typeEEERS5_PKcRKT_RKT0_S9_N4mpl_5bool_ILb1EEE @1888
    _ZN7luabind6class_IN6Hinage7DisplayENS_6detail11unspecifiedES4_S4_E11virtual_defIMS2_FvdENS3_9null_typeEEERS5_PKcRKT_RKT0_S9_N4mpl_5bool_ILb1EEE @1889
    _ZN7luabind6class_IN6Hinage7DisplayENS_6detail11unspecifiedES4_S4_E11virtual_defIMS2_FvffENS3_9null_typeEEERS5_PKcRKT_RKT0_S9_N4mpl_5bool_ILb1EEE @1890
    _ZN7luabind6class_IN6Hinage7DisplayENS_6detail11unspecifiedES4_S4_E13gen_base_infoENS3_5type_INS3_9null_typeEEE @1891
    _ZN7luabind6class_IN6Hinage7DisplayENS_6detail11unspecifiedES4_S4_E13get_adopt_funEPNS3_9null_typeE @1892
    _ZN7luabind6class_IN6Hinage7DisplayENS_6detail11unspecifiedES4_S4_E23generate_baseclass_listINS3_9null_typeES7_S7_S7_EEvNS3_5type_INS_5basesIT_T0_T1_T2_EEEE @1893
    _ZN7luabind6class_IN6Hinage7DisplayENS_6detail11unspecifiedES4_S4_E3defIMS2_FdvEEERS5_PKcT_ @1894
    _ZN7luabind6class_IN6Hinage7DisplayENS_6detail11unspecifiedES4_S4_E3defIMS2_FfvEEERS5_PKcT_ @1895
    _ZN7luabind6class_IN6Hinage7DisplayENS_6detail11unspecifiedES4_S4_E3defIMS2_FvdEEERS5_PKcT_ @1896
    _ZN7luabind6class_IN6Hinage7DisplayENS_6detail11unspecifiedES4_S4_E3defIMS2_FvffEEERS5_PKcT_ @1897
    _ZN7luabind6class_IN6Hinage7DisplayENS_6detail11unspecifiedES4_S4_E4initEv @1898
    _ZN7luabind6class_IN6Hinage7DisplayENS_6detail11unspecifiedES4_S4_EC1EPKc @1899
    _ZN7luabind6class_IN6Hinage7DisplayENS_6detail11unspecifiedES4_S4_ED1Ev @1900
    _ZN7luabind6class_IN6Hinage7Vector2IdEENS_6detail11unspecifiedES5_S5_E11virtual_defIMS3_FvdENS4_9null_typeEEERS6_PKcRKT_RKT0_SA_N4mpl_5bool_ILb1EEE @1901
    _ZN7luabind6class_IN6Hinage7Vector2IdEENS_6detail11unspecifiedES5_S5_E11virtual_defIMS3_FvddENS4_9null_typeEEERS6_PKcRKT_RKT0_SA_N4mpl_5bool_ILb1EEE @1902
    _ZN7luabind6class_IN6Hinage7Vector2IdEENS_6detail11unspecifiedES5_S5_E11virtual_defIMS3_KFdvENS4_9null_typeEEERS6_PKcRKT_RKT0_SA_N4mpl_5bool_ILb1EEE @1903
    _ZN7luabind6class_IN6Hinage7Vector2IdEENS_6detail11unspecifiedES5_S5_E13gen_base_infoENS4_5type_INS4_9null_typeEEE @1904
    _ZN7luabind6class_IN6Hinage7Vector2IdEENS_6detail11unspecifiedES5_S5_E13get_adopt_funEPNS4_9null_typeE @1905
    _ZN7luabind6class_IN6Hinage7Vector2IdEENS_6detail11unspecifiedES5_S5_E15def_constructorINS_11constructorINS4_9null_typeES9_S9_S9_S9_S9_S9_S9_S9_S9_EES9_EERS6_N4mpl_5bool_ILb1EEEPT_RKT0_ @1906
    _ZN7luabind6class_IN6Hinage7Vector2IdEENS_6detail11unspecifiedES5_S5_E15def_constructorINS_11constructorIddNS4_9null_typeES9_S9_S9_S9_S9_S9_S9_EES9_EERS6_N4mpl_5bool_ILb1EEEPT_RKT0_ @1907
    _ZN7luabind6class_IN6Hinage7Vector2IdEENS_6detail11unspecifiedES5_S5_E23generate_baseclass_listINS4_9null_typeES8_S8_S8_EEvNS4_5type_INS_5basesIT_T0_T1_T2_EEEE @1908
    _ZN7luabind6class_IN6Hinage7Vector2IdEENS_6detail11unspecifiedES5_S5_E3defIMS3_FvdEEERS6_PKcT_ @1909
    _ZN7luabind6class_IN6Hinage7Vector2IdEENS_6detail11unspecifiedES5_S5_E3defIMS3_FvddEEERS6_PKcT_ @1910
    _ZN7luabind6class_IN6Hinage7Vector2IdEENS_6detail11unspecifiedES5_S5_E3defIMS3_KFdvEEERS6_PKcT_ @1911
    _ZN7luabind6class_IN6Hinage7Vector2IdEENS_6detail11unspecifiedES5_S5_E3defINS4_9null_typeES8_S8_S8_S8_S8_S8_S8_S8_S8_EERS6_NS_11constructorIT_T0_T1_T2_T3_T4_T5_T6_T7_T8_EE @1912
    _ZN7luabind6class_IN6Hinage7Vector2IdEENS_6detail11unspecifiedES5_S5_E3defIddNS4_9null_typeES8_S8_S8_S8_S8_S8_S8_EERS6_NS_11constructorIT_T0_T1_T2_T3_T4_T5_T6_T7_T8_EE @1913
    _ZN7luabind6class_IN6Hinage7Vector2IdEENS_6detail11unspecifiedES5_S5_E4initEv @1914
    _ZN7luabind6class_IN6Hinage7Vector2IdEENS_6detail11unspecifiedES5_S5_EC1EPKc @1915
    _ZN7luabind6class_IN6Hinage7Vector2IdEENS_6detail11unspecifiedES5_S5_ED1Ev @1916
    _ZN7luabind6detail10calc_arityILi0EE5applyINS0_9null_typeES4_S4_S4_S4_S4_S4_S4_S4_S4_S4_EEiNS_11constructorIT_T0_T1_T2_T3_T4_T5_T6_T7_T8_EEPT9_ @1917
    _ZN7luabind6detail10calc_arityILi1EE5applyIbNS0_9null_typeES4_S4_S4_S4_S4_S4_S4_S4_S4_EEiNS_11constructorIT_T0_T1_T2_T3_T4_T5_T6_T7_T8_EEPT9_ @1918
    _ZN7luabind6detail10calc_arityILi2EE5applyIddNS0_9null_typeES4_S4_S4_S4_S4_S4_S4_S4_EEiNS_11constructorIT_T0_T1_T2_T3_T4_T5_T6_T7_T8_EEPT9_ @1919
    _ZN7luabind6detail10class_baseD2Ev @1920
    _ZN7luabind6detail10object_rep4crepEv @1921
    _ZN7luabind6detail11maybe_yieldINS0_9null_typeEE3retEP9lua_StateiN4mpl_5bool_ILb0EEE @1922
    _ZN7luabind6detail11maybe_yieldINS0_9null_typeEE5applyEP9lua_Statei @1923
    _ZN7luabind6detail11wrap_access3refERKNS_9wrap_baseE @1924
    _ZN7luabind6detail12match_paramsINS0_9null_typeES2_S2_S2_S2_S2_S2_S2_S2_S2_S2_EEiP9lua_StateiPKNS_11constructorIT_T0_T1_T2_T3_T4_T5_T6_T7_T8_EEPKT9_ @1925
    _ZN7luabind6detail12match_paramsIR12AudioManagerNS0_9null_typeES4_S4_S4_S4_S4_S4_S4_S4_S4_EEiP9lua_StateiPKNS_11constructorIT_T0_T1_T2_T3_T4_T5_T6_T7_T8_EEPKT9_ @1926
    _ZN7luabind6detail12match_paramsIR12AudioManagerSsNS0_9null_typeES4_S4_S4_S4_S4_S4_S4_S4_EEiP9lua_StateiPKNS_11constructorIT_T0_T1_T2_T3_T4_T5_T6_T7_T8_EEPKT9_ @1927
    _ZN7luabind6detail12match_paramsIR12AudioManagerSsbNS0_9null_typeES4_S4_S4_S4_S4_S4_S4_EEiP9lua_StateiPKNS_11constructorIT_T0_T1_T2_T3_T4_T5_T6_T7_T8_EEPKT9_ @1928
    _ZN7luabind6detail12match_paramsIRKN6Hinage3MapENS0_9null_typeES6_S6_S6_S6_S6_S6_S6_S6_S6_EEiP9lua_StateiPKNS_11constructorIT_T0_T1_T2_T3_T4_T5_T6_T7_T8_EEPKT9_ @1929
    _ZN7luabind6detail12match_paramsIRKN6Hinage7Vector2IdEENS0_9null_typeES7_S7_S7_S7_S7_S7_S7_S7_S7_EEiP9lua_StateiPKNS_11constructorIT_T0_T1_T2_T3_T4_T5_T6_T7_T8_EEPKT9_ @1930
    _ZN7luabind6detail12match_paramsIRN6Hinage12InputManagerEiNS0_9null_typeES5_S5_S5_S5_S5_S5_S5_S5_EEiP9lua_StateiPKNS_11constructorIT_T0_T1_T2_T3_T4_T5_T6_T7_T8_EEPKT9_ @1931
    _ZN7luabind6detail12match_paramsIRN6Hinage14PhysicalEntityENS0_9null_typeES5_S5_S5_S5_S5_S5_S5_S5_S5_EEiP9lua_StateiPKNS_11constructorIT_T0_T1_T2_T3_T4_T5_T6_T7_T8_EEPKT9_ @1932
    _ZN7luabind6detail12match_paramsIRN6Hinage14PhysicalEntityESsbdNS0_9null_typeES5_S5_S5_S5_S5_S5_EEiP9lua_StateiPKNS_11constructorIT_T0_T1_T2_T3_T4_T5_T6_T7_T8_EEPKT9_ @1933
    _ZN7luabind6detail12match_paramsIRN6Hinage14PhysicalEntityEbNS0_9null_typeES5_S5_S5_S5_S5_S5_S5_S5_EEiP9lua_StateiPKNS_11constructorIT_T0_T1_T2_T3_T4_T5_T6_T7_T8_EEPKT9_ @1934
    _ZN7luabind6detail12match_paramsIRN6Hinage14PhysicalEntityEdNS0_9null_typeES5_S5_S5_S5_S5_S5_S5_S5_EEiP9lua_StateiPKNS_11constructorIT_T0_T1_T2_T3_T4_T5_T6_T7_T8_EEPKT9_ @1935
    _ZN7luabind6detail12match_paramsIRN6Hinage14PhysicalEntityEddNS0_9null_typeES5_S5_S5_S5_S5_S5_S5_EEiP9lua_StateiPKNS_11constructorIT_T0_T1_T2_T3_T4_T5_T6_T7_T8_EEPKT9_ @1936
    _ZN7luabind6detail12match_paramsIRN6Hinage14PhysicalEntityEdddNS0_9null_typeES5_S5_S5_S5_S5_S5_EEiP9lua_StateiPKNS_11constructorIT_T0_T1_T2_T3_T4_T5_T6_T7_T8_EEPKT9_ @1937
    _ZN7luabind6detail12match_paramsIRN6Hinage3MapENS0_9null_typeES5_S5_S5_S5_S5_S5_S5_S5_S5_EEiP9lua_StateiPKNS_11constructorIT_T0_T1_T2_T3_T4_T5_T6_T7_T8_EEPKT9_ @1938
    _ZN7luabind6detail12match_paramsIRN6Hinage3MapESsNS0_9null_typeES5_S5_S5_S5_S5_S5_S5_S5_EEiP9lua_StateiPKNS_11constructorIT_T0_T1_T2_T3_T4_T5_T6_T7_T8_EEPKT9_ @1939
    _ZN7luabind6detail12match_paramsIRN6Hinage3MapESsbNS0_9null_typeES5_S5_S5_S5_S5_S5_S5_EEiP9lua_StateiPKNS_11constructorIT_T0_T1_T2_T3_T4_T5_T6_T7_T8_EEPKT9_ @1940
    _ZN7luabind6detail12match_paramsIRN6Hinage3MapESsddNS0_9null_typeES5_S5_S5_S5_S5_S5_EEiP9lua_StateiPKNS_11constructorIT_T0_T1_T2_T3_T4_T5_T6_T7_T8_EEPKT9_ @1941
    _ZN7luabind6detail12match_paramsIRN6Hinage3MapEiNS0_9null_typeES5_S5_S5_S5_S5_S5_S5_S5_EEiP9lua_StateiPKNS_11constructorIT_T0_T1_T2_T3_T4_T5_T6_T7_T8_EEPKT9_ @1942
    _ZN7luabind6detail12match_paramsIRN6Hinage4GameENS0_9null_typeES5_S5_S5_S5_S5_S5_S5_S5_S5_EEiP9lua_StateiPKNS_11constructorIT_T0_T1_T2_T3_T4_T5_T6_T7_T8_EEPKT9_ @1943
    _ZN7luabind6detail12match_paramsIRN6Hinage4GameERNS2_4FontESsddddNS0_9null_typeES7_S7_S7_EEiP9lua_StateiPKNS_11constructorIT_T0_T1_T2_T3_T4_T5_T6_T7_T8_EEPKT9_ @1944
    _ZN7luabind6detail12match_paramsIRN6Hinage4GameESsNS0_9null_typeES5_S5_S5_S5_S5_S5_S5_S5_EEiP9lua_StateiPKNS_11constructorIT_T0_T1_T2_T3_T4_T5_T6_T7_T8_EEPKT9_ @1945
    _ZN7luabind6detail12match_paramsIRN6Hinage4GameEdNS0_9null_typeES5_S5_S5_S5_S5_S5_S5_S5_EEiP9lua_StateiPKNS_11constructorIT_T0_T1_T2_T3_T4_T5_T6_T7_T8_EEPKT9_ @1946
    _ZN7luabind6detail12match_paramsIRN6Hinage5TimerENS0_9null_typeES5_S5_S5_S5_S5_S5_S5_S5_S5_EEiP9lua_StateiPKNS_11constructorIT_T0_T1_T2_T3_T4_T5_T6_T7_T8_EEPKT9_ @1947
    _ZN7luabind6detail12match_paramsIRN6Hinage5TimerEdNS0_9null_typeES5_S5_S5_S5_S5_S5_S5_S5_EEiP9lua_StateiPKNS_11constructorIT_T0_T1_T2_T3_T4_T5_T6_T7_T8_EEPKT9_ @1948
    _ZN7luabind6detail12match_paramsIRN6Hinage7DisplayENS0_9null_typeES5_S5_S5_S5_S5_S5_S5_S5_S5_EEiP9lua_StateiPKNS_11constructorIT_T0_T1_T2_T3_T4_T5_T6_T7_T8_EEPKT9_ @1949
    _ZN7luabind6detail12match_paramsIRN6Hinage7DisplayEdNS0_9null_typeES5_S5_S5_S5_S5_S5_S5_S5_EEiP9lua_StateiPKNS_11constructorIT_T0_T1_T2_T3_T4_T5_T6_T7_T8_EEPKT9_ @1950
    _ZN7luabind6detail12match_paramsIRN6Hinage7DisplayEffNS0_9null_typeES5_S5_S5_S5_S5_S5_S5_EEiP9lua_StateiPKNS_11constructorIT_T0_T1_T2_T3_T4_T5_T6_T7_T8_EEPKT9_ @1951
    _ZN7luabind6detail12match_paramsIRN6Hinage7Vector2IdEEdNS0_9null_typeES6_S6_S6_S6_S6_S6_S6_S6_EEiP9lua_StateiPKNS_11constructorIT_T0_T1_T2_T3_T4_T5_T6_T7_T8_EEPKT9_ @1952
    _ZN7luabind6detail12match_paramsIRN6Hinage7Vector2IdEEddNS0_9null_typeES6_S6_S6_S6_S6_S6_S6_EEiP9lua_StateiPKNS_11constructorIT_T0_T1_T2_T3_T4_T5_T6_T7_T8_EEPKT9_ @1953
    _ZN7luabind6detail12match_paramsIbNS0_9null_typeES2_S2_S2_S2_S2_S2_S2_S2_S2_EEiP9lua_StateiPKNS_11constructorIT_T0_T1_T2_T3_T4_T5_T6_T7_T8_EEPKT9_ @1954
    _ZN7luabind6detail12match_paramsIddNS0_9null_typeES2_S2_S2_S2_S2_S2_S2_S2_EEiP9lua_StateiPKNS_11constructorIT_T0_T1_T2_T3_T4_T5_T6_T7_T8_EEPKT9_ @1955
    _ZN7luabind6detail12name_of_typeENS0_8by_valueISsEEP9lua_Statei @1956
    _ZN7luabind6detail12name_of_typeENS0_8by_valueIbEEP9lua_Statei @1957
    _ZN7luabind6detail12name_of_typeENS0_8by_valueIiEEP9lua_Statei @1958
    _ZN7luabind6detail12name_of_typeIN6Hinage4FontEEESsNS0_12by_referenceIT_EEP9lua_Statei @1959
    _ZN7luabind6detail12name_of_typeIN6Hinage4FontEEESsNS0_8by_valueIT_EEP9lua_Statei @1960
    _ZN7luabind6detail12name_of_typeIdEESsNS0_8by_valueIT_EEP9lua_Statei @1961
    _ZN7luabind6detail12name_of_typeIfEESsNS0_8by_valueIT_EEP9lua_Statei @1962
    _ZN7luabind6detail12overload_rep7set_funERKN5boost9function1IiP9lua_StateSaINS2_13function_baseEEEE @1963
    _ZN7luabind6detail12overload_repC1IRN6Hinage14PhysicalEntityENS3_3MapESsddNS0_9null_typeEEEMT0_FT_T1_T2_T3_EPT4_ @1964
    _ZN7luabind6detail12overload_repC1IRN6Hinage14PhysicalEntityENS3_3MapEiNS0_9null_typeEEEMT0_FT_T1_EPT2_ @1965
    _ZN7luabind6detail12overload_repC1IRN6Hinage4FontENS3_4GameESsNS0_9null_typeEEEMT0_FT_T1_EPT2_ @1966
    _ZN7luabind6detail12overload_repC1ISsN6Hinage14PhysicalEntityENS0_9null_typeEEEMT0_FT_vEPT1_ @1967
    _ZN7luabind6detail12overload_repC1IbN6Hinage12InputManagerEiNS0_9null_typeEEEMT0_FT_T1_EPT2_ @1968
    _ZN7luabind6detail12overload_repC1IbN6Hinage14PhysicalEntityESsbdNS0_9null_typeEEEMT0_FT_T1_T2_T3_EPT4_ @1969
    _ZN7luabind6detail12overload_repC1IbN6Hinage5TimerEdNS0_9null_typeEEEMT0_FT_T1_EPT2_ @1970
    _ZN7luabind6detail12overload_repC1IdN6Hinage14PhysicalEntityENS0_9null_typeEEEMT0_FT_vEPT1_ @1971
    _ZN7luabind6detail12overload_repC1IdN6Hinage4GameENS0_9null_typeEEEMT0_FT_vEPT1_ @1972
    _ZN7luabind6detail12overload_repC1IdN6Hinage5TimerENS0_9null_typeEEEMT0_FT_vEPT1_ @1973
    _ZN7luabind6detail12overload_repC1IdN6Hinage7DisplayENS0_9null_typeEEEMT0_FT_vEPT1_ @1974
    _ZN7luabind6detail12overload_repC1IdN6Hinage7Vector2IdEENS0_9null_typeEEEMT0_KFT_vEPT1_ @1975
    _ZN7luabind6detail12overload_repC1IfN6Hinage7DisplayENS0_9null_typeEEEMT0_FT_vEPT1_ @1976
    _ZN7luabind6detail12overload_repC1IiN6Hinage14PhysicalEntityENS0_9null_typeEEEMT0_FT_vEPT1_ @1977
    _ZN7luabind6detail12overload_repC1IiN6Hinage3MapENS0_9null_typeEEEMT0_FT_vEPT1_ @1978
    _ZN7luabind6detail12overload_repC1IiN6Hinage3MapENS0_9null_typeEEEMT0_KFT_vEPT1_ @1979
    _ZN7luabind6detail12overload_repC1Iv12AudioManagerNS0_9null_typeEEEMT0_FT_vEPT1_ @1980
    _ZN7luabind6detail12overload_repC1Iv12AudioManagerSsNS0_9null_typeEEEMT0_FT_T1_EPT2_ @1981
    _ZN7luabind6detail12overload_repC1Iv12AudioManagerSsbNS0_9null_typeEEEMT0_FT_T1_T2_EPT3_ @1982
    _ZN7luabind6detail12overload_repC1IvN6Hinage14PhysicalEntityEbNS0_9null_typeEEEMT0_FT_T1_EPT2_ @1983
    _ZN7luabind6detail12overload_repC1IvN6Hinage14PhysicalEntityEdNS0_9null_typeEEEMT0_FT_T1_EPT2_ @1984
    _ZN7luabind6detail12overload_repC1IvN6Hinage14PhysicalEntityEddNS0_9null_typeEEEMT0_FT_T1_T2_EPT3_ @1985
    _ZN7luabind6detail12overload_repC1IvN6Hinage14PhysicalEntityEdddNS0_9null_typeEEEMT0_FT_T1_T2_T3_EPT4_ @1986
    _ZN7luabind6detail12overload_repC1IvN6Hinage3MapENS0_9null_typeEEEMT0_FT_vEPT1_ @1987
    _ZN7luabind6detail12overload_repC1IvN6Hinage3MapESsNS0_9null_typeEEEMT0_FT_T1_EPT2_ @1988
    _ZN7luabind6detail12overload_repC1IvN6Hinage3MapESsbNS0_9null_typeEEEMT0_FT_T1_T2_EPT3_ @1989
    _ZN7luabind6detail12overload_repC1IvN6Hinage3MapEiNS0_9null_typeEEEMT0_FT_T1_EPT2_ @1990
    _ZN7luabind6detail12overload_repC1IvN6Hinage4GameENS0_9null_typeEEEMT0_FT_vEPT1_ @1991
    _ZN7luabind6detail12overload_repC1IvN6Hinage4GameERNS3_4FontESsddddNS0_9null_typeEEEMT0_FT_T1_T2_T3_T4_T5_T6_EPT7_ @1992
    _ZN7luabind6detail12overload_repC1IvN6Hinage4GameEdNS0_9null_typeEEEMT0_FT_T1_EPT2_ @1993
    _ZN7luabind6detail12overload_repC1IvN6Hinage5TimerENS0_9null_typeEEEMT0_FT_vEPT1_ @1994
    _ZN7luabind6detail12overload_repC1IvN6Hinage7DisplayEdNS0_9null_typeEEEMT0_FT_T1_EPT2_ @1995
    _ZN7luabind6detail12overload_repC1IvN6Hinage7DisplayEffNS0_9null_typeEEEMT0_FT_T1_T2_EPT3_ @1996
    _ZN7luabind6detail12overload_repC1IvN6Hinage7Vector2IdEEdNS0_9null_typeEEEMT0_FT_T1_EPT2_ @1997
    _ZN7luabind6detail12overload_repC1IvN6Hinage7Vector2IdEEddNS0_9null_typeEEEMT0_FT_T1_T2_EPT3_ @1998
    _ZN7luabind6detail12overload_repD1Ev @1999
    _ZN7luabind6detail12static_scopeINS_6class_I12AudioManagerNS0_11unspecifiedES4_S4_EEEC1ERS5_ @2000
    _ZN7luabind6detail12static_scopeINS_6class_IN6Hinage12InputManagerENS0_11unspecifiedES5_S5_EEEC1ERS6_ @2001
    _ZN7luabind6detail12static_scopeINS_6class_IN6Hinage14PhysicalEntityENS0_11unspecifiedES5_S5_EEEC1ERS6_ @2002
    _ZN7luabind6detail12static_scopeINS_6class_IN6Hinage3MapENS0_11unspecifiedES5_S5_EEEC1ERS6_ @2003
    _ZN7luabind6detail12static_scopeINS_6class_IN6Hinage4FontENS0_11unspecifiedES5_S5_EEEC1ERS6_ @2004
    _ZN7luabind6detail12static_scopeINS_6class_IN6Hinage4GameENS0_11unspecifiedES5_S5_EEEC1ERS6_ @2005
    _ZN7luabind6detail12static_scopeINS_6class_IN6Hinage5TimerENS0_11unspecifiedES5_S5_EEEC1ERS6_ @2006
    _ZN7luabind6detail12static_scopeINS_6class_IN6Hinage7DisplayENS0_11unspecifiedES5_S5_EEEC1ERS6_ @2007
    _ZN7luabind6detail12static_scopeINS_6class_IN6Hinage7Vector2IdEENS0_11unspecifiedES6_S6_EEEC1ERS7_ @2008
    _ZN7luabind6detail13construct_rep10overload_t15set_constructorEPFPvP9lua_StateRKNS_8weak_refEE @2009
    _ZN7luabind6detail13construct_rep10overload_t9set_arityEi @2010
    _ZN7luabind6detail13construct_rep10overload_tC1Ev @2011
    _ZN7luabind6detail13construct_rep10overload_tD1Ev @2012
    _ZN7luabind6detail13get_class_repI12AudioManagerEEPNS0_9class_repEP9lua_StatePFvT_E @2013
    _ZN7luabind6detail13get_class_repIN6Hinage12InputManagerEEEPNS0_9class_repEP9lua_StatePFvT_E @2014
    _ZN7luabind6detail13get_class_repIN6Hinage14PhysicalEntityEEEPNS0_9class_repEP9lua_StatePFvT_E @2015
    _ZN7luabind6detail13get_class_repIN6Hinage3MapEEEPNS0_9class_repEP9lua_StatePFvT_E @2016
    _ZN7luabind6detail13get_class_repIN6Hinage4FontEEEPNS0_9class_repEP9lua_StatePFvT_E @2017
    _ZN7luabind6detail13get_class_repIN6Hinage4GameEEEPNS0_9class_repEP9lua_StatePFvT_E @2018
    _ZN7luabind6detail13get_class_repIN6Hinage5TimerEEEPNS0_9class_repEP9lua_StatePFvT_E @2019
    _ZN7luabind6detail13get_class_repIN6Hinage7DisplayEEEPNS0_9class_repEP9lua_StatePFvT_E @2020
    _ZN7luabind6detail13get_class_repIN6Hinage7Vector2IdEEEEPNS0_9class_repEP9lua_StatePFvT_E @2021
    _ZN7luabind6detail13get_signatureINS_11constructorINS0_9null_typeES3_S3_S3_S3_S3_S3_S3_S3_S3_EEE5applyEP9lua_StateRSs @2022
    _ZN7luabind6detail13get_signatureINS_11constructorIbNS0_9null_typeES3_S3_S3_S3_S3_S3_S3_S3_EEE5applyEP9lua_StateRSs @2023
    _ZN7luabind6detail13get_signatureINS_11constructorIddNS0_9null_typeES3_S3_S3_S3_S3_S3_S3_EEE5applyEP9lua_StateRSs @2024
    _ZN7luabind6detail13ref_converterINS0_10cpp_to_luaEE5applyIN6Hinage14PhysicalEntityEEEvP9lua_StateRT_ @2025
    _ZN7luabind6detail13ref_converterINS0_10cpp_to_luaEE5applyIN6Hinage4FontEEEvP9lua_StateRT_ @2026
    _ZN7luabind6detail13ref_converterINS0_10lua_to_cppEE18converter_postcallINS0_12by_referenceIN6Hinage4FontEEEEEvP9lua_StateT_i @2027
    _ZN7luabind6detail13ref_converterINS0_10lua_to_cppEE5applyIN6Hinage4FontEEENS0_14make_referenceIT_E4typeEP9lua_StateNS0_12by_referenceIS8_EEi @2028
    _ZN7luabind6detail13ref_converterINS0_10lua_to_cppEE5matchI12AudioManagerEEiP9lua_StateNS0_12by_referenceIT_EEi @2029
    _ZN7luabind6detail13ref_converterINS0_10lua_to_cppEE5matchIN6Hinage12InputManagerEEEiP9lua_StateNS0_12by_referenceIT_EEi @2030
    _ZN7luabind6detail13ref_converterINS0_10lua_to_cppEE5matchIN6Hinage14PhysicalEntityEEEiP9lua_StateNS0_12by_referenceIT_EEi @2031
    _ZN7luabind6detail13ref_converterINS0_10lua_to_cppEE5matchIN6Hinage3MapEEEiP9lua_StateNS0_12by_referenceIT_EEi @2032
    _ZN7luabind6detail13ref_converterINS0_10lua_to_cppEE5matchIN6Hinage4FontEEEiP9lua_StateNS0_12by_referenceIT_EEi @2033
    _ZN7luabind6detail13ref_converterINS0_10lua_to_cppEE5matchIN6Hinage4GameEEEiP9lua_StateNS0_12by_referenceIT_EEi @2034
    _ZN7luabind6detail13ref_converterINS0_10lua_to_cppEE5matchIN6Hinage5TimerEEEiP9lua_StateNS0_12by_referenceIT_EEi @2035
    _ZN7luabind6detail13ref_converterINS0_10lua_to_cppEE5matchIN6Hinage7DisplayEEEiP9lua_StateNS0_12by_referenceIT_EEi @2036
    _ZN7luabind6detail13ref_converterINS0_10lua_to_cppEE5matchIN6Hinage7Vector2IdEEEEiP9lua_StateNS0_12by_referenceIT_EEi @2037
    _ZN7luabind6detail14decorated_typeIN6Hinage4FontEE1tE @2038 DATA
    _ZN7luabind6detail14decorated_typeIN6Hinage4FontEE3getEv @2039
    _ZN7luabind6detail14decorated_typeIP12AudioManagerE1tE @2040 DATA
    _ZN7luabind6detail14decorated_typeIP12AudioManagerE3getEv @2041
    _ZN7luabind6detail14decorated_typeIPKN6Hinage3MapEE3getEv @2042
    _ZN7luabind6detail14decorated_typeIPKN6Hinage7Vector2IdEEE3getEv @2043
    _ZN7luabind6detail14decorated_typeIPN6Hinage12InputManagerEE1tE @2044 DATA
    _ZN7luabind6detail14decorated_typeIPN6Hinage12InputManagerEE3getEv @2045
    _ZN7luabind6detail14decorated_typeIPN6Hinage14PhysicalEntityEE1tE @2046 DATA
    _ZN7luabind6detail14decorated_typeIPN6Hinage14PhysicalEntityEE3getEv @2047
    _ZN7luabind6detail14decorated_typeIPN6Hinage3MapEE1tE @2048 DATA
    _ZN7luabind6detail14decorated_typeIPN6Hinage3MapEE3getEv @2049
    _ZN7luabind6detail14decorated_typeIPN6Hinage4GameEE1tE @2050 DATA
    _ZN7luabind6detail14decorated_typeIPN6Hinage4GameEE3getEv @2051
    _ZN7luabind6detail14decorated_typeIPN6Hinage5TimerEE1tE @2052 DATA
    _ZN7luabind6detail14decorated_typeIPN6Hinage5TimerEE3getEv @2053
    _ZN7luabind6detail14decorated_typeIPN6Hinage7DisplayEE1tE @2054 DATA
    _ZN7luabind6detail14decorated_typeIPN6Hinage7DisplayEE3getEv @2055
    _ZN7luabind6detail14decorated_typeIPN6Hinage7Vector2IdEEE1tE @2056 DATA
    _ZN7luabind6detail14decorated_typeIPN6Hinage7Vector2IdEEE3getEv @2057
    _ZN7luabind6detail14decorated_typeIR12AudioManagerE1tE @2058 DATA
    _ZN7luabind6detail14decorated_typeIR12AudioManagerE3getEv @2059
    _ZN7luabind6detail14decorated_typeIRKN6Hinage3MapEE1tE @2060 DATA
    _ZN7luabind6detail14decorated_typeIRKN6Hinage3MapEE3getEv @2061
    _ZN7luabind6detail14decorated_typeIRKN6Hinage7Vector2IdEEE1tE @2062 DATA
    _ZN7luabind6detail14decorated_typeIRKN6Hinage7Vector2IdEEE3getEv @2063
    _ZN7luabind6detail14decorated_typeIRN6Hinage12InputManagerEE1tE @2064 DATA
    _ZN7luabind6detail14decorated_typeIRN6Hinage12InputManagerEE3getEv @2065
    _ZN7luabind6detail14decorated_typeIRN6Hinage14PhysicalEntityEE1tE @2066 DATA
    _ZN7luabind6detail14decorated_typeIRN6Hinage14PhysicalEntityEE3getEv @2067
    _ZN7luabind6detail14decorated_typeIRN6Hinage3MapEE1tE @2068 DATA
    _ZN7luabind6detail14decorated_typeIRN6Hinage3MapEE3getEv @2069
    _ZN7luabind6detail14decorated_typeIRN6Hinage4FontEE1tE @2070 DATA
    _ZN7luabind6detail14decorated_typeIRN6Hinage4FontEE3getEv @2071
    _ZN7luabind6detail14decorated_typeIRN6Hinage4GameEE1tE @2072 DATA
    _ZN7luabind6detail14decorated_typeIRN6Hinage4GameEE3getEv @2073
    _ZN7luabind6detail14decorated_typeIRN6Hinage5TimerEE1tE @2074 DATA
    _ZN7luabind6detail14decorated_typeIRN6Hinage5TimerEE3getEv @2075
    _ZN7luabind6detail14decorated_typeIRN6Hinage7DisplayEE1tE @2076 DATA
    _ZN7luabind6detail14decorated_typeIRN6Hinage7DisplayEE3getEv @2077
    _ZN7luabind6detail14decorated_typeIRN6Hinage7Vector2IdEEE1tE @2078 DATA
    _ZN7luabind6detail14decorated_typeIRN6Hinage7Vector2IdEEE3getEv @2079
    _ZN7luabind6detail14decorated_typeISsE1tE @2080 DATA
    _ZN7luabind6detail14decorated_typeISsE3getEv @2081
    _ZN7luabind6detail14decorated_typeIbE1tE @2082 DATA
    _ZN7luabind6detail14decorated_typeIbE3getEv @2083
    _ZN7luabind6detail14decorated_typeIdE1tE @2084 DATA
    _ZN7luabind6detail14decorated_typeIdE3getEv @2085
    _ZN7luabind6detail14decorated_typeIfE1tE @2086 DATA
    _ZN7luabind6detail14decorated_typeIfE3getEv @2087
    _ZN7luabind6detail14decorated_typeIiE1tE @2088 DATA
    _ZN7luabind6detail14decorated_typeIiE3getEv @2089
    _ZN7luabind6detail14mem_fn_matcherIM12AudioManagerFvSsES2_NS0_9null_typeEEC1ES4_ @2090
    _ZN7luabind6detail14mem_fn_matcherIM12AudioManagerFvSsbES2_NS0_9null_typeEEC1ES4_ @2091
    _ZN7luabind6detail14mem_fn_matcherIM12AudioManagerFvvES2_NS0_9null_typeEEC1ES4_ @2092
    _ZN7luabind6detail14mem_fn_matcherIMN6Hinage12InputManagerEFbiES3_NS0_9null_typeEEC1ES5_ @2093
    _ZN7luabind6detail14mem_fn_matcherIMN6Hinage14PhysicalEntityEFSsvES3_NS0_9null_typeEEC1ES5_ @2094
    _ZN7luabind6detail14mem_fn_matcherIMN6Hinage14PhysicalEntityEFbSsbdES3_NS0_9null_typeEEC1ES5_ @2095
    _ZN7luabind6detail14mem_fn_matcherIMN6Hinage14PhysicalEntityEFdvES3_NS0_9null_typeEEC1ES5_ @2096
    _ZN7luabind6detail14mem_fn_matcherIMN6Hinage14PhysicalEntityEFivES3_NS0_9null_typeEEC1ES5_ @2097
    _ZN7luabind6detail14mem_fn_matcherIMN6Hinage14PhysicalEntityEFvbES3_NS0_9null_typeEEC1ES5_ @2098
    _ZN7luabind6detail14mem_fn_matcherIMN6Hinage14PhysicalEntityEFvdES3_NS0_9null_typeEEC1ES5_ @2099
    _ZN7luabind6detail14mem_fn_matcherIMN6Hinage14PhysicalEntityEFvddES3_NS0_9null_typeEEC1ES5_ @2100
    _ZN7luabind6detail14mem_fn_matcherIMN6Hinage14PhysicalEntityEFvdddES3_NS0_9null_typeEEC1ES5_ @2101
    _ZN7luabind6detail14mem_fn_matcherIMN6Hinage3MapEFRNS2_14PhysicalEntityESsddES3_NS0_9null_typeEEC1ES7_ @2102
    _ZN7luabind6detail14mem_fn_matcherIMN6Hinage3MapEFRNS2_14PhysicalEntityEiES3_NS0_9null_typeEEC1ES7_ @2103
    _ZN7luabind6detail14mem_fn_matcherIMN6Hinage3MapEFivES3_NS0_9null_typeEEC1ES5_ @2104
    _ZN7luabind6detail14mem_fn_matcherIMN6Hinage3MapEFvSsES3_NS0_9null_typeEEC1ES5_ @2105
    _ZN7luabind6detail14mem_fn_matcherIMN6Hinage3MapEFvSsbES3_NS0_9null_typeEEC1ES5_ @2106
    _ZN7luabind6detail14mem_fn_matcherIMN6Hinage3MapEFviES3_NS0_9null_typeEEC1ES5_ @2107
    _ZN7luabind6detail14mem_fn_matcherIMN6Hinage3MapEFvvES3_NS0_9null_typeEEC1ES5_ @2108
    _ZN7luabind6detail14mem_fn_matcherIMN6Hinage3MapEKFivES3_NS0_9null_typeEEC1ES5_ @2109
    _ZN7luabind6detail14mem_fn_matcherIMN6Hinage4GameEFRNS2_4FontESsES3_NS0_9null_typeEEC1ES7_ @2110
    _ZN7luabind6detail14mem_fn_matcherIMN6Hinage4GameEFdvES3_NS0_9null_typeEEC1ES5_ @2111
    _ZN7luabind6detail14mem_fn_matcherIMN6Hinage4GameEFvRNS2_4FontESsddddES3_NS0_9null_typeEEC1ES7_ @2112
    _ZN7luabind6detail14mem_fn_matcherIMN6Hinage4GameEFvdES3_NS0_9null_typeEEC1ES5_ @2113
    _ZN7luabind6detail14mem_fn_matcherIMN6Hinage4GameEFvvES3_NS0_9null_typeEEC1ES5_ @2114
    _ZN7luabind6detail14mem_fn_matcherIMN6Hinage5TimerEFbdES3_NS0_9null_typeEEC1ES5_ @2115
    _ZN7luabind6detail14mem_fn_matcherIMN6Hinage5TimerEFdvES3_NS0_9null_typeEEC1ES5_ @2116
    _ZN7luabind6detail14mem_fn_matcherIMN6Hinage5TimerEFvvES3_NS0_9null_typeEEC1ES5_ @2117
    _ZN7luabind6detail14mem_fn_matcherIMN6Hinage7DisplayEFdvES3_NS0_9null_typeEEC1ES5_ @2118
    _ZN7luabind6detail14mem_fn_matcherIMN6Hinage7DisplayEFfvES3_NS0_9null_typeEEC1ES5_ @2119
    _ZN7luabind6detail14mem_fn_matcherIMN6Hinage7DisplayEFvdES3_NS0_9null_typeEEC1ES5_ @2120
    _ZN7luabind6detail14mem_fn_matcherIMN6Hinage7DisplayEFvffES3_NS0_9null_typeEEC1ES5_ @2121
    _ZN7luabind6detail14mem_fn_matcherIMN6Hinage7Vector2IdEEFvdES4_NS0_9null_typeEEC1ES6_ @2122
    _ZN7luabind6detail14mem_fn_matcherIMN6Hinage7Vector2IdEEFvddES4_NS0_9null_typeEEC1ES6_ @2123
    _ZN7luabind6detail14mem_fn_matcherIMN6Hinage7Vector2IdEEKFdvES4_NS0_9null_typeEEC1ES6_ @2124
    _ZN7luabind6detail14pointee_typeidINS0_65you_need_to_define_a_get_const_holder_function_for_your_smart_ptrEEEPKSt9type_infoPT_ @2125
    _ZN7luabind6detail15const_converterINS0_9null_typeEE5applyINS0_65you_need_to_define_a_get_const_holder_function_for_your_smart_ptrEEEPFvPvS6_EPT_ @2126
    _ZN7luabind6detail15construct_classIN6Hinage5TimerENS0_9null_typeENS_11constructorIS4_S4_S4_S4_S4_S4_S4_S4_S4_S4_EEE5applyEP9lua_StateRKNS_8weak_refE @2127
    _ZN7luabind6detail15construct_classIN6Hinage5TimerENS0_9null_typeENS_11constructorIbS4_S4_S4_S4_S4_S4_S4_S4_S4_EEE5applyEP9lua_StateRKNS_8weak_refE @2128
    _ZN7luabind6detail15construct_classIN6Hinage7Vector2IdEENS0_9null_typeENS_11constructorIS5_S5_S5_S5_S5_S5_S5_S5_S5_S5_EEE5applyEP9lua_StateRKNS_8weak_refE @2129
    _ZN7luabind6detail15construct_classIN6Hinage7Vector2IdEENS0_9null_typeENS_11constructorIddS5_S5_S5_S5_S5_S5_S5_S5_EEE5applyEP9lua_StateRKNS_8weak_refE @2130
    _ZN7luabind6detail15destruct_only_sI12AudioManagerE5applyEPv @2131
    _ZN7luabind6detail15destruct_only_sIN6Hinage12InputManagerEE5applyEPv @2132
    _ZN7luabind6detail15destruct_only_sIN6Hinage14PhysicalEntityEE5applyEPv @2133
    _ZN7luabind6detail15destruct_only_sIN6Hinage3MapEE5applyEPv @2134
    _ZN7luabind6detail15destruct_only_sIN6Hinage4FontEE5applyEPv @2135
    _ZN7luabind6detail15destruct_only_sIN6Hinage4GameEE5applyEPv @2136
    _ZN7luabind6detail15destruct_only_sIN6Hinage5TimerEE5applyEPv @2137
    _ZN7luabind6detail15destruct_only_sIN6Hinage7DisplayEE5applyEPv @2138
    _ZN7luabind6detail15destruct_only_sIN6Hinage7Vector2IdEEE5applyEPv @2139
    _ZN7luabind6detail15is_class_objectEP9lua_Statei @2140
    _ZN7luabind6detail15mem_fn_callbackIM12AudioManagerFvSsES2_NS0_9null_typeEEC1ES4_ @2141
    _ZN7luabind6detail15mem_fn_callbackIM12AudioManagerFvSsbES2_NS0_9null_typeEEC1ES4_ @2142
    _ZN7luabind6detail15mem_fn_callbackIM12AudioManagerFvvES2_NS0_9null_typeEEC1ES4_ @2143
    _ZN7luabind6detail15mem_fn_callbackIMN6Hinage12InputManagerEFbiES3_NS0_9null_typeEEC1ES5_ @2144
    _ZN7luabind6detail15mem_fn_callbackIMN6Hinage14PhysicalEntityEFSsvES3_NS0_9null_typeEEC1ES5_ @2145
    _ZN7luabind6detail15mem_fn_callbackIMN6Hinage14PhysicalEntityEFbSsbdES3_NS0_9null_typeEEC1ES5_ @2146
    _ZN7luabind6detail15mem_fn_callbackIMN6Hinage14PhysicalEntityEFdvES3_NS0_9null_typeEEC1ES5_ @2147
    _ZN7luabind6detail15mem_fn_callbackIMN6Hinage14PhysicalEntityEFivES3_NS0_9null_typeEEC1ES5_ @2148
    _ZN7luabind6detail15mem_fn_callbackIMN6Hinage14PhysicalEntityEFvbES3_NS0_9null_typeEEC1ES5_ @2149
    _ZN7luabind6detail15mem_fn_callbackIMN6Hinage14PhysicalEntityEFvdES3_NS0_9null_typeEEC1ES5_ @2150
    _ZN7luabind6detail15mem_fn_callbackIMN6Hinage14PhysicalEntityEFvddES3_NS0_9null_typeEEC1ES5_ @2151
    _ZN7luabind6detail15mem_fn_callbackIMN6Hinage14PhysicalEntityEFvdddES3_NS0_9null_typeEEC1ES5_ @2152
    _ZN7luabind6detail15mem_fn_callbackIMN6Hinage3MapEFRNS2_14PhysicalEntityESsddES3_NS0_9null_typeEEC1ES7_ @2153
    _ZN7luabind6detail15mem_fn_callbackIMN6Hinage3MapEFRNS2_14PhysicalEntityEiES3_NS0_9null_typeEEC1ES7_ @2154
    _ZN7luabind6detail15mem_fn_callbackIMN6Hinage3MapEFivES3_NS0_9null_typeEEC1ES5_ @2155
    _ZN7luabind6detail15mem_fn_callbackIMN6Hinage3MapEFvSsES3_NS0_9null_typeEEC1ES5_ @2156
    _ZN7luabind6detail15mem_fn_callbackIMN6Hinage3MapEFvSsbES3_NS0_9null_typeEEC1ES5_ @2157
    _ZN7luabind6detail15mem_fn_callbackIMN6Hinage3MapEFviES3_NS0_9null_typeEEC1ES5_ @2158
    _ZN7luabind6detail15mem_fn_callbackIMN6Hinage3MapEFvvES3_NS0_9null_typeEEC1ES5_ @2159
    _ZN7luabind6detail15mem_fn_callbackIMN6Hinage3MapEKFivES3_NS0_9null_typeEEC1ES5_ @2160
    _ZN7luabind6detail15mem_fn_callbackIMN6Hinage4GameEFRNS2_4FontESsES3_NS0_9null_typeEEC1ES7_ @2161
    _ZN7luabind6detail15mem_fn_callbackIMN6Hinage4GameEFdvES3_NS0_9null_typeEEC1ES5_ @2162
    _ZN7luabind6detail15mem_fn_callbackIMN6Hinage4GameEFvRNS2_4FontESsddddES3_NS0_9null_typeEEC1ES7_ @2163
    _ZN7luabind6detail15mem_fn_callbackIMN6Hinage4GameEFvdES3_NS0_9null_typeEEC1ES5_ @2164
    _ZN7luabind6detail15mem_fn_callbackIMN6Hinage4GameEFvvES3_NS0_9null_typeEEC1ES5_ @2165
    _ZN7luabind6detail15mem_fn_callbackIMN6Hinage5TimerEFbdES3_NS0_9null_typeEEC1ES5_ @2166
    _ZN7luabind6detail15mem_fn_callbackIMN6Hinage5TimerEFdvES3_NS0_9null_typeEEC1ES5_ @2167
    _ZN7luabind6detail15mem_fn_callbackIMN6Hinage5TimerEFvvES3_NS0_9null_typeEEC1ES5_ @2168
    _ZN7luabind6detail15mem_fn_callbackIMN6Hinage7DisplayEFdvES3_NS0_9null_typeEEC1ES5_ @2169
    _ZN7luabind6detail15mem_fn_callbackIMN6Hinage7DisplayEFfvES3_NS0_9null_typeEEC1ES5_ @2170
    _ZN7luabind6detail15mem_fn_callbackIMN6Hinage7DisplayEFvdES3_NS0_9null_typeEEC1ES5_ @2171
    _ZN7luabind6detail15mem_fn_callbackIMN6Hinage7DisplayEFvffES3_NS0_9null_typeEEC1ES5_ @2172
    _ZN7luabind6detail15mem_fn_callbackIMN6Hinage7Vector2IdEEFvdES4_NS0_9null_typeEEC1ES6_ @2173
    _ZN7luabind6detail15mem_fn_callbackIMN6Hinage7Vector2IdEEFvddES4_NS0_9null_typeEEC1ES6_ @2174
    _ZN7luabind6detail15mem_fn_callbackIMN6Hinage7Vector2IdEEKFdvES4_NS0_9null_typeEEC1ES6_ @2175
    _ZN7luabind6detail17constructor_matchINS_11constructorINS0_9null_typeES3_S3_S3_S3_S3_S3_S3_S3_S3_EELi2ES3_E5applyEP9lua_State @2176
    _ZN7luabind6detail17constructor_matchINS_11constructorIbNS0_9null_typeES3_S3_S3_S3_S3_S3_S3_S3_EELi2ES3_E5applyEP9lua_State @2177
    _ZN7luabind6detail17constructor_matchINS_11constructorIddNS0_9null_typeES3_S3_S3_S3_S3_S3_S3_EELi2ES3_E5applyEP9lua_State @2178
    _ZN7luabind6detail17match_constructorILi0EE5applyINS0_9null_typeES4_S4_S4_S4_S4_S4_S4_S4_S4_S4_EEiP9lua_StateiPKNS_11constructorIT_T0_T1_T2_T3_T4_T5_T6_T7_T8_EEPKT9_ @2179
    _ZN7luabind6detail17match_constructorILi1EE5applyIR12AudioManagerNS0_9null_typeES6_S6_S6_S6_S6_S6_S6_S6_S6_EEiP9lua_StateiPKNS_11constructorIT_T0_T1_T2_T3_T4_T5_T6_T7_T8_EEPKT9_ @2180
    _ZN7luabind6detail17match_constructorILi1EE5applyIRKN6Hinage3MapENS0_9null_typeES8_S8_S8_S8_S8_S8_S8_S8_S8_EEiP9lua_StateiPKNS_11constructorIT_T0_T1_T2_T3_T4_T5_T6_T7_T8_EEPKT9_ @2181
    _ZN7luabind6detail17match_constructorILi1EE5applyIRKN6Hinage7Vector2IdEENS0_9null_typeES9_S9_S9_S9_S9_S9_S9_S9_S9_EEiP9lua_StateiPKNS_11constructorIT_T0_T1_T2_T3_T4_T5_T6_T7_T8_EEPKT9_ @2182
    _ZN7luabind6detail17match_constructorILi1EE5applyIRN6Hinage14PhysicalEntityENS0_9null_typeES7_S7_S7_S7_S7_S7_S7_S7_S7_EEiP9lua_StateiPKNS_11constructorIT_T0_T1_T2_T3_T4_T5_T6_T7_T8_EEPKT9_ @2183
    _ZN7luabind6detail17match_constructorILi1EE5applyIRN6Hinage3MapENS0_9null_typeES7_S7_S7_S7_S7_S7_S7_S7_S7_EEiP9lua_StateiPKNS_11constructorIT_T0_T1_T2_T3_T4_T5_T6_T7_T8_EEPKT9_ @2184
    _ZN7luabind6detail17match_constructorILi1EE5applyIRN6Hinage4GameENS0_9null_typeES7_S7_S7_S7_S7_S7_S7_S7_S7_EEiP9lua_StateiPKNS_11constructorIT_T0_T1_T2_T3_T4_T5_T6_T7_T8_EEPKT9_ @2185
    _ZN7luabind6detail17match_constructorILi1EE5applyIRN6Hinage5TimerENS0_9null_typeES7_S7_S7_S7_S7_S7_S7_S7_S7_EEiP9lua_StateiPKNS_11constructorIT_T0_T1_T2_T3_T4_T5_T6_T7_T8_EEPKT9_ @2186
    _ZN7luabind6detail17match_constructorILi1EE5applyIRN6Hinage7DisplayENS0_9null_typeES7_S7_S7_S7_S7_S7_S7_S7_S7_EEiP9lua_StateiPKNS_11constructorIT_T0_T1_T2_T3_T4_T5_T6_T7_T8_EEPKT9_ @2187
    _ZN7luabind6detail17match_constructorILi1EE5applyIbNS0_9null_typeES4_S4_S4_S4_S4_S4_S4_S4_S4_EEiP9lua_StateiPKNS_11constructorIT_T0_T1_T2_T3_T4_T5_T6_T7_T8_EEPKT9_ @2188
    _ZN7luabind6detail17match_constructorILi2EE5applyIR12AudioManagerSsNS0_9null_typeES6_S6_S6_S6_S6_S6_S6_S6_EEiP9lua_StateiPKNS_11constructorIT_T0_T1_T2_T3_T4_T5_T6_T7_T8_EEPKT9_ @2189
    _ZN7luabind6detail17match_constructorILi2EE5applyIRN6Hinage12InputManagerEiNS0_9null_typeES7_S7_S7_S7_S7_S7_S7_S7_EEiP9lua_StateiPKNS_11constructorIT_T0_T1_T2_T3_T4_T5_T6_T7_T8_EEPKT9_ @2190
    _ZN7luabind6detail17match_constructorILi2EE5applyIRN6Hinage14PhysicalEntityEbNS0_9null_typeES7_S7_S7_S7_S7_S7_S7_S7_EEiP9lua_StateiPKNS_11constructorIT_T0_T1_T2_T3_T4_T5_T6_T7_T8_EEPKT9_ @2191
    _ZN7luabind6detail17match_constructorILi2EE5applyIRN6Hinage14PhysicalEntityEdNS0_9null_typeES7_S7_S7_S7_S7_S7_S7_S7_EEiP9lua_StateiPKNS_11constructorIT_T0_T1_T2_T3_T4_T5_T6_T7_T8_EEPKT9_ @2192
    _ZN7luabind6detail17match_constructorILi2EE5applyIRN6Hinage3MapESsNS0_9null_typeES7_S7_S7_S7_S7_S7_S7_S7_EEiP9lua_StateiPKNS_11constructorIT_T0_T1_T2_T3_T4_T5_T6_T7_T8_EEPKT9_ @2193
    _ZN7luabind6detail17match_constructorILi2EE5applyIRN6Hinage3MapEiNS0_9null_typeES7_S7_S7_S7_S7_S7_S7_S7_EEiP9lua_StateiPKNS_11constructorIT_T0_T1_T2_T3_T4_T5_T6_T7_T8_EEPKT9_ @2194
    _ZN7luabind6detail17match_constructorILi2EE5applyIRN6Hinage4GameESsNS0_9null_typeES7_S7_S7_S7_S7_S7_S7_S7_EEiP9lua_StateiPKNS_11constructorIT_T0_T1_T2_T3_T4_T5_T6_T7_T8_EEPKT9_ @2195
    _ZN7luabind6detail17match_constructorILi2EE5applyIRN6Hinage4GameEdNS0_9null_typeES7_S7_S7_S7_S7_S7_S7_S7_EEiP9lua_StateiPKNS_11constructorIT_T0_T1_T2_T3_T4_T5_T6_T7_T8_EEPKT9_ @2196
    _ZN7luabind6detail17match_constructorILi2EE5applyIRN6Hinage5TimerEdNS0_9null_typeES7_S7_S7_S7_S7_S7_S7_S7_EEiP9lua_StateiPKNS_11constructorIT_T0_T1_T2_T3_T4_T5_T6_T7_T8_EEPKT9_ @2197
    _ZN7luabind6detail17match_constructorILi2EE5applyIRN6Hinage7DisplayEdNS0_9null_typeES7_S7_S7_S7_S7_S7_S7_S7_EEiP9lua_StateiPKNS_11constructorIT_T0_T1_T2_T3_T4_T5_T6_T7_T8_EEPKT9_ @2198
    _ZN7luabind6detail17match_constructorILi2EE5applyIRN6Hinage7Vector2IdEEdNS0_9null_typeES8_S8_S8_S8_S8_S8_S8_S8_EEiP9lua_StateiPKNS_11constructorIT_T0_T1_T2_T3_T4_T5_T6_T7_T8_EEPKT9_ @2199
    _ZN7luabind6detail17match_constructorILi2EE5applyIddNS0_9null_typeES4_S4_S4_S4_S4_S4_S4_S4_EEiP9lua_StateiPKNS_11constructorIT_T0_T1_T2_T3_T4_T5_T6_T7_T8_EEPKT9_ @2200
    _ZN7luabind6detail17match_constructorILi3EE5applyIR12AudioManagerSsbNS0_9null_typeES6_S6_S6_S6_S6_S6_S6_EEiP9lua_StateiPKNS_11constructorIT_T0_T1_T2_T3_T4_T5_T6_T7_T8_EEPKT9_ @2201
    _ZN7luabind6detail17match_constructorILi3EE5applyIRN6Hinage14PhysicalEntityEddNS0_9null_typeES7_S7_S7_S7_S7_S7_S7_EEiP9lua_StateiPKNS_11constructorIT_T0_T1_T2_T3_T4_T5_T6_T7_T8_EEPKT9_ @2202
    _ZN7luabind6detail17match_constructorILi3EE5applyIRN6Hinage3MapESsbNS0_9null_typeES7_S7_S7_S7_S7_S7_S7_EEiP9lua_StateiPKNS_11constructorIT_T0_T1_T2_T3_T4_T5_T6_T7_T8_EEPKT9_ @2203
    _ZN7luabind6detail17match_constructorILi3EE5applyIRN6Hinage7DisplayEffNS0_9null_typeES7_S7_S7_S7_S7_S7_S7_EEiP9lua_StateiPKNS_11constructorIT_T0_T1_T2_T3_T4_T5_T6_T7_T8_EEPKT9_ @2204
    _ZN7luabind6detail17match_constructorILi3EE5applyIRN6Hinage7Vector2IdEEddNS0_9null_typeES8_S8_S8_S8_S8_S8_S8_EEiP9lua_StateiPKNS_11constructorIT_T0_T1_T2_T3_T4_T5_T6_T7_T8_EEPKT9_ @2205
    _ZN7luabind6detail17match_constructorILi4EE5applyIRN6Hinage14PhysicalEntityESsbdNS0_9null_typeES7_S7_S7_S7_S7_S7_EEiP9lua_StateiPKNS_11constructorIT_T0_T1_T2_T3_T4_T5_T6_T7_T8_EEPKT9_ @2206
    _ZN7luabind6detail17match_constructorILi4EE5applyIRN6Hinage14PhysicalEntityEdddNS0_9null_typeES7_S7_S7_S7_S7_S7_EEiP9lua_StateiPKNS_11constructorIT_T0_T1_T2_T3_T4_T5_T6_T7_T8_EEPKT9_ @2207
    _ZN7luabind6detail17match_constructorILi4EE5applyIRN6Hinage3MapESsddNS0_9null_typeES7_S7_S7_S7_S7_S7_EEiP9lua_StateiPKNS_11constructorIT_T0_T1_T2_T3_T4_T5_T6_T7_T8_EEPKT9_ @2208
    _ZN7luabind6detail17match_constructorILi7EE5applyIRN6Hinage4GameERNS4_4FontESsddddNS0_9null_typeES9_S9_S9_EEiP9lua_StateiPKNS_11constructorIT_T0_T1_T2_T3_T4_T5_T6_T7_T8_EEPKT9_ @2209
    _ZN7luabind6detail17overload_rep_base11set_sig_funEPFvP9lua_StateRSsE @2210
    _ZN7luabind6detail17overload_rep_base13set_match_funERKN5boost9function1IiP9lua_StateSaINS2_13function_baseEEEE @2211
    _ZN7luabind6detail17overload_rep_baseC2Ev @2212
    _ZN7luabind6detail17overload_rep_baseD2Ev @2213
    _ZN7luabind6detail17pointer_converterINS0_10cpp_to_luaEE5applyI12AudioManagerEEvP9lua_StatePT_ @2214
    _ZN7luabind6detail17pointer_converterINS0_10cpp_to_luaEE5applyIN6Hinage12InputManagerEEEvP9lua_StatePT_ @2215
    _ZN7luabind6detail17pointer_converterINS0_10cpp_to_luaEE5applyIN6Hinage3MapEEEvP9lua_StatePT_ @2216
    _ZN7luabind6detail17pointer_converterINS0_10cpp_to_luaEE5applyIN6Hinage4GameEEEvP9lua_StatePT_ @2217
    _ZN7luabind6detail17pointer_converterINS0_10cpp_to_luaEE5applyIN6Hinage5TimerEEEvP9lua_StatePT_ @2218
    _ZN7luabind6detail17pointer_converterINS0_10cpp_to_luaEE5applyIN6Hinage7DisplayEEEvP9lua_StatePT_ @2219
    _ZN7luabind6detail17pointer_converterINS0_10lua_to_cppEE5applyI12AudioManagerEENS0_12make_pointerIT_E4typeEP9lua_StateNS0_10by_pointerIS7_EEi @2220
    _ZN7luabind6detail17pointer_converterINS0_10lua_to_cppEE5applyIN6Hinage12InputManagerEEENS0_12make_pointerIT_E4typeEP9lua_StateNS0_10by_pointerIS8_EEi @2221
    _ZN7luabind6detail17pointer_converterINS0_10lua_to_cppEE5applyIN6Hinage14PhysicalEntityEEENS0_12make_pointerIT_E4typeEP9lua_StateNS0_10by_pointerIS8_EEi @2222
    _ZN7luabind6detail17pointer_converterINS0_10lua_to_cppEE5applyIN6Hinage3MapEEENS0_12make_pointerIT_E4typeEP9lua_StateNS0_10by_pointerIS8_EEi @2223
    _ZN7luabind6detail17pointer_converterINS0_10lua_to_cppEE5applyIN6Hinage4FontEEENS0_12make_pointerIT_E4typeEP9lua_StateNS0_10by_pointerIS8_EEi @2224
    _ZN7luabind6detail17pointer_converterINS0_10lua_to_cppEE5applyIN6Hinage4GameEEENS0_12make_pointerIT_E4typeEP9lua_StateNS0_10by_pointerIS8_EEi @2225
    _ZN7luabind6detail17pointer_converterINS0_10lua_to_cppEE5applyIN6Hinage5TimerEEENS0_12make_pointerIT_E4typeEP9lua_StateNS0_10by_pointerIS8_EEi @2226
    _ZN7luabind6detail17pointer_converterINS0_10lua_to_cppEE5applyIN6Hinage7DisplayEEENS0_12make_pointerIT_E4typeEP9lua_StateNS0_10by_pointerIS8_EEi @2227
    _ZN7luabind6detail17pointer_converterINS0_10lua_to_cppEE5applyIN6Hinage7Vector2IdEEEENS0_12make_pointerIT_E4typeEP9lua_StateNS0_10by_pointerIS9_EEi @2228
    _ZN7luabind6detail17pointer_converterINS0_10lua_to_cppEE5matchI12AudioManagerEEiP9lua_StateNS0_10by_pointerIT_EEi @2229
    _ZN7luabind6detail17pointer_converterINS0_10lua_to_cppEE5matchIN6Hinage12InputManagerEEEiP9lua_StateNS0_10by_pointerIT_EEi @2230
    _ZN7luabind6detail17pointer_converterINS0_10lua_to_cppEE5matchIN6Hinage14PhysicalEntityEEEiP9lua_StateNS0_10by_pointerIT_EEi @2231
    _ZN7luabind6detail17pointer_converterINS0_10lua_to_cppEE5matchIN6Hinage3MapEEEiP9lua_StateNS0_10by_pointerIT_EEi @2232
    _ZN7luabind6detail17pointer_converterINS0_10lua_to_cppEE5matchIN6Hinage4FontEEEiP9lua_StateNS0_10by_pointerIT_EEi @2233
    _ZN7luabind6detail17pointer_converterINS0_10lua_to_cppEE5matchIN6Hinage4GameEEEiP9lua_StateNS0_10by_pointerIT_EEi @2234
    _ZN7luabind6detail17pointer_converterINS0_10lua_to_cppEE5matchIN6Hinage5TimerEEEiP9lua_StateNS0_10by_pointerIT_EEi @2235
    _ZN7luabind6detail17pointer_converterINS0_10lua_to_cppEE5matchIN6Hinage7DisplayEEEiP9lua_StateNS0_10by_pointerIT_EEi @2236
    _ZN7luabind6detail17pointer_converterINS0_10lua_to_cppEE5matchIN6Hinage7Vector2IdEEEEiP9lua_StateNS0_10by_pointerIT_EEi @2237
    _ZN7luabind6detail17pointer_converterINS0_10lua_to_cppEEC1Ev @2238
    _ZN7luabind6detail17pointer_converterINS0_10lua_to_cppEEC2Ev @2239
    _ZN7luabind6detail17pointer_converterINS0_10lua_to_cppEED1Ev @2240
    _ZN7luabind6detail17pointer_converterINS0_10lua_to_cppEED2Ev @2241
    _ZN7luabind6detail18constructor_helperILi0EE7executeIN6Hinage5TimerENS0_9null_typeES6_S6_S6_S6_S6_S6_S6_S6_S6_S6_EEPT_P9lua_StateRKNS_8weak_refES8_PNS_11constructorIT1_T2_T3_T4_T5_T6_T7_T8_T9_T10_EEPT0_ @2242
    _ZN7luabind6detail18constructor_helperILi0EE7executeIN6Hinage7Vector2IdEENS0_9null_typeES7_S7_S7_S7_S7_S7_S7_S7_S7_S7_EEPT_P9lua_StateRKNS_8weak_refES9_PNS_11constructorIT1_T2_T3_T4_T5_T6_T7_T8_T9_T10_EEPT0_ @2243
    _ZN7luabind6detail18constructor_helperILi1EE7executeIN6Hinage5TimerENS0_9null_typeEbS6_S6_S6_S6_S6_S6_S6_S6_S6_EEPT_P9lua_StateRKNS_8weak_refES8_PNS_11constructorIT1_T2_T3_T4_T5_T6_T7_T8_T9_T10_EEPT0_ @2244
    _ZN7luabind6detail18constructor_helperILi2EE7executeIN6Hinage7Vector2IdEENS0_9null_typeEddS7_S7_S7_S7_S7_S7_S7_S7_EEPT_P9lua_StateRKNS_8weak_refES9_PNS_11constructorIT1_T2_T3_T4_T5_T6_T7_T8_T9_T10_EEPT0_ @2245
    _ZN7luabind6detail18get_back_referenceIN6Hinage14PhysicalEntityEEEPKNS_9wrap_baseERKT_ @2246
    _ZN7luabind6detail18get_back_referenceIN6Hinage4FontEEEPKNS_9wrap_baseERKT_ @2247
    _ZN7luabind6detail18get_back_referenceIP12AudioManagerEEPKNS_9wrap_baseERKT_ @2248
    _ZN7luabind6detail18get_back_referenceIPN6Hinage12InputManagerEEEPKNS_9wrap_baseERKT_ @2249
    _ZN7luabind6detail18get_back_referenceIPN6Hinage3MapEEEPKNS_9wrap_baseERKT_ @2250
    _ZN7luabind6detail18get_back_referenceIPN6Hinage4GameEEEPKNS_9wrap_baseERKT_ @2251
    _ZN7luabind6detail18get_back_referenceIPN6Hinage5TimerEEEPKNS_9wrap_baseERKT_ @2252
    _ZN7luabind6detail18get_back_referenceIPN6Hinage7DisplayEEEPKNS_9wrap_baseERKT_ @2253
    _ZN7luabind6detail18get_signature_implINS0_9null_typeES2_S2_S2_S2_S2_S2_S2_S2_S2_EEvPKNS_11constructorIT_T0_T1_T2_T3_T4_T5_T6_T7_T8_EEP9lua_StateRSs @2254
    _ZN7luabind6detail18get_signature_implIbNS0_9null_typeES2_S2_S2_S2_S2_S2_S2_S2_EEvPKNS_11constructorIT_T0_T1_T2_T3_T4_T5_T6_T7_T8_EEP9lua_StateRSs @2255
    _ZN7luabind6detail18get_signature_implIddNS0_9null_typeES2_S2_S2_S2_S2_S2_S2_EEvPKNS_11constructorIT_T0_T1_T2_T3_T4_T5_T6_T7_T8_EEP9lua_StateRSs @2256
    _ZN7luabind6detail18holder_constructorINS0_9null_typeEE5applyI12AudioManagerEEPFvPvS6_ENS0_5type_IT_EE @2257
    _ZN7luabind6detail18holder_constructorINS0_9null_typeEE5applyIN6Hinage12InputManagerEEEPFvPvS7_ENS0_5type_IT_EE @2258
    _ZN7luabind6detail18holder_constructorINS0_9null_typeEE5applyIN6Hinage14PhysicalEntityEEEPFvPvS7_ENS0_5type_IT_EE @2259
    _ZN7luabind6detail18holder_constructorINS0_9null_typeEE5applyIN6Hinage3MapEEEPFvPvS7_ENS0_5type_IT_EE @2260
    _ZN7luabind6detail18holder_constructorINS0_9null_typeEE5applyIN6Hinage4FontEEEPFvPvS7_ENS0_5type_IT_EE @2261
    _ZN7luabind6detail18holder_constructorINS0_9null_typeEE5applyIN6Hinage4GameEEEPFvPvS7_ENS0_5type_IT_EE @2262
    _ZN7luabind6detail18holder_constructorINS0_9null_typeEE5applyIN6Hinage5TimerEEEPFvPvS7_ENS0_5type_IT_EE @2263
    _ZN7luabind6detail18holder_constructorINS0_9null_typeEE5applyIN6Hinage7DisplayEEEPFvPvS7_ENS0_5type_IT_EE @2264
    _ZN7luabind6detail18holder_constructorINS0_9null_typeEE5applyIN6Hinage7Vector2IdEEEEPFvPvS8_ENS0_5type_IT_EE @2265
    _ZN7luabind6detail19const_ref_converterINS0_10lua_to_cppEE5matchIN6Hinage3MapEEEiP9lua_StateNS0_18by_const_referenceIT_EEi @2266
    _ZN7luabind6detail19const_ref_converterINS0_10lua_to_cppEE5matchIN6Hinage7Vector2IdEEEEiP9lua_StateNS0_18by_const_referenceIT_EEi @2267
    _ZN7luabind6detail19primitive_converterINS0_10cpp_to_luaEE5applyEP9lua_StatePKc @2268
    _ZN7luabind6detail19primitive_converterINS0_10cpp_to_luaEE5applyEP9lua_StateRKSs @2269
    _ZN7luabind6detail19primitive_converterINS0_10cpp_to_luaEE5applyEP9lua_Stateb @2270
    _ZN7luabind6detail19primitive_converterINS0_10cpp_to_luaEE5applyEP9lua_Stated @2271
    _ZN7luabind6detail19primitive_converterINS0_10cpp_to_luaEE5applyEP9lua_Statef @2272
    _ZN7luabind6detail19primitive_converterINS0_10cpp_to_luaEE5applyEP9lua_Statei @2273
    _ZN7luabind6detail19primitive_converterINS0_10lua_to_cppEE18converter_postcallINS0_8by_valueISsEEEEvP9lua_StateT_i @2274
    _ZN7luabind6detail19primitive_converterINS0_10lua_to_cppEE18converter_postcallINS0_8by_valueIbEEEEvP9lua_StateT_i @2275
    _ZN7luabind6detail19primitive_converterINS0_10lua_to_cppEE18converter_postcallINS0_8by_valueIdEEEEvP9lua_StateT_i @2276
    _ZN7luabind6detail19primitive_converterINS0_10lua_to_cppEE18converter_postcallINS0_8by_valueIfEEEEvP9lua_StateT_i @2277
    _ZN7luabind6detail19primitive_converterINS0_10lua_to_cppEE18converter_postcallINS0_8by_valueIiEEEEvP9lua_StateT_i @2278
    _ZN7luabind6detail19primitive_converterINS0_10lua_to_cppEE5applyEP9lua_StateNS0_8by_valueISsEEi @2279
    _ZN7luabind6detail19primitive_converterINS0_10lua_to_cppEE5applyEP9lua_StateNS0_8by_valueIbEEi @2280
    _ZN7luabind6detail19primitive_converterINS0_10lua_to_cppEE5applyEP9lua_StateNS0_8by_valueIdEEi @2281
    _ZN7luabind6detail19primitive_converterINS0_10lua_to_cppEE5applyEP9lua_StateNS0_8by_valueIfEEi @2282
    _ZN7luabind6detail19primitive_converterINS0_10lua_to_cppEE5applyEP9lua_StateNS0_8by_valueIiEEi @2283
    _ZN7luabind6detail19primitive_converterINS0_10lua_to_cppEE5matchEP9lua_StateNS0_8by_valueISsEEi @2284
    _ZN7luabind6detail19primitive_converterINS0_10lua_to_cppEE5matchEP9lua_StateNS0_8by_valueIbEEi @2285
    _ZN7luabind6detail19primitive_converterINS0_10lua_to_cppEE5matchEP9lua_StateNS0_8by_valueIdEEi @2286
    _ZN7luabind6detail19primitive_converterINS0_10lua_to_cppEE5matchEP9lua_StateNS0_8by_valueIfEEi @2287
    _ZN7luabind6detail19primitive_converterINS0_10lua_to_cppEE5matchEP9lua_StateNS0_8by_valueIiEEi @2288
    _ZN7luabind6detail20get_holder_alignmentINS0_9null_typeEE5applyEv @2289
    _ZN7luabind6detail20get_member_signatureIM12AudioManagerFvSsEE5applyEP9lua_StateRSs @2290
    _ZN7luabind6detail20get_member_signatureIM12AudioManagerFvSsbEE5applyEP9lua_StateRSs @2291
    _ZN7luabind6detail20get_member_signatureIM12AudioManagerFvvEE5applyEP9lua_StateRSs @2292
    _ZN7luabind6detail20get_member_signatureIMN6Hinage12InputManagerEFbiEE5applyEP9lua_StateRSs @2293
    _ZN7luabind6detail20get_member_signatureIMN6Hinage14PhysicalEntityEFSsvEE5applyEP9lua_StateRSs @2294
    _ZN7luabind6detail20get_member_signatureIMN6Hinage14PhysicalEntityEFbSsbdEE5applyEP9lua_StateRSs @2295
    _ZN7luabind6detail20get_member_signatureIMN6Hinage14PhysicalEntityEFdvEE5applyEP9lua_StateRSs @2296
    _ZN7luabind6detail20get_member_signatureIMN6Hinage14PhysicalEntityEFivEE5applyEP9lua_StateRSs @2297
    _ZN7luabind6detail20get_member_signatureIMN6Hinage14PhysicalEntityEFvbEE5applyEP9lua_StateRSs @2298
    _ZN7luabind6detail20get_member_signatureIMN6Hinage14PhysicalEntityEFvdEE5applyEP9lua_StateRSs @2299
    _ZN7luabind6detail20get_member_signatureIMN6Hinage14PhysicalEntityEFvddEE5applyEP9lua_StateRSs @2300
    _ZN7luabind6detail20get_member_signatureIMN6Hinage14PhysicalEntityEFvdddEE5applyEP9lua_StateRSs @2301
    _ZN7luabind6detail20get_member_signatureIMN6Hinage3MapEFRNS2_14PhysicalEntityESsddEE5applyEP9lua_StateRSs @2302
    _ZN7luabind6detail20get_member_signatureIMN6Hinage3MapEFRNS2_14PhysicalEntityEiEE5applyEP9lua_StateRSs @2303
    _ZN7luabind6detail20get_member_signatureIMN6Hinage3MapEFivEE5applyEP9lua_StateRSs @2304
    _ZN7luabind6detail20get_member_signatureIMN6Hinage3MapEFvSsEE5applyEP9lua_StateRSs @2305
    _ZN7luabind6detail20get_member_signatureIMN6Hinage3MapEFvSsbEE5applyEP9lua_StateRSs @2306
    _ZN7luabind6detail20get_member_signatureIMN6Hinage3MapEFviEE5applyEP9lua_StateRSs @2307
    _ZN7luabind6detail20get_member_signatureIMN6Hinage3MapEFvvEE5applyEP9lua_StateRSs @2308
    _ZN7luabind6detail20get_member_signatureIMN6Hinage3MapEKFivEE5applyEP9lua_StateRSs @2309
    _ZN7luabind6detail20get_member_signatureIMN6Hinage4GameEFRNS2_4FontESsEE5applyEP9lua_StateRSs @2310
    _ZN7luabind6detail20get_member_signatureIMN6Hinage4GameEFdvEE5applyEP9lua_StateRSs @2311
    _ZN7luabind6detail20get_member_signatureIMN6Hinage4GameEFvRNS2_4FontESsddddEE5applyEP9lua_StateRSs @2312
    _ZN7luabind6detail20get_member_signatureIMN6Hinage4GameEFvdEE5applyEP9lua_StateRSs @2313
    _ZN7luabind6detail20get_member_signatureIMN6Hinage4GameEFvvEE5applyEP9lua_StateRSs @2314
    _ZN7luabind6detail20get_member_signatureIMN6Hinage5TimerEFbdEE5applyEP9lua_StateRSs @2315
    _ZN7luabind6detail20get_member_signatureIMN6Hinage5TimerEFdvEE5applyEP9lua_StateRSs @2316
    _ZN7luabind6detail20get_member_signatureIMN6Hinage5TimerEFvvEE5applyEP9lua_StateRSs @2317
    _ZN7luabind6detail20get_member_signatureIMN6Hinage7DisplayEFdvEE5applyEP9lua_StateRSs @2318
    _ZN7luabind6detail20get_member_signatureIMN6Hinage7DisplayEFfvEE5applyEP9lua_StateRSs @2319
    _ZN7luabind6detail20get_member_signatureIMN6Hinage7DisplayEFvdEE5applyEP9lua_StateRSs @2320
    _ZN7luabind6detail20get_member_signatureIMN6Hinage7DisplayEFvffEE5applyEP9lua_StateRSs @2321
    _ZN7luabind6detail20get_member_signatureIMN6Hinage7Vector2IdEEFvdEE5applyEP9lua_StateRSs @2322
    _ZN7luabind6detail20get_member_signatureIMN6Hinage7Vector2IdEEFvddEE5applyEP9lua_StateRSs @2323
    _ZN7luabind6detail20get_member_signatureIMN6Hinage7Vector2IdEEKFdvEE5applyEP9lua_StateRSs @2324
    _ZN7luabind6detail20internal_holder_sizeINS0_9null_typeEE5applyEv @2325
    _ZN7luabind6detail20internal_holder_typeINS0_9null_typeEE5applyEv @2326
    _ZN7luabind6detail20policy_list_postcallINS0_9null_typeEE5applyEP9lua_StateRKNS_9index_mapE @2327
    _ZN7luabind6detail21type_name_unless_voidINS0_9null_typeEE5applyERSsP9lua_Stateb @2328
    _ZN7luabind6detail21type_name_unless_voidISsE5applyERSsP9lua_Stateb @2329
    _ZN7luabind6detail21type_name_unless_voidIbE5applyERSsP9lua_Stateb @2330
    _ZN7luabind6detail21type_name_unless_voidIdE5applyERSsP9lua_Stateb @2331
    _ZN7luabind6detail21type_name_unless_voidIfE5applyERSsP9lua_Stateb @2332
    _ZN7luabind6detail23const_pointer_converterINS0_10lua_to_cppEE5applyIN6Hinage3MapEEENS0_18make_const_pointerIT_E4typeEP9lua_StateNS0_16by_const_pointerIS8_EEi @2333
    _ZN7luabind6detail23const_pointer_converterINS0_10lua_to_cppEE5applyIN6Hinage7Vector2IdEEEENS0_18make_const_pointerIT_E4typeEP9lua_StateNS0_16by_const_pointerIS9_EEi @2334
    _ZN7luabind6detail23const_pointer_converterINS0_10lua_to_cppEEC1Ev @2335
    _ZN7luabind6detail23const_pointer_converterINS0_10lua_to_cppEED1Ev @2336
    _ZN7luabind6detail23get_back_reference_aux0I12AudioManagerEEPKNS_9wrap_baseEPKT_N4mpl_5bool_ILb0EEE @2337
    _ZN7luabind6detail23get_back_reference_aux0IN6Hinage12InputManagerEEEPKNS_9wrap_baseEPKT_N4mpl_5bool_ILb0EEE @2338
    _ZN7luabind6detail23get_back_reference_aux0IN6Hinage14PhysicalEntityEEEPKNS_9wrap_baseEPKT_N4mpl_5bool_ILb1EEE @2339
    _ZN7luabind6detail23get_back_reference_aux0IN6Hinage3MapEEEPKNS_9wrap_baseEPKT_N4mpl_5bool_ILb0EEE @2340
    _ZN7luabind6detail23get_back_reference_aux0IN6Hinage4FontEEEPKNS_9wrap_baseEPKT_N4mpl_5bool_ILb0EEE @2341
    _ZN7luabind6detail23get_back_reference_aux0IN6Hinage4GameEEEPKNS_9wrap_baseEPKT_N4mpl_5bool_ILb1EEE @2342
    _ZN7luabind6detail23get_back_reference_aux0IN6Hinage5TimerEEEPKNS_9wrap_baseEPKT_N4mpl_5bool_ILb0EEE @2343
    _ZN7luabind6detail23get_back_reference_aux0IN6Hinage7DisplayEEEPKNS_9wrap_baseEPKT_N4mpl_5bool_ILb0EEE @2344
    _ZN7luabind6detail23get_back_reference_aux1I12AudioManagerEEPKNS_9wrap_baseEPKT_ @2345
    _ZN7luabind6detail23get_back_reference_aux1IN6Hinage12InputManagerEEEPKNS_9wrap_baseEPKT_ @2346
    _ZN7luabind6detail23get_back_reference_aux1IN6Hinage14PhysicalEntityEEEPKNS_9wrap_baseEPKT_ @2347
    _ZN7luabind6detail23get_back_reference_aux1IN6Hinage3MapEEEPKNS_9wrap_baseEPKT_ @2348
    _ZN7luabind6detail23get_back_reference_aux1IN6Hinage4FontEEEPKNS_9wrap_baseEPKT_ @2349
    _ZN7luabind6detail23get_back_reference_aux1IN6Hinage4GameEEEPKNS_9wrap_baseEPKT_ @2350
    _ZN7luabind6detail23get_back_reference_aux1IN6Hinage5TimerEEEPKNS_9wrap_baseEPKT_ @2351
    _ZN7luabind6detail23get_back_reference_aux1IN6Hinage7DisplayEEEPKNS_9wrap_baseEPKT_ @2352
    _ZN7luabind6detail23get_back_reference_aux2IN6Hinage14PhysicalEntityEEEPKNS_9wrap_baseERKT_N4mpl_5bool_ILb0EEE @2353
    _ZN7luabind6detail23get_back_reference_aux2IN6Hinage4FontEEEPKNS_9wrap_baseERKT_N4mpl_5bool_ILb0EEE @2354
    _ZN7luabind6detail23get_back_reference_aux2IP12AudioManagerEEPKNS_9wrap_baseERKT_N4mpl_5bool_ILb1EEE @2355
    _ZN7luabind6detail23get_back_reference_aux2IPN6Hinage12InputManagerEEEPKNS_9wrap_baseERKT_N4mpl_5bool_ILb1EEE @2356
    _ZN7luabind6detail23get_back_reference_aux2IPN6Hinage3MapEEEPKNS_9wrap_baseERKT_N4mpl_5bool_ILb1EEE @2357
    _ZN7luabind6detail23get_back_reference_aux2IPN6Hinage4GameEEEPKNS_9wrap_baseERKT_N4mpl_5bool_ILb1EEE @2358
    _ZN7luabind6detail23get_back_reference_aux2IPN6Hinage5TimerEEEPKNS_9wrap_baseERKT_N4mpl_5bool_ILb1EEE @2359
    _ZN7luabind6detail23get_back_reference_aux2IPN6Hinage7DisplayEEEPKNS_9wrap_baseERKT_N4mpl_5bool_ILb1EEE @2360
    _ZN7luabind6detail24check_link_compatibilityEv @2361
    _ZN7luabind6detail24const_holder_constructorINS0_9null_typeEE5applyI12AudioManagerEEPFvPvS6_ENS0_5type_IT_EE @2362
    _ZN7luabind6detail24const_holder_constructorINS0_9null_typeEE5applyIN6Hinage12InputManagerEEEPFvPvS7_ENS0_5type_IT_EE @2363
    _ZN7luabind6detail24const_holder_constructorINS0_9null_typeEE5applyIN6Hinage14PhysicalEntityEEEPFvPvS7_ENS0_5type_IT_EE @2364
    _ZN7luabind6detail24const_holder_constructorINS0_9null_typeEE5applyIN6Hinage3MapEEEPFvPvS7_ENS0_5type_IT_EE @2365
    _ZN7luabind6detail24const_holder_constructorINS0_9null_typeEE5applyIN6Hinage4FontEEEPFvPvS7_ENS0_5type_IT_EE @2366
    _ZN7luabind6detail24const_holder_constructorINS0_9null_typeEE5applyIN6Hinage4GameEEEPFvPvS7_ENS0_5type_IT_EE @2367
    _ZN7luabind6detail24const_holder_constructorINS0_9null_typeEE5applyIN6Hinage5TimerEEEPFvPvS7_ENS0_5type_IT_EE @2368
    _ZN7luabind6detail24const_holder_constructorINS0_9null_typeEE5applyIN6Hinage7DisplayEEEPFvPvS7_ENS0_5type_IT_EE @2369
    _ZN7luabind6detail24const_holder_constructorINS0_9null_typeEE5applyIN6Hinage7Vector2IdEEEEPFvPvS8_ENS0_5type_IT_EE @2370
    _ZN7luabind6detail25get_member_signature_implIRN6Hinage14PhysicalEntityENS2_3MapESsddEEvMT0_FT_T1_T2_T3_EP9lua_StateRSs @2371
    _ZN7luabind6detail25get_member_signature_implIRN6Hinage14PhysicalEntityENS2_3MapEiEEvMT0_FT_T1_EP9lua_StateRSs @2372
    _ZN7luabind6detail25get_member_signature_implIRN6Hinage4FontENS2_4GameESsEEvMT0_FT_T1_EP9lua_StateRSs @2373
    _ZN7luabind6detail25get_member_signature_implISsN6Hinage14PhysicalEntityEEEvMT0_FT_vEP9lua_StateRSs @2374
    _ZN7luabind6detail25get_member_signature_implIbN6Hinage12InputManagerEiEEvMT0_FT_T1_EP9lua_StateRSs @2375
    _ZN7luabind6detail25get_member_signature_implIbN6Hinage14PhysicalEntityESsbdEEvMT0_FT_T1_T2_T3_EP9lua_StateRSs @2376
    _ZN7luabind6detail25get_member_signature_implIbN6Hinage5TimerEdEEvMT0_FT_T1_EP9lua_StateRSs @2377
    _ZN7luabind6detail25get_member_signature_implIdN6Hinage14PhysicalEntityEEEvMT0_FT_vEP9lua_StateRSs @2378
    _ZN7luabind6detail25get_member_signature_implIdN6Hinage4GameEEEvMT0_FT_vEP9lua_StateRSs @2379
    _ZN7luabind6detail25get_member_signature_implIdN6Hinage5TimerEEEvMT0_FT_vEP9lua_StateRSs @2380
    _ZN7luabind6detail25get_member_signature_implIdN6Hinage7DisplayEEEvMT0_FT_vEP9lua_StateRSs @2381
    _ZN7luabind6detail25get_member_signature_implIdN6Hinage7Vector2IdEEEEvMT0_KFT_vEP9lua_StateRSs @2382
    _ZN7luabind6detail25get_member_signature_implIfN6Hinage7DisplayEEEvMT0_FT_vEP9lua_StateRSs @2383
    _ZN7luabind6detail25get_member_signature_implIiN6Hinage14PhysicalEntityEEEvMT0_FT_vEP9lua_StateRSs @2384
    _ZN7luabind6detail25get_member_signature_implIiN6Hinage3MapEEEvMT0_FT_vEP9lua_StateRSs @2385
    _ZN7luabind6detail25get_member_signature_implIiN6Hinage3MapEEEvMT0_KFT_vEP9lua_StateRSs @2386
    _ZN7luabind6detail25get_member_signature_implIv12AudioManagerEEvMT0_FT_vEP9lua_StateRSs @2387
    _ZN7luabind6detail25get_member_signature_implIv12AudioManagerSsEEvMT0_FT_T1_EP9lua_StateRSs @2388
    _ZN7luabind6detail25get_member_signature_implIv12AudioManagerSsbEEvMT0_FT_T1_T2_EP9lua_StateRSs @2389
    _ZN7luabind6detail25get_member_signature_implIvN6Hinage14PhysicalEntityEbEEvMT0_FT_T1_EP9lua_StateRSs @2390
    _ZN7luabind6detail25get_member_signature_implIvN6Hinage14PhysicalEntityEdEEvMT0_FT_T1_EP9lua_StateRSs @2391
    _ZN7luabind6detail25get_member_signature_implIvN6Hinage14PhysicalEntityEddEEvMT0_FT_T1_T2_EP9lua_StateRSs @2392
    _ZN7luabind6detail25get_member_signature_implIvN6Hinage14PhysicalEntityEdddEEvMT0_FT_T1_T2_T3_EP9lua_StateRSs @2393
    _ZN7luabind6detail25get_member_signature_implIvN6Hinage3MapEEEvMT0_FT_vEP9lua_StateRSs @2394
    _ZN7luabind6detail25get_member_signature_implIvN6Hinage3MapESsEEvMT0_FT_T1_EP9lua_StateRSs @2395
    _ZN7luabind6detail25get_member_signature_implIvN6Hinage3MapESsbEEvMT0_FT_T1_T2_EP9lua_StateRSs @2396
    _ZN7luabind6detail25get_member_signature_implIvN6Hinage3MapEiEEvMT0_FT_T1_EP9lua_StateRSs @2397
    _ZN7luabind6detail25get_member_signature_implIvN6Hinage4GameEEEvMT0_FT_vEP9lua_StateRSs @2398
    _ZN7luabind6detail25get_member_signature_implIvN6Hinage4GameERNS2_4FontESsddddEEvMT0_FT_T1_T2_T3_T4_T5_T6_EP9lua_StateRSs @2399
    _ZN7luabind6detail25get_member_signature_implIvN6Hinage4GameEdEEvMT0_FT_T1_EP9lua_StateRSs @2400
    _ZN7luabind6detail25get_member_signature_implIvN6Hinage5TimerEEEvMT0_FT_vEP9lua_StateRSs @2401
    _ZN7luabind6detail25get_member_signature_implIvN6Hinage7DisplayEdEEvMT0_FT_T1_EP9lua_StateRSs @2402
    _ZN7luabind6detail25get_member_signature_implIvN6Hinage7DisplayEffEEvMT0_FT_T1_T2_EP9lua_StateRSs @2403
    _ZN7luabind6detail25get_member_signature_implIvN6Hinage7Vector2IdEEdEEvMT0_FT_T1_EP9lua_StateRSs @2404
    _ZN7luabind6detail25get_member_signature_implIvN6Hinage7Vector2IdEEddEEvMT0_FT_T1_T2_EP9lua_StateRSs @2405
    _ZN7luabind6detail25internal_holder_extractorINS0_9null_typeEE5applyI12AudioManagerEEPFPvS6_ENS0_5type_IT_EE @2406
    _ZN7luabind6detail25internal_holder_extractorINS0_9null_typeEE5applyIN6Hinage12InputManagerEEEPFPvS7_ENS0_5type_IT_EE @2407
    _ZN7luabind6detail25internal_holder_extractorINS0_9null_typeEE5applyIN6Hinage14PhysicalEntityEEEPFPvS7_ENS0_5type_IT_EE @2408
    _ZN7luabind6detail25internal_holder_extractorINS0_9null_typeEE5applyIN6Hinage3MapEEEPFPvS7_ENS0_5type_IT_EE @2409
    _ZN7luabind6detail25internal_holder_extractorINS0_9null_typeEE5applyIN6Hinage4FontEEEPFPvS7_ENS0_5type_IT_EE @2410
    _ZN7luabind6detail25internal_holder_extractorINS0_9null_typeEE5applyIN6Hinage4GameEEEPFPvS7_ENS0_5type_IT_EE @2411
    _ZN7luabind6detail25internal_holder_extractorINS0_9null_typeEE5applyIN6Hinage5TimerEEEPFPvS7_ENS0_5type_IT_EE @2412
    _ZN7luabind6detail25internal_holder_extractorINS0_9null_typeEE5applyIN6Hinage7DisplayEEEPFPvS7_ENS0_5type_IT_EE @2413
    _ZN7luabind6detail25internal_holder_extractorINS0_9null_typeEE5applyIN6Hinage7Vector2IdEEEEPFPvS8_ENS0_5type_IT_EE @2414
    _ZN7luabind6detail26holder_default_constructorINS0_9null_typeEE5applyI12AudioManagerEEPFvPvENS0_5type_IT_EE @2415
    _ZN7luabind6detail26holder_default_constructorINS0_9null_typeEE5applyIN6Hinage12InputManagerEEEPFvPvENS0_5type_IT_EE @2416
    _ZN7luabind6detail26holder_default_constructorINS0_9null_typeEE5applyIN6Hinage14PhysicalEntityEEEPFvPvENS0_5type_IT_EE @2417
    _ZN7luabind6detail26holder_default_constructorINS0_9null_typeEE5applyIN6Hinage3MapEEEPFvPvENS0_5type_IT_EE @2418
    _ZN7luabind6detail26holder_default_constructorINS0_9null_typeEE5applyIN6Hinage4FontEEEPFvPvENS0_5type_IT_EE @2419
    _ZN7luabind6detail26holder_default_constructorINS0_9null_typeEE5applyIN6Hinage4GameEEEPFvPvENS0_5type_IT_EE @2420
    _ZN7luabind6detail26holder_default_constructorINS0_9null_typeEE5applyIN6Hinage5TimerEEEPFvPvENS0_5type_IT_EE @2421
    _ZN7luabind6detail26holder_default_constructorINS0_9null_typeEE5applyIN6Hinage7DisplayEEEPFvPvENS0_5type_IT_EE @2422
    _ZN7luabind6detail26holder_default_constructorINS0_9null_typeEE5applyIN6Hinage7Vector2IdEEEEPFvPvENS0_5type_IT_EE @2423
    _ZN7luabind6detail26internal_holder_destructorINS0_9null_typeEE5applyI12AudioManagerEEPFvPvENS0_5type_IT_EE @2424
    _ZN7luabind6detail26internal_holder_destructorINS0_9null_typeEE5applyIN6Hinage12InputManagerEEEPFvPvENS0_5type_IT_EE @2425
    _ZN7luabind6detail26internal_holder_destructorINS0_9null_typeEE5applyIN6Hinage14PhysicalEntityEEEPFvPvENS0_5type_IT_EE @2426
    _ZN7luabind6detail26internal_holder_destructorINS0_9null_typeEE5applyIN6Hinage3MapEEEPFvPvENS0_5type_IT_EE @2427
    _ZN7luabind6detail26internal_holder_destructorINS0_9null_typeEE5applyIN6Hinage4FontEEEPFvPvENS0_5type_IT_EE @2428
    _ZN7luabind6detail26internal_holder_destructorINS0_9null_typeEE5applyIN6Hinage4GameEEEPFvPvENS0_5type_IT_EE @2429
    _ZN7luabind6detail26internal_holder_destructorINS0_9null_typeEE5applyIN6Hinage5TimerEEEPFvPvENS0_5type_IT_EE @2430
    _ZN7luabind6detail26internal_holder_destructorINS0_9null_typeEE5applyIN6Hinage7DisplayEEEPFvPvENS0_5type_IT_EE @2431
    _ZN7luabind6detail26internal_holder_destructorINS0_9null_typeEE5applyIN6Hinage7Vector2IdEEEEPFvPvENS0_5type_IT_EE @2432
    _ZN7luabind6detail31internal_const_holder_extractorINS0_9null_typeEE5applyI12AudioManagerEEPFPKvPvENS0_5type_IT_EE @2433
    _ZN7luabind6detail31internal_const_holder_extractorINS0_9null_typeEE5applyIN6Hinage12InputManagerEEEPFPKvPvENS0_5type_IT_EE @2434
    _ZN7luabind6detail31internal_const_holder_extractorINS0_9null_typeEE5applyIN6Hinage14PhysicalEntityEEEPFPKvPvENS0_5type_IT_EE @2435
    _ZN7luabind6detail31internal_const_holder_extractorINS0_9null_typeEE5applyIN6Hinage3MapEEEPFPKvPvENS0_5type_IT_EE @2436
    _ZN7luabind6detail31internal_const_holder_extractorINS0_9null_typeEE5applyIN6Hinage4FontEEEPFPKvPvENS0_5type_IT_EE @2437
    _ZN7luabind6detail31internal_const_holder_extractorINS0_9null_typeEE5applyIN6Hinage4GameEEEPFPKvPvENS0_5type_IT_EE @2438
    _ZN7luabind6detail31internal_const_holder_extractorINS0_9null_typeEE5applyIN6Hinage5TimerEEEPFPKvPvENS0_5type_IT_EE @2439
    _ZN7luabind6detail31internal_const_holder_extractorINS0_9null_typeEE5applyIN6Hinage7DisplayEEEPFPKvPvENS0_5type_IT_EE @2440
    _ZN7luabind6detail31internal_const_holder_extractorINS0_9null_typeEE5applyIN6Hinage7Vector2IdEEEEPFPKvPvENS0_5type_IT_EE @2441
    _ZN7luabind6detail32const_holder_default_constructorINS0_9null_typeEE5applyI12AudioManagerEEPFvPvENS0_5type_IT_EE @2442
    _ZN7luabind6detail32const_holder_default_constructorINS0_9null_typeEE5applyIN6Hinage12InputManagerEEEPFvPvENS0_5type_IT_EE @2443
    _ZN7luabind6detail32const_holder_default_constructorINS0_9null_typeEE5applyIN6Hinage14PhysicalEntityEEEPFvPvENS0_5type_IT_EE @2444
    _ZN7luabind6detail32const_holder_default_constructorINS0_9null_typeEE5applyIN6Hinage3MapEEEPFvPvENS0_5type_IT_EE @2445
    _ZN7luabind6detail32const_holder_default_constructorINS0_9null_typeEE5applyIN6Hinage4FontEEEPFvPvENS0_5type_IT_EE @2446
    _ZN7luabind6detail32const_holder_default_constructorINS0_9null_typeEE5applyIN6Hinage4GameEEEPFvPvENS0_5type_IT_EE @2447
    _ZN7luabind6detail32const_holder_default_constructorINS0_9null_typeEE5applyIN6Hinage5TimerEEEPFvPvENS0_5type_IT_EE @2448
    _ZN7luabind6detail32const_holder_default_constructorINS0_9null_typeEE5applyIN6Hinage7DisplayEEEPFvPvENS0_5type_IT_EE @2449
    _ZN7luabind6detail32const_holder_default_constructorINS0_9null_typeEE5applyIN6Hinage7Vector2IdEEEEPFvPvENS0_5type_IT_EE @2450
    _ZN7luabind6detail32internal_const_holder_destructorINS0_9null_typeEE5applyI12AudioManagerEEPFvPvENS0_5type_IT_EE @2451
    _ZN7luabind6detail32internal_const_holder_destructorINS0_9null_typeEE5applyIN6Hinage12InputManagerEEEPFvPvENS0_5type_IT_EE @2452
    _ZN7luabind6detail32internal_const_holder_destructorINS0_9null_typeEE5applyIN6Hinage14PhysicalEntityEEEPFvPvENS0_5type_IT_EE @2453
    _ZN7luabind6detail32internal_const_holder_destructorINS0_9null_typeEE5applyIN6Hinage3MapEEEPFvPvENS0_5type_IT_EE @2454
    _ZN7luabind6detail32internal_const_holder_destructorINS0_9null_typeEE5applyIN6Hinage4FontEEEPFvPvENS0_5type_IT_EE @2455
    _ZN7luabind6detail32internal_const_holder_destructorINS0_9null_typeEE5applyIN6Hinage4GameEEEPFvPvENS0_5type_IT_EE @2456
    _ZN7luabind6detail32internal_const_holder_destructorINS0_9null_typeEE5applyIN6Hinage5TimerEEEPFvPvENS0_5type_IT_EE @2457
    _ZN7luabind6detail32internal_const_holder_destructorINS0_9null_typeEE5applyIN6Hinage7DisplayEEEPFvPvENS0_5type_IT_EE @2458
    _ZN7luabind6detail32internal_const_holder_destructorINS0_9null_typeEE5applyIN6Hinage7Vector2IdEEEEPFvPvENS0_5type_IT_EE @2459
    _ZN7luabind6detail4callI12AudioManagerS2_NS0_9null_typeEvEEiMT_FT2_vEPT0_P9lua_StatePKT1_ @2460
    _ZN7luabind6detail4callI12AudioManagerS2_NS0_9null_typeEvSsEEiMT_FT2_T3_EPT0_P9lua_StatePKT1_ @2461
    _ZN7luabind6detail4callI12AudioManagerS2_NS0_9null_typeEvSsbEEiMT_FT2_T3_T4_EPT0_P9lua_StatePKT1_ @2462
    _ZN7luabind6detail4callIN6Hinage12InputManagerES3_NS0_9null_typeEbiEEiMT_FT2_T3_EPT0_P9lua_StatePKT1_ @2463
    _ZN7luabind6detail4callIN6Hinage14PhysicalEntityES3_NS0_9null_typeESsEEiMT_FT2_vEPT0_P9lua_StatePKT1_ @2464
    _ZN7luabind6detail4callIN6Hinage14PhysicalEntityES3_NS0_9null_typeEbSsbdEEiMT_FT2_T3_T4_T5_EPT0_P9lua_StatePKT1_ @2465
    _ZN7luabind6detail4callIN6Hinage14PhysicalEntityES3_NS0_9null_typeEdEEiMT_FT2_vEPT0_P9lua_StatePKT1_ @2466
    _ZN7luabind6detail4callIN6Hinage14PhysicalEntityES3_NS0_9null_typeEiEEiMT_FT2_vEPT0_P9lua_StatePKT1_ @2467
    _ZN7luabind6detail4callIN6Hinage14PhysicalEntityES3_NS0_9null_typeEvbEEiMT_FT2_T3_EPT0_P9lua_StatePKT1_ @2468
    _ZN7luabind6detail4callIN6Hinage14PhysicalEntityES3_NS0_9null_typeEvdEEiMT_FT2_T3_EPT0_P9lua_StatePKT1_ @2469
    _ZN7luabind6detail4callIN6Hinage14PhysicalEntityES3_NS0_9null_typeEvddEEiMT_FT2_T3_T4_EPT0_P9lua_StatePKT1_ @2470
    _ZN7luabind6detail4callIN6Hinage14PhysicalEntityES3_NS0_9null_typeEvdddEEiMT_FT2_T3_T4_T5_EPT0_P9lua_StatePKT1_ @2471
    _ZN7luabind6detail4callIN6Hinage3MapES3_NS0_9null_typeERNS2_14PhysicalEntityESsddEEiMT_FT2_T3_T4_T5_EPT0_P9lua_StatePKT1_ @2472
    _ZN7luabind6detail4callIN6Hinage3MapES3_NS0_9null_typeERNS2_14PhysicalEntityEiEEiMT_FT2_T3_EPT0_P9lua_StatePKT1_ @2473
    _ZN7luabind6detail4callIN6Hinage3MapES3_NS0_9null_typeEiEEiMT_FT2_vEPT0_P9lua_StatePKT1_ @2474
    _ZN7luabind6detail4callIN6Hinage3MapES3_NS0_9null_typeEiEEiMT_KFT2_vEPT0_P9lua_StatePKT1_ @2475
    _ZN7luabind6detail4callIN6Hinage3MapES3_NS0_9null_typeEvEEiMT_FT2_vEPT0_P9lua_StatePKT1_ @2476
    _ZN7luabind6detail4callIN6Hinage3MapES3_NS0_9null_typeEvSsEEiMT_FT2_T3_EPT0_P9lua_StatePKT1_ @2477
    _ZN7luabind6detail4callIN6Hinage3MapES3_NS0_9null_typeEvSsbEEiMT_FT2_T3_T4_EPT0_P9lua_StatePKT1_ @2478
    _ZN7luabind6detail4callIN6Hinage3MapES3_NS0_9null_typeEviEEiMT_FT2_T3_EPT0_P9lua_StatePKT1_ @2479
    _ZN7luabind6detail4callIN6Hinage4GameES3_NS0_9null_typeERNS2_4FontESsEEiMT_FT2_T3_EPT0_P9lua_StatePKT1_ @2480
    _ZN7luabind6detail4callIN6Hinage4GameES3_NS0_9null_typeEdEEiMT_FT2_vEPT0_P9lua_StatePKT1_ @2481
    _ZN7luabind6detail4callIN6Hinage4GameES3_NS0_9null_typeEvEEiMT_FT2_vEPT0_P9lua_StatePKT1_ @2482
    _ZN7luabind6detail4callIN6Hinage4GameES3_NS0_9null_typeEvRNS2_4FontESsddddEEiMT_FT2_T3_T4_T5_T6_T7_T8_EPT0_P9lua_StatePKT1_ @2483
    _ZN7luabind6detail4callIN6Hinage4GameES3_NS0_9null_typeEvdEEiMT_FT2_T3_EPT0_P9lua_StatePKT1_ @2484
    _ZN7luabind6detail4callIN6Hinage5TimerES3_NS0_9null_typeEbdEEiMT_FT2_T3_EPT0_P9lua_StatePKT1_ @2485
    _ZN7luabind6detail4callIN6Hinage5TimerES3_NS0_9null_typeEdEEiMT_FT2_vEPT0_P9lua_StatePKT1_ @2486
    _ZN7luabind6detail4callIN6Hinage5TimerES3_NS0_9null_typeEvEEiMT_FT2_vEPT0_P9lua_StatePKT1_ @2487
    _ZN7luabind6detail4callIN6Hinage7DisplayES3_NS0_9null_typeEdEEiMT_FT2_vEPT0_P9lua_StatePKT1_ @2488
    _ZN7luabind6detail4callIN6Hinage7DisplayES3_NS0_9null_typeEfEEiMT_FT2_vEPT0_P9lua_StatePKT1_ @2489
    _ZN7luabind6detail4callIN6Hinage7DisplayES3_NS0_9null_typeEvdEEiMT_FT2_T3_EPT0_P9lua_StatePKT1_ @2490
    _ZN7luabind6detail4callIN6Hinage7DisplayES3_NS0_9null_typeEvffEEiMT_FT2_T3_T4_EPT0_P9lua_StatePKT1_ @2491
    _ZN7luabind6detail4callIN6Hinage7Vector2IdEES4_NS0_9null_typeEdEEiMT_KFT2_vEPT0_P9lua_StatePKT1_ @2492
    _ZN7luabind6detail4callIN6Hinage7Vector2IdEES4_NS0_9null_typeEvdEEiMT_FT2_T3_EPT0_P9lua_StatePKT1_ @2493
    _ZN7luabind6detail4callIN6Hinage7Vector2IdEES4_NS0_9null_typeEvddEEiMT_FT2_T3_T4_EPT0_P9lua_StatePKT1_ @2494
    _ZN7luabind6detail4pushIA10_KcEEvP9lua_StateRT_ @2495
    _ZN7luabind6detail4pushIA10_KcNS0_9null_typeEEEvP9lua_StateRT_RKT0_ @2496
    _ZN7luabind6detail4pushIA4_KcEEvP9lua_StateRT_ @2497
    _ZN7luabind6detail4pushIA4_KcNS0_9null_typeEEEvP9lua_StateRT_RKT0_ @2498
    _ZN7luabind6detail4pushIA5_KcEEvP9lua_StateRT_ @2499
    _ZN7luabind6detail4pushIA5_KcNS0_9null_typeEEEvP9lua_StateRT_RKT0_ @2500
    _ZN7luabind6detail4pushIA6_KcEEvP9lua_StateRT_ @2501
    _ZN7luabind6detail4pushIA6_KcNS0_9null_typeEEEvP9lua_StateRT_RKT0_ @2502
    _ZN7luabind6detail4pushIA7_KcEEvP9lua_StateRT_ @2503
    _ZN7luabind6detail4pushIA7_KcNS0_9null_typeEEEvP9lua_StateRT_RKT0_ @2504
    _ZN7luabind6detail4pushIKP12AudioManagerEEvP9lua_StateRT_ @2505
    _ZN7luabind6detail4pushIKP12AudioManagerNS0_9null_typeEEEvP9lua_StateRT_RKT0_ @2506
    _ZN7luabind6detail4pushIKPN6Hinage12InputManagerEEEvP9lua_StateRT_ @2507
    _ZN7luabind6detail4pushIKPN6Hinage12InputManagerENS0_9null_typeEEEvP9lua_StateRT_RKT0_ @2508
    _ZN7luabind6detail4pushIKPN6Hinage3MapEEEvP9lua_StateRT_ @2509
    _ZN7luabind6detail4pushIKPN6Hinage3MapENS0_9null_typeEEEvP9lua_StateRT_RKT0_ @2510
    _ZN7luabind6detail4pushIKPN6Hinage4GameEEEvP9lua_StateRT_ @2511
    _ZN7luabind6detail4pushIKPN6Hinage4GameENS0_9null_typeEEEvP9lua_StateRT_RKT0_ @2512
    _ZN7luabind6detail4pushIKPN6Hinage5TimerEEEvP9lua_StateRT_ @2513
    _ZN7luabind6detail4pushIKPN6Hinage5TimerENS0_9null_typeEEEvP9lua_StateRT_RKT0_ @2514
    _ZN7luabind6detail4pushIKPN6Hinage7DisplayEEEvP9lua_StateRT_ @2515
    _ZN7luabind6detail4pushIKPN6Hinage7DisplayENS0_9null_typeEEEvP9lua_StateRT_RKT0_ @2516
    _ZN7luabind6detail5matchI12AudioManagerS2_NS0_9null_typeEvEEiMT_FT2_vEP9lua_StatePT0_PKT1_ @2517
    _ZN7luabind6detail5matchI12AudioManagerS2_NS0_9null_typeEvSsEEiMT_FT2_T3_EP9lua_StatePT0_PKT1_ @2518
    _ZN7luabind6detail5matchI12AudioManagerS2_NS0_9null_typeEvSsbEEiMT_FT2_T3_T4_EP9lua_StatePT0_PKT1_ @2519
    _ZN7luabind6detail5matchIN6Hinage12InputManagerES3_NS0_9null_typeEbiEEiMT_FT2_T3_EP9lua_StatePT0_PKT1_ @2520
    _ZN7luabind6detail5matchIN6Hinage14PhysicalEntityES3_NS0_9null_typeESsEEiMT_FT2_vEP9lua_StatePT0_PKT1_ @2521
    _ZN7luabind6detail5matchIN6Hinage14PhysicalEntityES3_NS0_9null_typeEbSsbdEEiMT_FT2_T3_T4_T5_EP9lua_StatePT0_PKT1_ @2522
    _ZN7luabind6detail5matchIN6Hinage14PhysicalEntityES3_NS0_9null_typeEdEEiMT_FT2_vEP9lua_StatePT0_PKT1_ @2523
    _ZN7luabind6detail5matchIN6Hinage14PhysicalEntityES3_NS0_9null_typeEiEEiMT_FT2_vEP9lua_StatePT0_PKT1_ @2524
    _ZN7luabind6detail5matchIN6Hinage14PhysicalEntityES3_NS0_9null_typeEvbEEiMT_FT2_T3_EP9lua_StatePT0_PKT1_ @2525
    _ZN7luabind6detail5matchIN6Hinage14PhysicalEntityES3_NS0_9null_typeEvdEEiMT_FT2_T3_EP9lua_StatePT0_PKT1_ @2526
    _ZN7luabind6detail5matchIN6Hinage14PhysicalEntityES3_NS0_9null_typeEvddEEiMT_FT2_T3_T4_EP9lua_StatePT0_PKT1_ @2527
    _ZN7luabind6detail5matchIN6Hinage14PhysicalEntityES3_NS0_9null_typeEvdddEEiMT_FT2_T3_T4_T5_EP9lua_StatePT0_PKT1_ @2528
    _ZN7luabind6detail5matchIN6Hinage3MapES3_NS0_9null_typeERNS2_14PhysicalEntityESsddEEiMT_FT2_T3_T4_T5_EP9lua_StatePT0_PKT1_ @2529
    _ZN7luabind6detail5matchIN6Hinage3MapES3_NS0_9null_typeERNS2_14PhysicalEntityEiEEiMT_FT2_T3_EP9lua_StatePT0_PKT1_ @2530
    _ZN7luabind6detail5matchIN6Hinage3MapES3_NS0_9null_typeEiEEiMT_FT2_vEP9lua_StatePT0_PKT1_ @2531
    _ZN7luabind6detail5matchIN6Hinage3MapES3_NS0_9null_typeEiEEiMT_KFT2_vEP9lua_StatePT0_PKT1_ @2532
    _ZN7luabind6detail5matchIN6Hinage3MapES3_NS0_9null_typeEvEEiMT_FT2_vEP9lua_StatePT0_PKT1_ @2533
    _ZN7luabind6detail5matchIN6Hinage3MapES3_NS0_9null_typeEvSsEEiMT_FT2_T3_EP9lua_StatePT0_PKT1_ @2534
    _ZN7luabind6detail5matchIN6Hinage3MapES3_NS0_9null_typeEvSsbEEiMT_FT2_T3_T4_EP9lua_StatePT0_PKT1_ @2535
    _ZN7luabind6detail5matchIN6Hinage3MapES3_NS0_9null_typeEviEEiMT_FT2_T3_EP9lua_StatePT0_PKT1_ @2536
    _ZN7luabind6detail5matchIN6Hinage4GameES3_NS0_9null_typeERNS2_4FontESsEEiMT_FT2_T3_EP9lua_StatePT0_PKT1_ @2537
    _ZN7luabind6detail5matchIN6Hinage4GameES3_NS0_9null_typeEdEEiMT_FT2_vEP9lua_StatePT0_PKT1_ @2538
    _ZN7luabind6detail5matchIN6Hinage4GameES3_NS0_9null_typeEvEEiMT_FT2_vEP9lua_StatePT0_PKT1_ @2539
    _ZN7luabind6detail5matchIN6Hinage4GameES3_NS0_9null_typeEvRNS2_4FontESsddddEEiMT_FT2_T3_T4_T5_T6_T7_T8_EP9lua_StatePT0_PKT1_ @2540
    _ZN7luabind6detail5matchIN6Hinage4GameES3_NS0_9null_typeEvdEEiMT_FT2_T3_EP9lua_StatePT0_PKT1_ @2541
    _ZN7luabind6detail5matchIN6Hinage5TimerES3_NS0_9null_typeEbdEEiMT_FT2_T3_EP9lua_StatePT0_PKT1_ @2542
    _ZN7luabind6detail5matchIN6Hinage5TimerES3_NS0_9null_typeEdEEiMT_FT2_vEP9lua_StatePT0_PKT1_ @2543
    _ZN7luabind6detail5matchIN6Hinage5TimerES3_NS0_9null_typeEvEEiMT_FT2_vEP9lua_StatePT0_PKT1_ @2544
    _ZN7luabind6detail5matchIN6Hinage7DisplayES3_NS0_9null_typeEdEEiMT_FT2_vEP9lua_StatePT0_PKT1_ @2545
    _ZN7luabind6detail5matchIN6Hinage7DisplayES3_NS0_9null_typeEfEEiMT_FT2_vEP9lua_StatePT0_PKT1_ @2546
    _ZN7luabind6detail5matchIN6Hinage7DisplayES3_NS0_9null_typeEvdEEiMT_FT2_T3_EP9lua_StatePT0_PKT1_ @2547
    _ZN7luabind6detail5matchIN6Hinage7DisplayES3_NS0_9null_typeEvffEEiMT_FT2_T3_T4_EP9lua_StatePT0_PKT1_ @2548
    _ZN7luabind6detail5matchIN6Hinage7Vector2IdEES4_NS0_9null_typeEdEEiMT_KFT2_vEP9lua_StatePT0_PKT1_ @2549
    _ZN7luabind6detail5matchIN6Hinage7Vector2IdEES4_NS0_9null_typeEvdEEiMT_FT2_T3_EP9lua_StatePT0_PKT1_ @2550
    _ZN7luabind6detail5matchIN6Hinage7Vector2IdEES4_NS0_9null_typeEvddEEiMT_FT2_T3_T4_EP9lua_StatePT0_PKT1_ @2551
    _ZN7luabind6detail6getrefEP9lua_Statei @2552
    _ZN7luabind6detail7returnsIRN6Hinage14PhysicalEntityEE4callINS2_3MapES7_NS0_9null_typeESsddEEiMT_FS4_T2_T3_T4_EPT0_P9lua_StatePKT1_ @2553
    _ZN7luabind6detail7returnsIRN6Hinage14PhysicalEntityEE4callINS2_3MapES7_NS0_9null_typeEiEEiMT_FS4_T2_EPT0_P9lua_StatePKT1_ @2554
    _ZN7luabind6detail7returnsIRN6Hinage4FontEE4callINS2_4GameES7_NS0_9null_typeESsEEiMT_FS4_T2_EPT0_P9lua_StatePKT1_ @2555
    _ZN7luabind6detail7returnsISsE4callIN6Hinage14PhysicalEntityES5_NS0_9null_typeEEEiMT_FSsvEPT0_P9lua_StatePKT1_ @2556
    _ZN7luabind6detail7returnsIbE4callIN6Hinage12InputManagerES5_NS0_9null_typeEiEEiMT_FbT2_EPT0_P9lua_StatePKT1_ @2557
    _ZN7luabind6detail7returnsIbE4callIN6Hinage14PhysicalEntityES5_NS0_9null_typeESsbdEEiMT_FbT2_T3_T4_EPT0_P9lua_StatePKT1_ @2558
    _ZN7luabind6detail7returnsIbE4callIN6Hinage5TimerES5_NS0_9null_typeEdEEiMT_FbT2_EPT0_P9lua_StatePKT1_ @2559
    _ZN7luabind6detail7returnsIdE4callIN6Hinage14PhysicalEntityES5_NS0_9null_typeEEEiMT_FdvEPT0_P9lua_StatePKT1_ @2560
    _ZN7luabind6detail7returnsIdE4callIN6Hinage4GameES5_NS0_9null_typeEEEiMT_FdvEPT0_P9lua_StatePKT1_ @2561
    _ZN7luabind6detail7returnsIdE4callIN6Hinage5TimerES5_NS0_9null_typeEEEiMT_FdvEPT0_P9lua_StatePKT1_ @2562
    _ZN7luabind6detail7returnsIdE4callIN6Hinage7DisplayES5_NS0_9null_typeEEEiMT_FdvEPT0_P9lua_StatePKT1_ @2563
    _ZN7luabind6detail7returnsIdE4callIN6Hinage7Vector2IdEES6_NS0_9null_typeEEEiMT_KFdvEPT0_P9lua_StatePKT1_ @2564
    _ZN7luabind6detail7returnsIfE4callIN6Hinage7DisplayES5_NS0_9null_typeEEEiMT_FfvEPT0_P9lua_StatePKT1_ @2565
    _ZN7luabind6detail7returnsIiE4callIN6Hinage14PhysicalEntityES5_NS0_9null_typeEEEiMT_FivEPT0_P9lua_StatePKT1_ @2566
    _ZN7luabind6detail7returnsIiE4callIN6Hinage3MapES5_NS0_9null_typeEEEiMT_FivEPT0_P9lua_StatePKT1_ @2567
    _ZN7luabind6detail7returnsIiE4callIN6Hinage3MapES5_NS0_9null_typeEEEiMT_KFivEPT0_P9lua_StatePKT1_ @2568
    _ZN7luabind6detail7returnsIvE4callI12AudioManagerS4_NS0_9null_typeEEEiMT_FvvEPT0_P9lua_StatePT1_ @2569
    _ZN7luabind6detail7returnsIvE4callI12AudioManagerS4_NS0_9null_typeESsEEiMT_FvT2_EPT0_P9lua_StatePT1_ @2570
    _ZN7luabind6detail7returnsIvE4callI12AudioManagerS4_NS0_9null_typeESsbEEiMT_FvT2_T3_EPT0_P9lua_StatePT1_ @2571
    _ZN7luabind6detail7returnsIvE4callIN6Hinage14PhysicalEntityES5_NS0_9null_typeEbEEiMT_FvT2_EPT0_P9lua_StatePT1_ @2572
    _ZN7luabind6detail7returnsIvE4callIN6Hinage14PhysicalEntityES5_NS0_9null_typeEdEEiMT_FvT2_EPT0_P9lua_StatePT1_ @2573
    _ZN7luabind6detail7returnsIvE4callIN6Hinage14PhysicalEntityES5_NS0_9null_typeEddEEiMT_FvT2_T3_EPT0_P9lua_StatePT1_ @2574
    _ZN7luabind6detail7returnsIvE4callIN6Hinage14PhysicalEntityES5_NS0_9null_typeEdddEEiMT_FvT2_T3_T4_EPT0_P9lua_StatePT1_ @2575
    _ZN7luabind6detail7returnsIvE4callIN6Hinage3MapES5_NS0_9null_typeEEEiMT_FvvEPT0_P9lua_StatePT1_ @2576
    _ZN7luabind6detail7returnsIvE4callIN6Hinage3MapES5_NS0_9null_typeESsEEiMT_FvT2_EPT0_P9lua_StatePT1_ @2577
    _ZN7luabind6detail7returnsIvE4callIN6Hinage3MapES5_NS0_9null_typeESsbEEiMT_FvT2_T3_EPT0_P9lua_StatePT1_ @2578
    _ZN7luabind6detail7returnsIvE4callIN6Hinage3MapES5_NS0_9null_typeEiEEiMT_FvT2_EPT0_P9lua_StatePT1_ @2579
    _ZN7luabind6detail7returnsIvE4callIN6Hinage4GameES5_NS0_9null_typeEEEiMT_FvvEPT0_P9lua_StatePT1_ @2580
    _ZN7luabind6detail7returnsIvE4callIN6Hinage4GameES5_NS0_9null_typeERNS4_4FontESsddddEEiMT_FvT2_T3_T4_T5_T6_T7_EPT0_P9lua_StatePT1_ @2581
    _ZN7luabind6detail7returnsIvE4callIN6Hinage4GameES5_NS0_9null_typeEdEEiMT_FvT2_EPT0_P9lua_StatePT1_ @2582
    _ZN7luabind6detail7returnsIvE4callIN6Hinage5TimerES5_NS0_9null_typeEEEiMT_FvvEPT0_P9lua_StatePT1_ @2583
    _ZN7luabind6detail7returnsIvE4callIN6Hinage7DisplayES5_NS0_9null_typeEdEEiMT_FvT2_EPT0_P9lua_StatePT1_ @2584
    _ZN7luabind6detail7returnsIvE4callIN6Hinage7DisplayES5_NS0_9null_typeEffEEiMT_FvT2_T3_EPT0_P9lua_StatePT1_ @2585
    _ZN7luabind6detail7returnsIvE4callIN6Hinage7Vector2IdEES6_NS0_9null_typeEdEEiMT_FvT2_EPT0_P9lua_StatePT1_ @2586
    _ZN7luabind6detail7returnsIvE4callIN6Hinage7Vector2IdEES6_NS0_9null_typeEddEEiMT_FvT2_T3_EPT0_P9lua_StatePT1_ @2587
    _ZN7luabind6detail8auto_getIN6Hinage14PhysicalEntityEbNS0_9null_typeEEC1Ev @2588
    _ZN7luabind6detail8auto_getIN6Hinage14PhysicalEntityEbNS0_9null_typeEEclEP9lua_StateiMS3_b @2589
    _ZN7luabind6detail8delete_sI12AudioManagerE5applyEPv @2590
    _ZN7luabind6detail8delete_sIN6Hinage12InputManagerEE5applyEPv @2591
    _ZN7luabind6detail8delete_sIN6Hinage14PhysicalEntityEE5applyEPv @2592
    _ZN7luabind6detail8delete_sIN6Hinage3MapEE5applyEPv @2593
    _ZN7luabind6detail8delete_sIN6Hinage4FontEE5applyEPv @2594
    _ZN7luabind6detail8delete_sIN6Hinage4GameEE5applyEPv @2595
    _ZN7luabind6detail8delete_sIN6Hinage5TimerEE5applyEPv @2596
    _ZN7luabind6detail8delete_sIN6Hinage7DisplayEE5applyEPv @2597
    _ZN7luabind6detail8delete_sIN6Hinage7Vector2IdEEE5applyEPv @2598
    _ZN7luabind6detail8push_auxIA10_KcNS0_14default_policyEEEvP9lua_StateRT_PT0_ @2599
    _ZN7luabind6detail8push_auxIA4_KcNS0_14default_policyEEEvP9lua_StateRT_PT0_ @2600
    _ZN7luabind6detail8push_auxIA5_KcNS0_14default_policyEEEvP9lua_StateRT_PT0_ @2601
    _ZN7luabind6detail8push_auxIA6_KcNS0_14default_policyEEEvP9lua_StateRT_PT0_ @2602
    _ZN7luabind6detail8push_auxIA7_KcNS0_14default_policyEEEvP9lua_StateRT_PT0_ @2603
    _ZN7luabind6detail8push_auxIKP12AudioManagerNS0_14default_policyEEEvP9lua_StateRT_PT0_ @2604
    _ZN7luabind6detail8push_auxIKPN6Hinage12InputManagerENS0_14default_policyEEEvP9lua_StateRT_PT0_ @2605
    _ZN7luabind6detail8push_auxIKPN6Hinage3MapENS0_14default_policyEEEvP9lua_StateRT_PT0_ @2606
    _ZN7luabind6detail8push_auxIKPN6Hinage4GameENS0_14default_policyEEEvP9lua_StateRT_PT0_ @2607
    _ZN7luabind6detail8push_auxIKPN6Hinage5TimerENS0_14default_policyEEEvP9lua_StateRT_PT0_ @2608
    _ZN7luabind6detail8push_auxIKPN6Hinage7DisplayENS0_14default_policyEEEvP9lua_StateRT_PT0_ @2609
    _ZN7luabind6detail9null_typeC2Ev @2610
    _ZN7luabind6detail9stack_popC1EP9lua_Statei @2611
    _ZN7luabind6detail9stack_popD1Ev @2612
    _ZN7luabind6handleC1EP9lua_Statei @2613
    _ZN7luabind6handleD1Ev @2614
    _ZN7luabind6moduleEP9lua_StatePKc @2615
    _ZN7luabind7globalsEP9lua_State @2616
    _ZN7luabind84_GLOBAL__N__ZN5boost10filesystem9extensionERKNS0_10basic_pathISsNS0_11path_traitsEEE12pure_virtualE @2617 DATA
    _ZN7luabind84_GLOBAL__N__ZN5boost10filesystem9extensionERKNS0_10basic_pathISsNS0_11path_traitsEEE5yieldE @2618 DATA
    _ZN7luabind9index_mapC1EPKi @2619
    _ZN9TiXmlBase10IsAlphaNumEh13TiXmlEncoding @2620
    _ZN9TiXmlBase11StringEqualEPKcS1_b13TiXmlEncoding @2621
    _ZN9TiXmlBase11errorStringE @2622 DATA
    _ZN9TiXmlBase12EncodeStringERK11TiXmlStringPS0_ @2623
    _ZN9TiXmlBase12IsWhiteSpaceEc @2624
    _ZN9TiXmlBase13utf8ByteTableE @2625 DATA
    _ZN9TiXmlBase14SkipWhiteSpaceEPKc13TiXmlEncoding @2626
    _ZN9TiXmlBase18ConvertUTF32ToUTF8EmPcPi @2627
    _ZN9TiXmlBase18condenseWhiteSpaceE @2628 DATA
    _ZN9TiXmlBase21IsWhiteSpaceCondensedEv @2629
    _ZN9TiXmlBase6entityE @2630 DATA
    _ZN9TiXmlBase7GetCharEPKcPcPi13TiXmlEncoding @2631
    _ZN9TiXmlBase7IsAlphaEh13TiXmlEncoding @2632
    _ZN9TiXmlBase7ToLowerEi13TiXmlEncoding @2633
    _ZN9TiXmlBase8ReadNameEPKcP11TiXmlString13TiXmlEncoding @2634
    _ZN9TiXmlBase8ReadTextEPKcP11TiXmlStringbS1_b13TiXmlEncoding @2635
    _ZN9TiXmlBase9GetEntityEPKcPcPi13TiXmlEncoding @2636
    _ZN9TiXmlBaseC2Ev @2637
    _ZN9TiXmlBaseD0Ev @2638
    _ZN9TiXmlBaseD1Ev @2639
    _ZN9TiXmlBaseD2Ev @2640
    _ZN9TiXmlNode10FirstChildEPKc @2641
    _ZN9TiXmlNode10FirstChildEv @2642
    _ZN9TiXmlNode10ToDocumentEv @2643
    _ZN9TiXmlNode11GetDocumentEv @2644
    _ZN9TiXmlNode11NextSiblingEPKc @2645
    _ZN9TiXmlNode11NextSiblingEv @2646
    _ZN9TiXmlNode11RemoveChildEPS_ @2647
    _ZN9TiXmlNode12LinkEndChildEPS_ @2648
    _ZN9TiXmlNode12ReplaceChildEPS_RKS_ @2649
    _ZN9TiXmlNode13ToDeclarationEv @2650
    _ZN9TiXmlNode14InsertEndChildERKS_ @2651
    _ZN9TiXmlNode16InsertAfterChildEPS_RKS_ @2652
    _ZN9TiXmlNode17FirstChildElementEPKc @2653
    _ZN9TiXmlNode17FirstChildElementEv @2654
    _ZN9TiXmlNode17InsertBeforeChildEPS_RKS_ @2655
    _ZN9TiXmlNode18NextSiblingElementEPKc @2656
    _ZN9TiXmlNode18NextSiblingElementEv @2657
    _ZN9TiXmlNode5ClearEv @2658
    _ZN9TiXmlNode6ToTextEv @2659
    _ZN9TiXmlNode8IdentifyEPKc13TiXmlEncoding @2660
    _ZN9TiXmlNode8SetValueEPKc @2661
    _ZN9TiXmlNode9ToCommentEv @2662
    _ZN9TiXmlNode9ToElementEv @2663
    _ZN9TiXmlNode9ToUnknownEv @2664
    _ZN9TiXmlNodeC1ENS_8NodeTypeE @2665
    _ZN9TiXmlNodeC2ENS_8NodeTypeE @2666
    _ZN9TiXmlNodeD0Ev @2667
    _ZN9TiXmlNodeD1Ev @2668
    _ZN9TiXmlNodeD2Ev @2669
    _ZN9TiXmlText5ParseEPKcP16TiXmlParsingData13TiXmlEncoding @2670
    _ZN9TiXmlText6ToTextEv @2671
    _ZN9TiXmlText8SetCDATAEb @2672
    _ZN9TiXmlTextC1EPKc @2673
    _ZN9TiXmlTextD0Ev @2674
    _ZN9TiXmlTextD1Ev @2675
    _ZN9__gnu_cxx13new_allocatorIN5boost10shared_ptrIN6Hinage8ParticleEEEEC2Ev @2676
    _ZN9__gnu_cxx13new_allocatorIN5boost10shared_ptrIN6Hinage8ParticleEEEED2Ev @2677
    _ZN9__gnu_cxx13new_allocatorIN6Hinage14PhysicalEntity17TileCollisionDataEE10deallocateEPS3_j @2678
    _ZN9__gnu_cxx13new_allocatorIN6Hinage14PhysicalEntity17TileCollisionDataEE8allocateEjPKv @2679
    _ZN9__gnu_cxx13new_allocatorIN6Hinage14PhysicalEntity17TileCollisionDataEEC2ERKS4_ @2680
    _ZN9__gnu_cxx13new_allocatorIN6Hinage14PhysicalEntity17TileCollisionDataEEC2Ev @2681
    _ZN9__gnu_cxx13new_allocatorIN6Hinage14PhysicalEntity17TileCollisionDataEED2Ev @2682
    _ZN9__gnu_cxx13new_allocatorIN6Hinage8Renderer12RenderObjectEE10deallocateEPS3_j @2683
    _ZN9__gnu_cxx13new_allocatorIN6Hinage8Renderer12RenderObjectEE8allocateEjPKv @2684
    _ZN9__gnu_cxx13new_allocatorIN6Hinage8Renderer12RenderObjectEEC2ERKS4_ @2685
    _ZN9__gnu_cxx13new_allocatorIN6Hinage8Renderer12RenderObjectEEC2Ev @2686
    _ZN9__gnu_cxx13new_allocatorIN6Hinage8Renderer12RenderObjectEED2Ev @2687
    _ZN9__gnu_cxx13new_allocatorIN6Hinage8Renderer6VertexEE10deallocateEPS3_j @2688
    _ZN9__gnu_cxx13new_allocatorIN6Hinage8Renderer6VertexEE8allocateEjPKv @2689
    _ZN9__gnu_cxx13new_allocatorIN6Hinage8Renderer6VertexEEC2ERKS4_ @2690
    _ZN9__gnu_cxx13new_allocatorIN6Hinage8Renderer6VertexEEC2Ev @2691
    _ZN9__gnu_cxx13new_allocatorIN6Hinage8Renderer6VertexEED2Ev @2692
    _ZN9__gnu_cxx13new_allocatorIN7luabind5valueEE10deallocateEPS2_j @2693
    _ZN9__gnu_cxx13new_allocatorIN7luabind5valueEED2Ev @2694
    _ZN9__gnu_cxx13new_allocatorIPKSt9type_infoE10deallocateEPS3_j @2695
    _ZN9__gnu_cxx13new_allocatorIPKSt9type_infoE8allocateEjPKv @2696
    _ZN9__gnu_cxx13new_allocatorIPKSt9type_infoEC2ERKS4_ @2697
    _ZN9__gnu_cxx13new_allocatorIPKSt9type_infoEC2Ev @2698
    _ZN9__gnu_cxx13new_allocatorIPKSt9type_infoED2Ev @2699
    _ZN9__gnu_cxx13new_allocatorIPN6Hinage14PhysicalEntityEE10deallocateEPS3_j @2700
    _ZN9__gnu_cxx13new_allocatorIPN6Hinage14PhysicalEntityEE8allocateEjPKv @2701
    _ZN9__gnu_cxx13new_allocatorIPN6Hinage14PhysicalEntityEEC2ERKS4_ @2702
    _ZN9__gnu_cxx13new_allocatorIPN6Hinage14PhysicalEntityEEC2Ev @2703
    _ZN9__gnu_cxx13new_allocatorIPN6Hinage14PhysicalEntityEED2Ev @2704
    _ZN9__gnu_cxx13new_allocatorIPN6Hinage15ResourceManagerINS1_4FontEE8ResourceEE10deallocateEPS6_j @2705
    _ZN9__gnu_cxx13new_allocatorIPN6Hinage15ResourceManagerINS1_4FontEE8ResourceEE8allocateEjPKv @2706
    _ZN9__gnu_cxx13new_allocatorIPN6Hinage15ResourceManagerINS1_4FontEE8ResourceEEC2ERKS7_ @2707
    _ZN9__gnu_cxx13new_allocatorIPN6Hinage15ResourceManagerINS1_4FontEE8ResourceEEC2Ev @2708
    _ZN9__gnu_cxx13new_allocatorIPN6Hinage15ResourceManagerINS1_4FontEE8ResourceEED2Ev @2709
    _ZN9__gnu_cxx13new_allocatorIPN6Hinage15ResourceManagerINS1_6SpriteEE8ResourceEE10deallocateEPS6_j @2710
    _ZN9__gnu_cxx13new_allocatorIPN6Hinage15ResourceManagerINS1_6SpriteEE8ResourceEE8allocateEjPKv @2711
    _ZN9__gnu_cxx13new_allocatorIPN6Hinage15ResourceManagerINS1_6SpriteEE8ResourceEEC2ERKS7_ @2712
    _ZN9__gnu_cxx13new_allocatorIPN6Hinage15ResourceManagerINS1_6SpriteEE8ResourceEEC2Ev @2713
    _ZN9__gnu_cxx13new_allocatorIPN6Hinage15ResourceManagerINS1_6SpriteEE8ResourceEED2Ev @2714
    _ZN9__gnu_cxx13new_allocatorIPN6Hinage15ResourceManagerINS1_7TextureEE8ResourceEE10deallocateEPS6_j @2715
    _ZN9__gnu_cxx13new_allocatorIPN6Hinage15ResourceManagerINS1_7TextureEE8ResourceEE8allocateEjPKv @2716
    _ZN9__gnu_cxx13new_allocatorIPN6Hinage15ResourceManagerINS1_7TextureEE8ResourceEEC2ERKS7_ @2717
    _ZN9__gnu_cxx13new_allocatorIPN6Hinage15ResourceManagerINS1_7TextureEE8ResourceEEC2Ev @2718
    _ZN9__gnu_cxx13new_allocatorIPN6Hinage15ResourceManagerINS1_7TextureEE8ResourceEED2Ev @2719
    _ZN9__gnu_cxx13new_allocatorIPN6Hinage15ResourceManagerINS1_7TilesetEE8ResourceEE10deallocateEPS6_j @2720
    _ZN9__gnu_cxx13new_allocatorIPN6Hinage15ResourceManagerINS1_7TilesetEE8ResourceEE8allocateEjPKv @2721
    _ZN9__gnu_cxx13new_allocatorIPN6Hinage15ResourceManagerINS1_7TilesetEE8ResourceEEC2ERKS7_ @2722
    _ZN9__gnu_cxx13new_allocatorIPN6Hinage15ResourceManagerINS1_7TilesetEE8ResourceEEC2Ev @2723
    _ZN9__gnu_cxx13new_allocatorIPN6Hinage15ResourceManagerINS1_7TilesetEE8ResourceEED2Ev @2724
    _ZN9__gnu_cxx13new_allocatorIPN6Hinage15SpriteAnimation5FrameEE10deallocateEPS4_j @2725
    _ZN9__gnu_cxx13new_allocatorIPN6Hinage15SpriteAnimation5FrameEE8allocateEjPKv @2726
    _ZN9__gnu_cxx13new_allocatorIPN6Hinage15SpriteAnimation5FrameEEC2ERKS5_ @2727
    _ZN9__gnu_cxx13new_allocatorIPN6Hinage15SpriteAnimation5FrameEEC2Ev @2728
    _ZN9__gnu_cxx13new_allocatorIPN6Hinage15SpriteAnimation5FrameEED2Ev @2729
    _ZN9__gnu_cxx13new_allocatorIPN6Hinage15SpriteAnimationEE10deallocateEPS3_j @2730
    _ZN9__gnu_cxx13new_allocatorIPN6Hinage15SpriteAnimationEE8allocateEjPKv @2731
    _ZN9__gnu_cxx13new_allocatorIPN6Hinage15SpriteAnimationEEC2ERKS4_ @2732
    _ZN9__gnu_cxx13new_allocatorIPN6Hinage15SpriteAnimationEEC2Ev @2733
    _ZN9__gnu_cxx13new_allocatorIPN6Hinage15SpriteAnimationEED2Ev @2734
    _ZN9__gnu_cxx13new_allocatorIPN6Hinage6UIItemEE10deallocateEPS3_j @2735
    _ZN9__gnu_cxx13new_allocatorIPN6Hinage6UIItemEEC2ERKS4_ @2736
    _ZN9__gnu_cxx13new_allocatorIPN6Hinage6UIItemEEC2Ev @2737
    _ZN9__gnu_cxx13new_allocatorIPN6Hinage6UIItemEED2Ev @2738
    _ZN9__gnu_cxx13new_allocatorIPN6Hinage9GameStateEE10deallocateEPS3_j @2739
    _ZN9__gnu_cxx13new_allocatorIPN6Hinage9GameStateEE8allocateEjPKv @2740
    _ZN9__gnu_cxx13new_allocatorIPN6Hinage9GameStateEEC2ERKS4_ @2741
    _ZN9__gnu_cxx13new_allocatorIPN6Hinage9GameStateEEC2Ev @2742
    _ZN9__gnu_cxx13new_allocatorIPN6Hinage9GameStateEED2Ev @2743
    _ZN9__gnu_cxx13new_allocatorISsE10deallocateEPSsj @2744
    _ZN9__gnu_cxx13new_allocatorISsE8allocateEjPKv @2745
    _ZN9__gnu_cxx13new_allocatorISsEC2ERKS1_ @2746
    _ZN9__gnu_cxx13new_allocatorISsEC2Ev @2747
    _ZN9__gnu_cxx13new_allocatorISsED2Ev @2748
    _ZN9__gnu_cxx13new_allocatorISt10_List_nodeIN5boost10shared_ptrIN6Hinage8ParticleEEEEE10deallocateEPS7_j @2749
    _ZN9__gnu_cxx13new_allocatorISt10_List_nodeIN5boost10shared_ptrIN6Hinage8ParticleEEEEE8allocateEjPKv @2750
    _ZN9__gnu_cxx13new_allocatorISt10_List_nodeIN5boost10shared_ptrIN6Hinage8ParticleEEEEEC2ERKS8_ @2751
    _ZN9__gnu_cxx13new_allocatorISt10_List_nodeIN5boost10shared_ptrIN6Hinage8ParticleEEEEEC2Ev @2752
    _ZN9__gnu_cxx13new_allocatorISt10_List_nodeIN5boost10shared_ptrIN6Hinage8ParticleEEEEED2Ev @2753
    _ZN9__gnu_cxx13new_allocatorISt13_Rb_tree_nodeISt4pairIKSsP10_Mix_MusicEEE10deallocateEPS7_j @2754
    _ZN9__gnu_cxx13new_allocatorISt13_Rb_tree_nodeISt4pairIKSsP10_Mix_MusicEEE8allocateEjPKv @2755
    _ZN9__gnu_cxx13new_allocatorISt13_Rb_tree_nodeISt4pairIKSsP10_Mix_MusicEEEC2ERKS8_ @2756
    _ZN9__gnu_cxx13new_allocatorISt13_Rb_tree_nodeISt4pairIKSsP10_Mix_MusicEEEC2Ev @2757
    _ZN9__gnu_cxx13new_allocatorISt13_Rb_tree_nodeISt4pairIKSsP10_Mix_MusicEEED2Ev @2758
    _ZN9__gnu_cxx13new_allocatorISt13_Rb_tree_nodeISt4pairIKSsP9Mix_ChunkEEE10deallocateEPS7_j @2759
    _ZN9__gnu_cxx13new_allocatorISt13_Rb_tree_nodeISt4pairIKSsP9Mix_ChunkEEE8allocateEjPKv @2760
    _ZN9__gnu_cxx13new_allocatorISt13_Rb_tree_nodeISt4pairIKSsP9Mix_ChunkEEEC2ERKS8_ @2761
    _ZN9__gnu_cxx13new_allocatorISt13_Rb_tree_nodeISt4pairIKSsP9Mix_ChunkEEEC2Ev @2762
    _ZN9__gnu_cxx13new_allocatorISt13_Rb_tree_nodeISt4pairIKSsP9Mix_ChunkEEED2Ev @2763
    _ZN9__gnu_cxx13new_allocatorISt13_Rb_tree_nodeISt4pairIKSsPFPN6Hinage14PhysicalEntityESsPNS4_4GameEEEEE10deallocateEPSC_j @2764
    _ZN9__gnu_cxx13new_allocatorISt13_Rb_tree_nodeISt4pairIKSsPFPN6Hinage14PhysicalEntityESsPNS4_4GameEEEEE8allocateEjPKv @2765
    _ZN9__gnu_cxx13new_allocatorISt13_Rb_tree_nodeISt4pairIKSsPFPN6Hinage14PhysicalEntityESsPNS4_4GameEEEEEC2ERKSD_ @2766
    _ZN9__gnu_cxx13new_allocatorISt13_Rb_tree_nodeISt4pairIKSsPFPN6Hinage14PhysicalEntityESsPNS4_4GameEEEEEC2Ev @2767
    _ZN9__gnu_cxx13new_allocatorISt13_Rb_tree_nodeISt4pairIKSsPFPN6Hinage14PhysicalEntityESsPNS4_4GameEEEEED2Ev @2768
    _ZN9__gnu_cxx13new_allocatorISt13_Rb_tree_nodeISt4pairIKSsSsEEE10deallocateEPS5_j @2769
    _ZN9__gnu_cxx13new_allocatorISt13_Rb_tree_nodeISt4pairIKSsSsEEE8allocateEjPKv @2770
    _ZN9__gnu_cxx13new_allocatorISt13_Rb_tree_nodeISt4pairIKSsSsEEEC2ERKS6_ @2771
    _ZN9__gnu_cxx13new_allocatorISt13_Rb_tree_nodeISt4pairIKSsSsEEEC2Ev @2772
    _ZN9__gnu_cxx13new_allocatorISt13_Rb_tree_nodeISt4pairIKSsSsEEED2Ev @2773
    _ZN9__gnu_cxx13new_allocatorISt4pairIKSsP10_Mix_MusicEEC2Ev @2774
    _ZN9__gnu_cxx13new_allocatorISt4pairIKSsP10_Mix_MusicEED2Ev @2775
    _ZN9__gnu_cxx13new_allocatorISt4pairIKSsP9Mix_ChunkEEC2Ev @2776
    _ZN9__gnu_cxx13new_allocatorISt4pairIKSsP9Mix_ChunkEED2Ev @2777
    _ZN9__gnu_cxx13new_allocatorISt4pairIKSsPFPN6Hinage14PhysicalEntityESsPNS3_4GameEEEEC2Ev @2778
    _ZN9__gnu_cxx13new_allocatorISt4pairIKSsPFPN6Hinage14PhysicalEntityESsPNS3_4GameEEEED2Ev @2779
    _ZN9__gnu_cxx13new_allocatorISt4pairIKSsSsEEC2Ev @2780
    _ZN9__gnu_cxx13new_allocatorISt4pairIKSsSsEED2Ev @2781
    _ZN9__gnu_cxx13new_allocatorISt6vectorIN6Hinage8Renderer12RenderObjectESaIS4_EEE10deallocateEPS6_j @2782
    _ZN9__gnu_cxx13new_allocatorISt6vectorIN6Hinage8Renderer12RenderObjectESaIS4_EEE8allocateEjPKv @2783
    _ZN9__gnu_cxx13new_allocatorISt6vectorIN6Hinage8Renderer12RenderObjectESaIS4_EEEC2ERKS7_ @2784
    _ZN9__gnu_cxx13new_allocatorISt6vectorIN6Hinage8Renderer12RenderObjectESaIS4_EEEC2Ev @2785
    _ZN9__gnu_cxx13new_allocatorISt6vectorIN6Hinage8Renderer12RenderObjectESaIS4_EEED2Ev @2786
    _ZN9__gnu_cxx13new_allocatorISt6vectorIcSaIcEEE10deallocateEPS3_j @2787
    _ZN9__gnu_cxx13new_allocatorISt6vectorIcSaIcEEE8allocateEjPKv @2788
    _ZN9__gnu_cxx13new_allocatorISt6vectorIcSaIcEEEC2ERKS4_ @2789
    _ZN9__gnu_cxx13new_allocatorISt6vectorIcSaIcEEEC2Ev @2790
    _ZN9__gnu_cxx13new_allocatorISt6vectorIcSaIcEEED2Ev @2791
    _ZN9__gnu_cxx13new_allocatorIcE10deallocateEPcj @2792
    _ZN9__gnu_cxx13new_allocatorIcE8allocateEjPKv @2793
    _ZN9__gnu_cxx17__normal_iteratorIPKN6Hinage14PhysicalEntity17TileCollisionDataESt6vectorIS3_SaIS3_EEEC1ERKS5_ @2794
    _ZN9__gnu_cxx17__normal_iteratorIPKN6Hinage8Renderer12RenderObjectESt6vectorIS3_SaIS3_EEEC1ERKS5_ @2795
    _ZN9__gnu_cxx17__normal_iteratorIPKN6Hinage8Renderer12RenderObjectESt6vectorIS3_SaIS3_EEEppEv @2796
    _ZN9__gnu_cxx17__normal_iteratorIPKN6Hinage8Renderer6VertexESt6vectorIS3_SaIS3_EEEC1ERKS5_ @2797
    _ZN9__gnu_cxx17__normal_iteratorIPKN6Hinage8Renderer6VertexESt6vectorIS3_SaIS3_EEEppEv @2798
    _ZN9__gnu_cxx17__normal_iteratorIPKPKSt9type_infoSt6vectorIS3_SaIS3_EEEC1ERKS5_ @2799
    _ZN9__gnu_cxx17__normal_iteratorIPKPN6Hinage14PhysicalEntityESt6vectorIS3_SaIS3_EEEC1ERKS5_ @2800
    _ZN9__gnu_cxx17__normal_iteratorIPKPN6Hinage15ResourceManagerINS1_4FontEE8ResourceESt6vectorIS6_SaIS6_EEEC1ERKS8_ @2801
    _ZN9__gnu_cxx17__normal_iteratorIPKPN6Hinage15ResourceManagerINS1_6SpriteEE8ResourceESt6vectorIS6_SaIS6_EEEC1ERKS8_ @2802
    _ZN9__gnu_cxx17__normal_iteratorIPKPN6Hinage15ResourceManagerINS1_7TextureEE8ResourceESt6vectorIS6_SaIS6_EEEC1ERKS8_ @2803
    _ZN9__gnu_cxx17__normal_iteratorIPKPN6Hinage15ResourceManagerINS1_7TilesetEE8ResourceESt6vectorIS6_SaIS6_EEEC1ERKS8_ @2804
    _ZN9__gnu_cxx17__normal_iteratorIPKPN6Hinage15SpriteAnimation5FrameESt6vectorIS4_SaIS4_EEEC1ERKS6_ @2805
    _ZN9__gnu_cxx17__normal_iteratorIPKPN6Hinage15SpriteAnimationESt6vectorIS3_SaIS3_EEEC1ERKS5_ @2806
    _ZN9__gnu_cxx17__normal_iteratorIPKPN6Hinage6UIItemESt6vectorIS3_SaIS3_EEEC1ERKS5_ @2807
    _ZN9__gnu_cxx17__normal_iteratorIPKPN6Hinage9GameStateESt6vectorIS3_SaIS3_EEEC1ERKS5_ @2808
    _ZN9__gnu_cxx17__normal_iteratorIPKSsSt6vectorISsSaISsEEEC1ERKS2_ @2809
    _ZN9__gnu_cxx17__normal_iteratorIPKSt6vectorIN6Hinage8Renderer12RenderObjectESaIS4_EES1_IS6_SaIS6_EEEC1ERKS8_ @2810
    _ZN9__gnu_cxx17__normal_iteratorIPKSt6vectorIcSaIcEES1_IS3_SaIS3_EEEC1ERKS5_ @2811
    _ZN9__gnu_cxx17__normal_iteratorIPKcSt6vectorIcSaIcEEEC1ERKS2_ @2812
    _ZN9__gnu_cxx17__normal_iteratorIPN6Hinage14PhysicalEntity17TileCollisionDataESt6vectorIS3_SaIS3_EEEC1ERKS4_ @2813
    _ZN9__gnu_cxx17__normal_iteratorIPN6Hinage14PhysicalEntity17TileCollisionDataESt6vectorIS3_SaIS3_EEEppEv @2814
    _ZN9__gnu_cxx17__normal_iteratorIPN6Hinage8Renderer12RenderObjectESt6vectorIS3_SaIS3_EEEC1ERKS4_ @2815
    _ZN9__gnu_cxx17__normal_iteratorIPN6Hinage8Renderer12RenderObjectESt6vectorIS3_SaIS3_EEEppEv @2816
    _ZN9__gnu_cxx17__normal_iteratorIPN6Hinage8Renderer6VertexESt6vectorIS3_SaIS3_EEEC1ERKS4_ @2817
    _ZN9__gnu_cxx17__normal_iteratorIPN6Hinage8Renderer6VertexESt6vectorIS3_SaIS3_EEEppEv @2818
    _ZN9__gnu_cxx17__normal_iteratorIPPKSt9type_infoSt6vectorIS3_SaIS3_EEEC1ERKS4_ @2819
    _ZN9__gnu_cxx17__normal_iteratorIPPKSt9type_infoSt6vectorIS3_SaIS3_EEEppEv @2820
    _ZN9__gnu_cxx17__normal_iteratorIPPN6Hinage14PhysicalEntityESt6vectorIS3_SaIS3_EEEC1ERKS4_ @2821
    _ZN9__gnu_cxx17__normal_iteratorIPPN6Hinage14PhysicalEntityESt6vectorIS3_SaIS3_EEEpLERKi @2822
    _ZN9__gnu_cxx17__normal_iteratorIPPN6Hinage14PhysicalEntityESt6vectorIS3_SaIS3_EEEppEv @2823
    _ZN9__gnu_cxx17__normal_iteratorIPPN6Hinage15ResourceManagerINS1_4FontEE8ResourceESt6vectorIS6_SaIS6_EEEC1ERKS7_ @2824
    _ZN9__gnu_cxx17__normal_iteratorIPPN6Hinage15ResourceManagerINS1_4FontEE8ResourceESt6vectorIS6_SaIS6_EEEppEv @2825
    _ZN9__gnu_cxx17__normal_iteratorIPPN6Hinage15ResourceManagerINS1_6SpriteEE8ResourceESt6vectorIS6_SaIS6_EEEC1ERKS7_ @2826
    _ZN9__gnu_cxx17__normal_iteratorIPPN6Hinage15ResourceManagerINS1_6SpriteEE8ResourceESt6vectorIS6_SaIS6_EEEppEv @2827
    _ZN9__gnu_cxx17__normal_iteratorIPPN6Hinage15ResourceManagerINS1_7TextureEE8ResourceESt6vectorIS6_SaIS6_EEEC1ERKS7_ @2828
    _ZN9__gnu_cxx17__normal_iteratorIPPN6Hinage15ResourceManagerINS1_7TextureEE8ResourceESt6vectorIS6_SaIS6_EEEppEv @2829
    _ZN9__gnu_cxx17__normal_iteratorIPPN6Hinage15ResourceManagerINS1_7TilesetEE8ResourceESt6vectorIS6_SaIS6_EEEC1ERKS7_ @2830
    _ZN9__gnu_cxx17__normal_iteratorIPPN6Hinage15ResourceManagerINS1_7TilesetEE8ResourceESt6vectorIS6_SaIS6_EEEppEv @2831
    _ZN9__gnu_cxx17__normal_iteratorIPPN6Hinage15SpriteAnimation5FrameESt6vectorIS4_SaIS4_EEEC1ERKS5_ @2832
    _ZN9__gnu_cxx17__normal_iteratorIPPN6Hinage15SpriteAnimation5FrameESt6vectorIS4_SaIS4_EEEppEv @2833
    _ZN9__gnu_cxx17__normal_iteratorIPPN6Hinage15SpriteAnimationESt6vectorIS3_SaIS3_EEEC1ERKS4_ @2834
    _ZN9__gnu_cxx17__normal_iteratorIPPN6Hinage15SpriteAnimationESt6vectorIS3_SaIS3_EEEppEv @2835
    _ZN9__gnu_cxx17__normal_iteratorIPPN6Hinage6UIItemESt6vectorIS3_SaIS3_EEEC1ERKS4_ @2836
    _ZN9__gnu_cxx17__normal_iteratorIPPN6Hinage9GameStateESt6vectorIS3_SaIS3_EEEC1ERKS4_ @2837
    _ZN9__gnu_cxx17__normal_iteratorIPPN6Hinage9GameStateESt6vectorIS3_SaIS3_EEEppEv @2838
    _ZN9__gnu_cxx17__normal_iteratorIPSsSt6vectorISsSaISsEEEC1ERKS1_ @2839
    _ZN9__gnu_cxx17__normal_iteratorIPSsSt6vectorISsSaISsEEEppEv @2840
    _ZN9__gnu_cxx17__normal_iteratorIPSt6vectorIN6Hinage8Renderer12RenderObjectESaIS4_EES1_IS6_SaIS6_EEEC1ERKS7_ @2841
    _ZN9__gnu_cxx17__normal_iteratorIPSt6vectorIN6Hinage8Renderer12RenderObjectESaIS4_EES1_IS6_SaIS6_EEEppEv @2842
    _ZN9__gnu_cxx17__normal_iteratorIPSt6vectorIcSaIcEES1_IS3_SaIS3_EEEC1ERKS4_ @2843
    _ZN9__gnu_cxx17__normal_iteratorIPSt6vectorIcSaIcEES1_IS3_SaIS3_EEEppEv @2844
    _ZN9__gnu_cxx17__normal_iteratorIPcSsEC1ERKS1_ @2845
    _ZN9__gnu_cxx17__normal_iteratorIPcSt6vectorIcSaIcEEEC1ERKS1_ @2846
    _ZN9__gnu_cxx17__normal_iteratorIPcSt6vectorIcSaIcEEEppEv @2847
    _ZN9__gnu_cxxeqIPKPN6Hinage9GameStateESt6vectorIS3_SaIS3_EEEEbRKNS_17__normal_iteratorIT_T0_EESE_ @2848
    _ZN9__gnu_cxxmiIPKN6Hinage14PhysicalEntity17TileCollisionDataES5_St6vectorIS3_SaIS3_EEEENS_17__normal_iteratorIT_T1_E15difference_typeERKSC_RKNS9_IT0_SB_EE @2849
    _ZN9__gnu_cxxmiIPKN6Hinage8Renderer12RenderObjectES5_St6vectorIS3_SaIS3_EEEENS_17__normal_iteratorIT_T1_E15difference_typeERKSC_RKNS9_IT0_SB_EE @2850
    _ZN9__gnu_cxxmiIPKN6Hinage8Renderer6VertexES5_St6vectorIS3_SaIS3_EEEENS_17__normal_iteratorIT_T1_E15difference_typeERKSC_RKNS9_IT0_SB_EE @2851
    _ZN9__gnu_cxxmiIPKPKSt9type_infoS5_St6vectorIS3_SaIS3_EEEENS_17__normal_iteratorIT_T1_E15difference_typeERKSC_RKNS9_IT0_SB_EE @2852
    _ZN9__gnu_cxxmiIPKPN6Hinage14PhysicalEntityES5_St6vectorIS3_SaIS3_EEEENS_17__normal_iteratorIT_T1_E15difference_typeERKSC_RKNS9_IT0_SB_EE @2853
    _ZN9__gnu_cxxmiIPKPN6Hinage15ResourceManagerINS1_4FontEE8ResourceES8_St6vectorIS6_SaIS6_EEEENS_17__normal_iteratorIT_T1_E15difference_typeERKSF_RKNSC_IT0_SE_EE @2854
    _ZN9__gnu_cxxmiIPKPN6Hinage15ResourceManagerINS1_6SpriteEE8ResourceES8_St6vectorIS6_SaIS6_EEEENS_17__normal_iteratorIT_T1_E15difference_typeERKSF_RKNSC_IT0_SE_EE @2855
    _ZN9__gnu_cxxmiIPKPN6Hinage15ResourceManagerINS1_7TextureEE8ResourceES8_St6vectorIS6_SaIS6_EEEENS_17__normal_iteratorIT_T1_E15difference_typeERKSF_RKNSC_IT0_SE_EE @2856
    _ZN9__gnu_cxxmiIPKPN6Hinage15ResourceManagerINS1_7TilesetEE8ResourceES8_St6vectorIS6_SaIS6_EEEENS_17__normal_iteratorIT_T1_E15difference_typeERKSF_RKNSC_IT0_SE_EE @2857
    _ZN9__gnu_cxxmiIPKPN6Hinage15SpriteAnimation5FrameES6_St6vectorIS4_SaIS4_EEEENS_17__normal_iteratorIT_T1_E15difference_typeERKSD_RKNSA_IT0_SC_EE @2858
    _ZN9__gnu_cxxmiIPKPN6Hinage15SpriteAnimationES5_St6vectorIS3_SaIS3_EEEENS_17__normal_iteratorIT_T1_E15difference_typeERKSC_RKNS9_IT0_SB_EE @2859
    _ZN9__gnu_cxxmiIPKPN6Hinage6UIItemES5_St6vectorIS3_SaIS3_EEEENS_17__normal_iteratorIT_T1_E15difference_typeERKSC_RKNS9_IT0_SB_EE @2860
    _ZN9__gnu_cxxmiIPKPN6Hinage9GameStateES5_St6vectorIS3_SaIS3_EEEENS_17__normal_iteratorIT_T1_E15difference_typeERKSC_RKNS9_IT0_SB_EE @2861
    _ZN9__gnu_cxxmiIPKSsS2_St6vectorISsSaISsEEEENS_17__normal_iteratorIT_T1_E15difference_typeERKS9_RKNS6_IT0_S8_EE @2862
    _ZN9__gnu_cxxmiIPKSt6vectorIN6Hinage8Renderer12RenderObjectESaIS4_EES8_S1_IS6_SaIS6_EEEENS_17__normal_iteratorIT_T1_E15difference_typeERKSE_RKNSB_IT0_SD_EE @2863
    _ZN9__gnu_cxxmiIPKSt6vectorIcSaIcEES5_S1_IS3_SaIS3_EEEENS_17__normal_iteratorIT_T1_E15difference_typeERKSB_RKNS8_IT0_SA_EE @2864
    _ZN9__gnu_cxxmiIPKcS2_St6vectorIcSaIcEEEENS_17__normal_iteratorIT_T1_E15difference_typeERKS9_RKNS6_IT0_S8_EE @2865
    _ZN9__gnu_cxxmiIPN6Hinage14PhysicalEntity17TileCollisionDataES4_St6vectorIS3_SaIS3_EEEENS_17__normal_iteratorIT_T1_E15difference_typeERKSB_RKNS8_IT0_SA_EE @2866
    _ZN9__gnu_cxxmiIPN6Hinage8Renderer12RenderObjectES4_St6vectorIS3_SaIS3_EEEENS_17__normal_iteratorIT_T1_E15difference_typeERKSB_RKNS8_IT0_SA_EE @2867
    _ZN9__gnu_cxxmiIPPN6Hinage14PhysicalEntityES4_St6vectorIS3_SaIS3_EEEENS_17__normal_iteratorIT_T1_E15difference_typeERKSB_RKNS8_IT0_SA_EE @2868
    _ZN9__gnu_cxxmiIPPN6Hinage9GameStateES4_St6vectorIS3_SaIS3_EEEENS_17__normal_iteratorIT_T1_E15difference_typeERKSB_RKNS8_IT0_SA_EE @2869
    _ZN9__gnu_cxxmiIPSsS1_St6vectorISsSaISsEEEENS_17__normal_iteratorIT_T1_E15difference_typeERKS8_RKNS5_IT0_S7_EE @2870
    _ZN9__gnu_cxxneIPKN6Hinage8Renderer12RenderObjectESt6vectorIS3_SaIS3_EEEEbRKNS_17__normal_iteratorIT_T0_EESE_ @2871
    _ZN9__gnu_cxxneIPKN6Hinage8Renderer6VertexESt6vectorIS3_SaIS3_EEEEbRKNS_17__normal_iteratorIT_T0_EESE_ @2872
    _ZN9__gnu_cxxneIPN6Hinage14PhysicalEntity17TileCollisionDataESt6vectorIS3_SaIS3_EEEEbRKNS_17__normal_iteratorIT_T0_EESD_ @2873
    _ZN9__gnu_cxxneIPN6Hinage8Renderer12RenderObjectESt6vectorIS3_SaIS3_EEEEbRKNS_17__normal_iteratorIT_T0_EESD_ @2874
    _ZN9__gnu_cxxneIPN6Hinage8Renderer6VertexESt6vectorIS3_SaIS3_EEEEbRKNS_17__normal_iteratorIT_T0_EESD_ @2875
    _ZN9__gnu_cxxneIPPN6Hinage14PhysicalEntityESt6vectorIS3_SaIS3_EEEEbRKNS_17__normal_iteratorIT_T0_EESD_ @2876
    _ZN9__gnu_cxxneIPPN6Hinage15SpriteAnimationESt6vectorIS3_SaIS3_EEEEbRKNS_17__normal_iteratorIT_T0_EESD_ @2877
    _ZN9__gnu_cxxneIPSsSt6vectorISsSaISsEEEEbRKNS_17__normal_iteratorIT_T0_EESA_ @2878
    _ZN9__gnu_cxxneIPSt6vectorIN6Hinage8Renderer12RenderObjectESaIS4_EES1_IS6_SaIS6_EEEEbRKNS_17__normal_iteratorIT_T0_EESF_ @2879
    _ZN9__gnu_cxxneIPSt6vectorIcSaIcEES1_IS3_SaIS3_EEEEbRKNS_17__normal_iteratorIT_T0_EESC_ @2880
    _ZNK11TiXmlHandle10FirstChildEPKc @2881
    _ZNK11TiXmlHandle10FirstChildEv @2882
    _ZNK11TiXmlHandle12ChildElementEPKci @2883
    _ZNK11TiXmlHandle12ChildElementEi @2884
    _ZNK11TiXmlHandle17FirstChildElementEPKc @2885
    _ZNK11TiXmlHandle17FirstChildElementEv @2886
    _ZNK11TiXmlHandle5ChildEPKci @2887
    _ZNK11TiXmlHandle5ChildEi @2888
    _ZNK11TiXmlString4dataEv @2889
    _ZNK11TiXmlString4findEc @2890
    _ZNK11TiXmlString4findEcj @2891
    _ZNK11TiXmlString5c_strEv @2892
    _ZNK11TiXmlString5emptyEv @2893
    _ZNK11TiXmlString5startEv @2894
    _ZNK11TiXmlString6finishEv @2895
    _ZNK11TiXmlString6lengthEv @2896
    _ZNK11TiXmlString8capacityEv @2897
    _ZNK11TiXmlStringixEj @2898
    _ZNK12TiXmlComment5CloneEv @2899
    _ZNK12TiXmlComment5PrintEP6_iobufi @2900
    _ZNK12TiXmlComment6AcceptEP12TiXmlVisitor @2901
    _ZNK12TiXmlComment6CopyToEPS_ @2902
    _ZNK12TiXmlComment9ToCommentEv @2903
    _ZNK12TiXmlElement17QueryIntAttributeEPKcPi @2904
    _ZNK12TiXmlElement20QueryDoubleAttributeEPKcPd @2905
    _ZNK12TiXmlElement5CloneEv @2906
    _ZNK12TiXmlElement5PrintEP6_iobufi @2907
    _ZNK12TiXmlElement6AcceptEP12TiXmlVisitor @2908
    _ZNK12TiXmlElement6CopyToEPS_ @2909
    _ZNK12TiXmlElement7GetTextEv @2910
    _ZNK12TiXmlElement9AttributeEPKc @2911
    _ZNK12TiXmlElement9AttributeEPKcPd @2912
    _ZNK12TiXmlElement9AttributeEPKcPi @2913
    _ZNK12TiXmlElement9ToElementEv @2914
    _ZNK12TiXmlUnknown5CloneEv @2915
    _ZNK12TiXmlUnknown5PrintEP6_iobufi @2916
    _ZNK12TiXmlUnknown6AcceptEP12TiXmlVisitor @2917
    _ZNK12TiXmlUnknown6CopyToEPS_ @2918
    _ZNK12TiXmlUnknown9ToUnknownEv @2919
    _ZNK13TiXmlDocument10ToDocumentEv @2920
    _ZNK13TiXmlDocument5CloneEv @2921
    _ZNK13TiXmlDocument5ErrorEv @2922
    _ZNK13TiXmlDocument5PrintEP6_iobufi @2923
    _ZNK13TiXmlDocument6AcceptEP12TiXmlVisitor @2924
    _ZNK13TiXmlDocument6CopyToEPS_ @2925
    _ZNK13TiXmlDocument7TabSizeEv @2926
    _ZNK13TiXmlDocument8SaveFileEP6_iobuf @2927
    _ZNK13TiXmlDocument8SaveFileEPKc @2928
    _ZNK13TiXmlDocument8SaveFileEv @2929
    _ZNK14TiXmlAttribute11DoubleValueEv @2930
    _ZNK14TiXmlAttribute13QueryIntValueEPi @2931
    _ZNK14TiXmlAttribute16QueryDoubleValueEPd @2932
    _ZNK14TiXmlAttribute4NameEv @2933
    _ZNK14TiXmlAttribute4NextEv @2934
    _ZNK14TiXmlAttribute5PrintEP6_iobufi @2935
    _ZNK14TiXmlAttribute5PrintEP6_iobufiP11TiXmlString @2936
    _ZNK14TiXmlAttribute5ValueEv @2937
    _ZNK14TiXmlAttribute8IntValueEv @2938
    _ZNK14TiXmlAttribute8PreviousEv @2939
    _ZNK16TiXmlDeclaration13ToDeclarationEv @2940
    _ZNK16TiXmlDeclaration5CloneEv @2941
    _ZNK16TiXmlDeclaration5PrintEP6_iobufi @2942
    _ZNK16TiXmlDeclaration5PrintEP6_iobufiP11TiXmlString @2943
    _ZNK16TiXmlDeclaration6AcceptEP12TiXmlVisitor @2944
    _ZNK16TiXmlDeclaration6CopyToEPS_ @2945
    _ZNK16TiXmlDeclaration8EncodingEv @2946
    _ZNK17TiXmlAttributeSet4FindEPKc @2947
    _ZNK17TiXmlAttributeSet5FirstEv @2948
    _ZNK5boost10filesystem10basic_pathISsNS0_11path_traitsEE11branch_pathEv @2949
    _ZNK5boost10filesystem10basic_pathISsNS0_11path_traitsEE11file_stringEv @2950
    _ZNK5boost10filesystem10basic_pathISsNS0_11path_traitsEE16directory_stringEv @2951
    _ZNK5boost10filesystem10basic_pathISsNS0_11path_traitsEE20external_file_stringEv @2952
    _ZNK5boost10filesystem10basic_pathISsNS0_11path_traitsEE25external_directory_stringEv @2953
    _ZNK5boost10filesystem10basic_pathISsNS0_11path_traitsEE4leafEv @2954
    _ZNK5boost10filesystem10basic_pathISsNS0_11path_traitsEE5emptyEv @2955
    _ZNK5boost10filesystem10basic_pathISsNS0_11path_traitsEE6stringEv @2956
    _ZNK5boost10filesystem11file_status4typeEv @2957
    _ZNK5boost10filesystem21basic_directory_entryINS0_10basic_pathISsNS0_11path_traitsEEEE4pathEv @2958
    _ZNK5boost10filesystem21basic_directory_entryINS0_10basic_pathISsNS0_11path_traitsEEEE6statusEv @2959
    _ZNK5boost10filesystem24basic_directory_iteratorINS0_10basic_pathISsNS0_11path_traitsEEEE11dereferenceEv @2960
    _ZNK5boost10filesystem24basic_directory_iteratorINS0_10basic_pathISsNS0_11path_traitsEEEE5equalERKS5_ @2961
    _ZNK5boost10shared_ptrIN6Hinage8ParticleEEptEv @2962
    _ZNK5boost10shared_ptrINS_10filesystem22basic_filesystem_errorINS1_10basic_pathISsNS1_11path_traitsEEEE5m_impEEptEv @2963
    _ZNK5boost10shared_ptrINS_10filesystem6detail11dir_itr_impINS1_10basic_pathISsNS1_11path_traitsEEEEEE3getEv @2964
    _ZNK5boost10shared_ptrINS_10filesystem6detail11dir_itr_impINS1_10basic_pathISsNS1_11path_traitsEEEEEEptEv @2965
    _ZNK5boost13function_base5emptyEv @2966
    _ZNK5boost15iterator_facadeINS_10filesystem24basic_directory_iteratorINS1_10basic_pathISsNS1_11path_traitsEEEEENS1_21basic_directory_entryIS5_EENS_25single_pass_traversal_tagERS8_iE7derivedEv @2967
    _ZNK5boost15iterator_facadeINS_10filesystem24basic_directory_iteratorINS1_10basic_pathISsNS1_11path_traitsEEEEENS1_21basic_directory_entryIS5_EENS_25single_pass_traversal_tagERS8_iEdeEv @2968
    _ZNK5boost15iterator_facadeINS_10filesystem24basic_directory_iteratorINS1_10basic_pathISsNS1_11path_traitsEEEEENS1_21basic_directory_entryIS5_EENS_25single_pass_traversal_tagERS8_iEptEv @2969
    _ZNK5boost3_bi5list2IRP9lua_StateRiEixEPFNS_3argILi1EEEvE @2970
    _ZNK5boost3_bi5list2IRP9lua_StateRiEixEPFNS_3argILi2EEEvE @2971
    _ZNK5boost3_bi5list2IRP9lua_StateRiEixIMN6Hinage14PhysicalEntityEbEERT_RNS0_5valueISB_EE @2972
    _ZNK6Hinage14PhysicalEntity11getPositionEv @2973
    _ZNK6Hinage14PhysicalEntity11getVelocityEv @2974
    _ZNK6Hinage14PhysicalEntity18getDestructionFlagEv @2975
    _ZNK6Hinage14PhysicalEntity9getSpriteEv @2976
    _ZNK6Hinage3Map11getTileSizeEv @2977
    _ZNK6Hinage6Sprite15getCollisionBoxEv @2978
    _ZNK6Hinage6Sprite8getWidthEv @2979
    _ZNK6Hinage6Sprite9getHeightEv @2980
    _ZNK6Hinage7Tilemap10getTilesetEv @2981
    _ZNK6Hinage7Tilemap11getTileSizeEv @2982
    _ZNK6Hinage7Tilemap14getTilesInRectEffff @2983
    _ZNK6Hinage7Tilemap18getTileCoordinatesEffi @2984
    _ZNK6Hinage7Tilemap7getTileEjjj @2985
    _ZNK6Hinage7Tileset12getTileCountEv @2986
    _ZNK6Hinage7Tileset7getTileEi @2987
    _ZNK6Hinage7Vector2IdE4getXEv @2988
    _ZNK6Hinage7Vector2IdE4getYEv @2989
    _ZNK6Hinage7Vector2IdEdvEd @2990
    _ZNK6Hinage7Vector2IdEmiERKS1_ @2991
    _ZNK6Hinage7Vector2IdEmlEd @2992
    _ZNK6Hinage7Vector2IdEplERKS1_ @2993
    _ZNK6Hinage7Vector2IiE4getXEv @2994
    _ZNK6Hinage7Vector2IiE4getYEv @2995
    _ZNK7luabind3adl6object4pushEP9lua_State @2996
    _ZNK7luabind3adl6objectixIA10_cEENS0_11index_proxyIS1_EERKT_ @2997
    _ZNK7luabind3adl6objectixIA4_cEENS0_11index_proxyIS1_EERKT_ @2998
    _ZNK7luabind3adl6objectixIA5_cEENS0_11index_proxyIS1_EERKT_ @2999
    _ZNK7luabind3adl6objectixIA6_cEENS0_11index_proxyIS1_EERKT_ @3000
    _ZNK7luabind3adl6objectixIA7_cEENS0_11index_proxyIS1_EERKT_ @3001
    _ZNK7luabind6detail10object_rep3ptrEv @3002
    _ZNK7luabind6detail10object_rep5flagsEv @3003
    _ZNK7luabind6detail14mem_fn_matcherIM12AudioManagerFvSsES2_NS0_9null_typeEEclEP9lua_State @3004
    _ZNK7luabind6detail14mem_fn_matcherIM12AudioManagerFvSsbES2_NS0_9null_typeEEclEP9lua_State @3005
    _ZNK7luabind6detail14mem_fn_matcherIM12AudioManagerFvvES2_NS0_9null_typeEEclEP9lua_State @3006
    _ZNK7luabind6detail14mem_fn_matcherIMN6Hinage12InputManagerEFbiES3_NS0_9null_typeEEclEP9lua_State @3007
    _ZNK7luabind6detail14mem_fn_matcherIMN6Hinage14PhysicalEntityEFSsvES3_NS0_9null_typeEEclEP9lua_State @3008
    _ZNK7luabind6detail14mem_fn_matcherIMN6Hinage14PhysicalEntityEFbSsbdES3_NS0_9null_typeEEclEP9lua_State @3009
    _ZNK7luabind6detail14mem_fn_matcherIMN6Hinage14PhysicalEntityEFdvES3_NS0_9null_typeEEclEP9lua_State @3010
    _ZNK7luabind6detail14mem_fn_matcherIMN6Hinage14PhysicalEntityEFivES3_NS0_9null_typeEEclEP9lua_State @3011
    _ZNK7luabind6detail14mem_fn_matcherIMN6Hinage14PhysicalEntityEFvbES3_NS0_9null_typeEEclEP9lua_State @3012
    _ZNK7luabind6detail14mem_fn_matcherIMN6Hinage14PhysicalEntityEFvdES3_NS0_9null_typeEEclEP9lua_State @3013
    _ZNK7luabind6detail14mem_fn_matcherIMN6Hinage14PhysicalEntityEFvddES3_NS0_9null_typeEEclEP9lua_State @3014
    _ZNK7luabind6detail14mem_fn_matcherIMN6Hinage14PhysicalEntityEFvdddES3_NS0_9null_typeEEclEP9lua_State @3015
    _ZNK7luabind6detail14mem_fn_matcherIMN6Hinage3MapEFRNS2_14PhysicalEntityESsddES3_NS0_9null_typeEEclEP9lua_State @3016
    _ZNK7luabind6detail14mem_fn_matcherIMN6Hinage3MapEFRNS2_14PhysicalEntityEiES3_NS0_9null_typeEEclEP9lua_State @3017
    _ZNK7luabind6detail14mem_fn_matcherIMN6Hinage3MapEFivES3_NS0_9null_typeEEclEP9lua_State @3018
    _ZNK7luabind6detail14mem_fn_matcherIMN6Hinage3MapEFvSsES3_NS0_9null_typeEEclEP9lua_State @3019
    _ZNK7luabind6detail14mem_fn_matcherIMN6Hinage3MapEFvSsbES3_NS0_9null_typeEEclEP9lua_State @3020
    _ZNK7luabind6detail14mem_fn_matcherIMN6Hinage3MapEFviES3_NS0_9null_typeEEclEP9lua_State @3021
    _ZNK7luabind6detail14mem_fn_matcherIMN6Hinage3MapEFvvES3_NS0_9null_typeEEclEP9lua_State @3022
    _ZNK7luabind6detail14mem_fn_matcherIMN6Hinage3MapEKFivES3_NS0_9null_typeEEclEP9lua_State @3023
    _ZNK7luabind6detail14mem_fn_matcherIMN6Hinage4GameEFRNS2_4FontESsES3_NS0_9null_typeEEclEP9lua_State @3024
    _ZNK7luabind6detail14mem_fn_matcherIMN6Hinage4GameEFdvES3_NS0_9null_typeEEclEP9lua_State @3025
    _ZNK7luabind6detail14mem_fn_matcherIMN6Hinage4GameEFvRNS2_4FontESsddddES3_NS0_9null_typeEEclEP9lua_State @3026
    _ZNK7luabind6detail14mem_fn_matcherIMN6Hinage4GameEFvdES3_NS0_9null_typeEEclEP9lua_State @3027
    _ZNK7luabind6detail14mem_fn_matcherIMN6Hinage4GameEFvvES3_NS0_9null_typeEEclEP9lua_State @3028
    _ZNK7luabind6detail14mem_fn_matcherIMN6Hinage5TimerEFbdES3_NS0_9null_typeEEclEP9lua_State @3029
    _ZNK7luabind6detail14mem_fn_matcherIMN6Hinage5TimerEFdvES3_NS0_9null_typeEEclEP9lua_State @3030
    _ZNK7luabind6detail14mem_fn_matcherIMN6Hinage5TimerEFvvES3_NS0_9null_typeEEclEP9lua_State @3031
    _ZNK7luabind6detail14mem_fn_matcherIMN6Hinage7DisplayEFdvES3_NS0_9null_typeEEclEP9lua_State @3032
    _ZNK7luabind6detail14mem_fn_matcherIMN6Hinage7DisplayEFfvES3_NS0_9null_typeEEclEP9lua_State @3033
    _ZNK7luabind6detail14mem_fn_matcherIMN6Hinage7DisplayEFvdES3_NS0_9null_typeEEclEP9lua_State @3034
    _ZNK7luabind6detail14mem_fn_matcherIMN6Hinage7DisplayEFvffES3_NS0_9null_typeEEclEP9lua_State @3035
    _ZNK7luabind6detail14mem_fn_matcherIMN6Hinage7Vector2IdEEFvdES4_NS0_9null_typeEEclEP9lua_State @3036
    _ZNK7luabind6detail14mem_fn_matcherIMN6Hinage7Vector2IdEEFvddES4_NS0_9null_typeEEclEP9lua_State @3037
    _ZNK7luabind6detail14mem_fn_matcherIMN6Hinage7Vector2IdEEKFdvES4_NS0_9null_typeEEclEP9lua_State @3038
    _ZNK7luabind6detail15mem_fn_callbackIM12AudioManagerFvSsES2_NS0_9null_typeEEclEP9lua_State @3039
    _ZNK7luabind6detail15mem_fn_callbackIM12AudioManagerFvSsbES2_NS0_9null_typeEEclEP9lua_State @3040
    _ZNK7luabind6detail15mem_fn_callbackIM12AudioManagerFvvES2_NS0_9null_typeEEclEP9lua_State @3041
    _ZNK7luabind6detail15mem_fn_callbackIMN6Hinage12InputManagerEFbiES3_NS0_9null_typeEEclEP9lua_State @3042
    _ZNK7luabind6detail15mem_fn_callbackIMN6Hinage14PhysicalEntityEFSsvES3_NS0_9null_typeEEclEP9lua_State @3043
    _ZNK7luabind6detail15mem_fn_callbackIMN6Hinage14PhysicalEntityEFbSsbdES3_NS0_9null_typeEEclEP9lua_State @3044
    _ZNK7luabind6detail15mem_fn_callbackIMN6Hinage14PhysicalEntityEFdvES3_NS0_9null_typeEEclEP9lua_State @3045
    _ZNK7luabind6detail15mem_fn_callbackIMN6Hinage14PhysicalEntityEFivES3_NS0_9null_typeEEclEP9lua_State @3046
    _ZNK7luabind6detail15mem_fn_callbackIMN6Hinage14PhysicalEntityEFvbES3_NS0_9null_typeEEclEP9lua_State @3047
    _ZNK7luabind6detail15mem_fn_callbackIMN6Hinage14PhysicalEntityEFvdES3_NS0_9null_typeEEclEP9lua_State @3048
    _ZNK7luabind6detail15mem_fn_callbackIMN6Hinage14PhysicalEntityEFvddES3_NS0_9null_typeEEclEP9lua_State @3049
    _ZNK7luabind6detail15mem_fn_callbackIMN6Hinage14PhysicalEntityEFvdddES3_NS0_9null_typeEEclEP9lua_State @3050
    _ZNK7luabind6detail15mem_fn_callbackIMN6Hinage3MapEFRNS2_14PhysicalEntityESsddES3_NS0_9null_typeEEclEP9lua_State @3051
    _ZNK7luabind6detail15mem_fn_callbackIMN6Hinage3MapEFRNS2_14PhysicalEntityEiES3_NS0_9null_typeEEclEP9lua_State @3052
    _ZNK7luabind6detail15mem_fn_callbackIMN6Hinage3MapEFivES3_NS0_9null_typeEEclEP9lua_State @3053
    _ZNK7luabind6detail15mem_fn_callbackIMN6Hinage3MapEFvSsES3_NS0_9null_typeEEclEP9lua_State @3054
    _ZNK7luabind6detail15mem_fn_callbackIMN6Hinage3MapEFvSsbES3_NS0_9null_typeEEclEP9lua_State @3055
    _ZNK7luabind6detail15mem_fn_callbackIMN6Hinage3MapEFviES3_NS0_9null_typeEEclEP9lua_State @3056
    _ZNK7luabind6detail15mem_fn_callbackIMN6Hinage3MapEFvvES3_NS0_9null_typeEEclEP9lua_State @3057
    _ZNK7luabind6detail15mem_fn_callbackIMN6Hinage3MapEKFivES3_NS0_9null_typeEEclEP9lua_State @3058
    _ZNK7luabind6detail15mem_fn_callbackIMN6Hinage4GameEFRNS2_4FontESsES3_NS0_9null_typeEEclEP9lua_State @3059
    _ZNK7luabind6detail15mem_fn_callbackIMN6Hinage4GameEFdvES3_NS0_9null_typeEEclEP9lua_State @3060
    _ZNK7luabind6detail15mem_fn_callbackIMN6Hinage4GameEFvRNS2_4FontESsddddES3_NS0_9null_typeEEclEP9lua_State @3061
    _ZNK7luabind6detail15mem_fn_callbackIMN6Hinage4GameEFvdES3_NS0_9null_typeEEclEP9lua_State @3062
    _ZNK7luabind6detail15mem_fn_callbackIMN6Hinage4GameEFvvES3_NS0_9null_typeEEclEP9lua_State @3063
    _ZNK7luabind6detail15mem_fn_callbackIMN6Hinage5TimerEFbdES3_NS0_9null_typeEEclEP9lua_State @3064
    _ZNK7luabind6detail15mem_fn_callbackIMN6Hinage5TimerEFdvES3_NS0_9null_typeEEclEP9lua_State @3065
    _ZNK7luabind6detail15mem_fn_callbackIMN6Hinage5TimerEFvvES3_NS0_9null_typeEEclEP9lua_State @3066
    _ZNK7luabind6detail15mem_fn_callbackIMN6Hinage7DisplayEFdvES3_NS0_9null_typeEEclEP9lua_State @3067
    _ZNK7luabind6detail15mem_fn_callbackIMN6Hinage7DisplayEFfvES3_NS0_9null_typeEEclEP9lua_State @3068
    _ZNK7luabind6detail15mem_fn_callbackIMN6Hinage7DisplayEFvdES3_NS0_9null_typeEEclEP9lua_State @3069
    _ZNK7luabind6detail15mem_fn_callbackIMN6Hinage7DisplayEFvffES3_NS0_9null_typeEEclEP9lua_State @3070
    _ZNK7luabind6detail15mem_fn_callbackIMN6Hinage7Vector2IdEEFvdES4_NS0_9null_typeEEclEP9lua_State @3071
    _ZNK7luabind6detail15mem_fn_callbackIMN6Hinage7Vector2IdEEFvddES4_NS0_9null_typeEEclEP9lua_State @3072
    _ZNK7luabind6detail15mem_fn_callbackIMN6Hinage7Vector2IdEEKFdvES4_NS0_9null_typeEEclEP9lua_State @3073
    _ZNK7luabind6detail9class_rep10has_holderEv @3074
    _ZNK7luabind6detail9class_rep11holder_typeEv @3075
    _ZNK7luabind6detail9class_rep13metatable_refEv @3076
    _ZNK7luabind6detail9class_rep17const_holder_typeEv @3077
    _ZNK7luabind6detail9class_rep9extractorEv @3078
    _ZNK7luabind6handle11interpreterEv @3079
    _ZNK7luabind6handle4pushEP9lua_State @3080
    _ZNK9TiXmlNode10FirstChildEPKc @3081
    _ZNK9TiXmlNode10FirstChildEv @3082
    _ZNK9TiXmlNode10ToDocumentEv @3083
    _ZNK9TiXmlNode11GetDocumentEv @3084
    _ZNK9TiXmlNode11NextSiblingEPKc @3085
    _ZNK9TiXmlNode11NextSiblingEv @3086
    _ZNK9TiXmlNode13ToDeclarationEv @3087
    _ZNK9TiXmlNode15IterateChildrenEPKS_ @3088
    _ZNK9TiXmlNode15IterateChildrenEPKcPKS_ @3089
    _ZNK9TiXmlNode15PreviousSiblingEPKc @3090
    _ZNK9TiXmlNode17FirstChildElementEPKc @3091
    _ZNK9TiXmlNode17FirstChildElementEv @3092
    _ZNK9TiXmlNode18NextSiblingElementEPKc @3093
    _ZNK9TiXmlNode18NextSiblingElementEv @3094
    _ZNK9TiXmlNode4TypeEv @3095
    _ZNK9TiXmlNode5ValueEv @3096
    _ZNK9TiXmlNode6CopyToEPS_ @3097
    _ZNK9TiXmlNode6ToTextEv @3098
    _ZNK9TiXmlNode9LastChildEPKc @3099
    _ZNK9TiXmlNode9LastChildEv @3100
    _ZNK9TiXmlNode9ToCommentEv @3101
    _ZNK9TiXmlNode9ToElementEv @3102
    _ZNK9TiXmlNode9ToUnknownEv @3103
    _ZNK9TiXmlNode9ValueTStrEv @3104
    _ZNK9TiXmlText5BlankEv @3105
    _ZNK9TiXmlText5CDATAEv @3106
    _ZNK9TiXmlText5CloneEv @3107
    _ZNK9TiXmlText5PrintEP6_iobufi @3108
    _ZNK9TiXmlText6AcceptEP12TiXmlVisitor @3109
    _ZNK9TiXmlText6CopyToEPS_ @3110
    _ZNK9TiXmlText6ToTextEv @3111
    _ZNK9__gnu_cxx17__normal_iteratorIPKN6Hinage14PhysicalEntity17TileCollisionDataESt6vectorIS3_SaIS3_EEE4baseEv @3112
    _ZNK9__gnu_cxx17__normal_iteratorIPKN6Hinage8Renderer12RenderObjectESt6vectorIS3_SaIS3_EEE4baseEv @3113
    _ZNK9__gnu_cxx17__normal_iteratorIPKN6Hinage8Renderer12RenderObjectESt6vectorIS3_SaIS3_EEEdeEv @3114
    _ZNK9__gnu_cxx17__normal_iteratorIPKN6Hinage8Renderer12RenderObjectESt6vectorIS3_SaIS3_EEEplERKi @3115
    _ZNK9__gnu_cxx17__normal_iteratorIPKN6Hinage8Renderer6VertexESt6vectorIS3_SaIS3_EEE4baseEv @3116
    _ZNK9__gnu_cxx17__normal_iteratorIPKN6Hinage8Renderer6VertexESt6vectorIS3_SaIS3_EEEdeEv @3117
    _ZNK9__gnu_cxx17__normal_iteratorIPKN6Hinage8Renderer6VertexESt6vectorIS3_SaIS3_EEEplERKi @3118
    _ZNK9__gnu_cxx17__normal_iteratorIPKPKSt9type_infoSt6vectorIS3_SaIS3_EEE4baseEv @3119
    _ZNK9__gnu_cxx17__normal_iteratorIPKPN6Hinage14PhysicalEntityESt6vectorIS3_SaIS3_EEE4baseEv @3120
    _ZNK9__gnu_cxx17__normal_iteratorIPKPN6Hinage14PhysicalEntityESt6vectorIS3_SaIS3_EEEdeEv @3121
    _ZNK9__gnu_cxx17__normal_iteratorIPKPN6Hinage14PhysicalEntityESt6vectorIS3_SaIS3_EEEplERKi @3122
    _ZNK9__gnu_cxx17__normal_iteratorIPKPN6Hinage15ResourceManagerINS1_4FontEE8ResourceESt6vectorIS6_SaIS6_EEE4baseEv @3123
    _ZNK9__gnu_cxx17__normal_iteratorIPKPN6Hinage15ResourceManagerINS1_6SpriteEE8ResourceESt6vectorIS6_SaIS6_EEE4baseEv @3124
    _ZNK9__gnu_cxx17__normal_iteratorIPKPN6Hinage15ResourceManagerINS1_7TextureEE8ResourceESt6vectorIS6_SaIS6_EEE4baseEv @3125
    _ZNK9__gnu_cxx17__normal_iteratorIPKPN6Hinage15ResourceManagerINS1_7TilesetEE8ResourceESt6vectorIS6_SaIS6_EEE4baseEv @3126
    _ZNK9__gnu_cxx17__normal_iteratorIPKPN6Hinage15SpriteAnimation5FrameESt6vectorIS4_SaIS4_EEE4baseEv @3127
    _ZNK9__gnu_cxx17__normal_iteratorIPKPN6Hinage15SpriteAnimation5FrameESt6vectorIS4_SaIS4_EEEplERKi @3128
    _ZNK9__gnu_cxx17__normal_iteratorIPKPN6Hinage15SpriteAnimationESt6vectorIS3_SaIS3_EEE4baseEv @3129
    _ZNK9__gnu_cxx17__normal_iteratorIPKPN6Hinage15SpriteAnimationESt6vectorIS3_SaIS3_EEEdeEv @3130
    _ZNK9__gnu_cxx17__normal_iteratorIPKPN6Hinage15SpriteAnimationESt6vectorIS3_SaIS3_EEEplERKi @3131
    _ZNK9__gnu_cxx17__normal_iteratorIPKPN6Hinage6UIItemESt6vectorIS3_SaIS3_EEE4baseEv @3132
    _ZNK9__gnu_cxx17__normal_iteratorIPKPN6Hinage9GameStateESt6vectorIS3_SaIS3_EEE4baseEv @3133
    _ZNK9__gnu_cxx17__normal_iteratorIPKSsSt6vectorISsSaISsEEE4baseEv @3134
    _ZNK9__gnu_cxx17__normal_iteratorIPKSt6vectorIN6Hinage8Renderer12RenderObjectESaIS4_EES1_IS6_SaIS6_EEE4baseEv @3135
    _ZNK9__gnu_cxx17__normal_iteratorIPKSt6vectorIcSaIcEES1_IS3_SaIS3_EEE4baseEv @3136
    _ZNK9__gnu_cxx17__normal_iteratorIPKcSt6vectorIcSaIcEEE4baseEv @3137
    _ZNK9__gnu_cxx17__normal_iteratorIPKcSt6vectorIcSaIcEEEplERKi @3138
    _ZNK9__gnu_cxx17__normal_iteratorIPN6Hinage14PhysicalEntity17TileCollisionDataESt6vectorIS3_SaIS3_EEE4baseEv @3139
    _ZNK9__gnu_cxx17__normal_iteratorIPN6Hinage14PhysicalEntity17TileCollisionDataESt6vectorIS3_SaIS3_EEEdeEv @3140
    _ZNK9__gnu_cxx17__normal_iteratorIPN6Hinage14PhysicalEntity17TileCollisionDataESt6vectorIS3_SaIS3_EEEplERKi @3141
    _ZNK9__gnu_cxx17__normal_iteratorIPN6Hinage8Renderer12RenderObjectESt6vectorIS3_SaIS3_EEE4baseEv @3142
    _ZNK9__gnu_cxx17__normal_iteratorIPN6Hinage8Renderer12RenderObjectESt6vectorIS3_SaIS3_EEEdeEv @3143
    _ZNK9__gnu_cxx17__normal_iteratorIPN6Hinage8Renderer12RenderObjectESt6vectorIS3_SaIS3_EEEplERKi @3144
    _ZNK9__gnu_cxx17__normal_iteratorIPN6Hinage8Renderer6VertexESt6vectorIS3_SaIS3_EEE4baseEv @3145
    _ZNK9__gnu_cxx17__normal_iteratorIPN6Hinage8Renderer6VertexESt6vectorIS3_SaIS3_EEEdeEv @3146
    _ZNK9__gnu_cxx17__normal_iteratorIPN6Hinage8Renderer6VertexESt6vectorIS3_SaIS3_EEEplERKi @3147
    _ZNK9__gnu_cxx17__normal_iteratorIPPKSt9type_infoSt6vectorIS3_SaIS3_EEE4baseEv @3148
    _ZNK9__gnu_cxx17__normal_iteratorIPPKSt9type_infoSt6vectorIS3_SaIS3_EEEdeEv @3149
    _ZNK9__gnu_cxx17__normal_iteratorIPPN6Hinage14PhysicalEntityESt6vectorIS3_SaIS3_EEE4baseEv @3150
    _ZNK9__gnu_cxx17__normal_iteratorIPPN6Hinage14PhysicalEntityESt6vectorIS3_SaIS3_EEEdeEv @3151
    _ZNK9__gnu_cxx17__normal_iteratorIPPN6Hinage14PhysicalEntityESt6vectorIS3_SaIS3_EEEmiERKi @3152
    _ZNK9__gnu_cxx17__normal_iteratorIPPN6Hinage14PhysicalEntityESt6vectorIS3_SaIS3_EEEplERKi @3153
    _ZNK9__gnu_cxx17__normal_iteratorIPPN6Hinage15ResourceManagerINS1_4FontEE8ResourceESt6vectorIS6_SaIS6_EEE4baseEv @3154
    _ZNK9__gnu_cxx17__normal_iteratorIPPN6Hinage15ResourceManagerINS1_4FontEE8ResourceESt6vectorIS6_SaIS6_EEEdeEv @3155
    _ZNK9__gnu_cxx17__normal_iteratorIPPN6Hinage15ResourceManagerINS1_4FontEE8ResourceESt6vectorIS6_SaIS6_EEEplERKi @3156
    _ZNK9__gnu_cxx17__normal_iteratorIPPN6Hinage15ResourceManagerINS1_6SpriteEE8ResourceESt6vectorIS6_SaIS6_EEE4baseEv @3157
    _ZNK9__gnu_cxx17__normal_iteratorIPPN6Hinage15ResourceManagerINS1_6SpriteEE8ResourceESt6vectorIS6_SaIS6_EEEdeEv @3158
    _ZNK9__gnu_cxx17__normal_iteratorIPPN6Hinage15ResourceManagerINS1_6SpriteEE8ResourceESt6vectorIS6_SaIS6_EEEplERKi @3159
    _ZNK9__gnu_cxx17__normal_iteratorIPPN6Hinage15ResourceManagerINS1_7TextureEE8ResourceESt6vectorIS6_SaIS6_EEE4baseEv @3160
    _ZNK9__gnu_cxx17__normal_iteratorIPPN6Hinage15ResourceManagerINS1_7TextureEE8ResourceESt6vectorIS6_SaIS6_EEEdeEv @3161
    _ZNK9__gnu_cxx17__normal_iteratorIPPN6Hinage15ResourceManagerINS1_7TextureEE8ResourceESt6vectorIS6_SaIS6_EEEplERKi @3162
    _ZNK9__gnu_cxx17__normal_iteratorIPPN6Hinage15ResourceManagerINS1_7TilesetEE8ResourceESt6vectorIS6_SaIS6_EEE4baseEv @3163
    _ZNK9__gnu_cxx17__normal_iteratorIPPN6Hinage15ResourceManagerINS1_7TilesetEE8ResourceESt6vectorIS6_SaIS6_EEEdeEv @3164
    _ZNK9__gnu_cxx17__normal_iteratorIPPN6Hinage15ResourceManagerINS1_7TilesetEE8ResourceESt6vectorIS6_SaIS6_EEEplERKi @3165
    _ZNK9__gnu_cxx17__normal_iteratorIPPN6Hinage15SpriteAnimation5FrameESt6vectorIS4_SaIS4_EEE4baseEv @3166
    _ZNK9__gnu_cxx17__normal_iteratorIPPN6Hinage15SpriteAnimation5FrameESt6vectorIS4_SaIS4_EEEdeEv @3167
    _ZNK9__gnu_cxx17__normal_iteratorIPPN6Hinage15SpriteAnimation5FrameESt6vectorIS4_SaIS4_EEEplERKi @3168
    _ZNK9__gnu_cxx17__normal_iteratorIPPN6Hinage15SpriteAnimationESt6vectorIS3_SaIS3_EEE4baseEv @3169
    _ZNK9__gnu_cxx17__normal_iteratorIPPN6Hinage15SpriteAnimationESt6vectorIS3_SaIS3_EEEdeEv @3170
    _ZNK9__gnu_cxx17__normal_iteratorIPPN6Hinage15SpriteAnimationESt6vectorIS3_SaIS3_EEEplERKi @3171
    _ZNK9__gnu_cxx17__normal_iteratorIPPN6Hinage6UIItemESt6vectorIS3_SaIS3_EEEdeEv @3172
    _ZNK9__gnu_cxx17__normal_iteratorIPPN6Hinage6UIItemESt6vectorIS3_SaIS3_EEEplERKi @3173
    _ZNK9__gnu_cxx17__normal_iteratorIPPN6Hinage9GameStateESt6vectorIS3_SaIS3_EEE4baseEv @3174
    _ZNK9__gnu_cxx17__normal_iteratorIPPN6Hinage9GameStateESt6vectorIS3_SaIS3_EEEdeEv @3175
    _ZNK9__gnu_cxx17__normal_iteratorIPPN6Hinage9GameStateESt6vectorIS3_SaIS3_EEEmiERKi @3176
    _ZNK9__gnu_cxx17__normal_iteratorIPPN6Hinage9GameStateESt6vectorIS3_SaIS3_EEEplERKi @3177
    _ZNK9__gnu_cxx17__normal_iteratorIPSsSt6vectorISsSaISsEEE4baseEv @3178
    _ZNK9__gnu_cxx17__normal_iteratorIPSsSt6vectorISsSaISsEEEdeEv @3179
    _ZNK9__gnu_cxx17__normal_iteratorIPSsSt6vectorISsSaISsEEEplERKi @3180
    _ZNK9__gnu_cxx17__normal_iteratorIPSt6vectorIN6Hinage8Renderer12RenderObjectESaIS4_EES1_IS6_SaIS6_EEE4baseEv @3181
    _ZNK9__gnu_cxx17__normal_iteratorIPSt6vectorIN6Hinage8Renderer12RenderObjectESaIS4_EES1_IS6_SaIS6_EEEdeEv @3182
    _ZNK9__gnu_cxx17__normal_iteratorIPSt6vectorIN6Hinage8Renderer12RenderObjectESaIS4_EES1_IS6_SaIS6_EEEplERKi @3183
    _ZNK9__gnu_cxx17__normal_iteratorIPSt6vectorIcSaIcEES1_IS3_SaIS3_EEE4baseEv @3184
    _ZNK9__gnu_cxx17__normal_iteratorIPSt6vectorIcSaIcEES1_IS3_SaIS3_EEEdeEv @3185
    _ZNK9__gnu_cxx17__normal_iteratorIPSt6vectorIcSaIcEES1_IS3_SaIS3_EEEplERKi @3186
    _ZNK9__gnu_cxx17__normal_iteratorIPcSsEdeEv @3187
    _ZNK9__gnu_cxx17__normal_iteratorIPcSsEmiERKi @3188
    _ZNK9__gnu_cxx17__normal_iteratorIPcSt6vectorIcSaIcEEE4baseEv @3189
    _ZNK9__gnu_cxx17__normal_iteratorIPcSt6vectorIcSaIcEEEdeEv @3190
    _ZNK9__gnu_cxx17__normal_iteratorIPcSt6vectorIcSaIcEEEplERKi @3191
    _ZNKSt10_Select1stISt4pairIKSsP10_Mix_MusicEEclERKS4_ @3192
    _ZNKSt10_Select1stISt4pairIKSsP9Mix_ChunkEEclERKS4_ @3193
    _ZNKSt10_Select1stISt4pairIKSsSsEEclERKS2_ @3194
    _ZNKSt12_Vector_baseIN6Hinage8Renderer12RenderObjectESaIS2_EE13get_allocatorEv @3195
    _ZNKSt12_Vector_baseIN6Hinage8Renderer6VertexESaIS2_EE13get_allocatorEv @3196
    _ZNKSt12_Vector_baseIPN6Hinage14PhysicalEntityESaIS2_EE13get_allocatorEv @3197
    _ZNKSt12_Vector_baseIPN6Hinage15SpriteAnimationESaIS2_EE13get_allocatorEv @3198
    _ZNKSt12_Vector_baseIcSaIcEE13get_allocatorEv @3199
    _ZNKSt14_List_iteratorIN5boost10shared_ptrIN6Hinage8ParticleEEEEdeEv @3200
    _ZNKSt14_List_iteratorIN5boost10shared_ptrIN6Hinage8ParticleEEEEneERKS5_ @3201
    _ZNKSt17_Rb_tree_iteratorISt4pairIKSsP10_Mix_MusicEEdeEv @3202
    _ZNKSt17_Rb_tree_iteratorISt4pairIKSsP10_Mix_MusicEEeqERKS5_ @3203
    _ZNKSt17_Rb_tree_iteratorISt4pairIKSsP9Mix_ChunkEEdeEv @3204
    _ZNKSt17_Rb_tree_iteratorISt4pairIKSsP9Mix_ChunkEEeqERKS5_ @3205
    _ZNKSt17_Rb_tree_iteratorISt4pairIKSsSsEEdeEv @3206
    _ZNKSt17_Rb_tree_iteratorISt4pairIKSsSsEEeqERKS3_ @3207
    _ZNKSt17_Rb_tree_iteratorISt4pairIKSsSsEEneERKS3_ @3208
    _ZNKSt17_Rb_tree_iteratorISt4pairIKSsSsEEptEv @3209
    _ZNKSt3mapISsP10_Mix_MusicSt4lessISsESaISt4pairIKSsS1_EEE8key_compEv @3210
    _ZNKSt3mapISsP9Mix_ChunkSt4lessISsESaISt4pairIKSsS1_EEE8key_compEv @3211
    _ZNKSt3mapISsSsSt4lessISsESaISt4pairIKSsSsEEE8key_compEv @3212
    _ZNKSt4lessISsEclERKSsS2_ @3213
    _ZNKSt6vectorIN6Hinage14PhysicalEntity17TileCollisionDataESaIS2_EE3endEv @3214
    _ZNKSt6vectorIN6Hinage14PhysicalEntity17TileCollisionDataESaIS2_EE4sizeEv @3215
    _ZNKSt6vectorIN6Hinage14PhysicalEntity17TileCollisionDataESaIS2_EE5beginEv @3216
    _ZNKSt6vectorIN6Hinage8Renderer12RenderObjectESaIS2_EE3endEv @3217
    _ZNKSt6vectorIN6Hinage8Renderer12RenderObjectESaIS2_EE4sizeEv @3218
    _ZNKSt6vectorIN6Hinage8Renderer12RenderObjectESaIS2_EE5beginEv @3219
    _ZNKSt6vectorIN6Hinage8Renderer12RenderObjectESaIS2_EE8capacityEv @3220
    _ZNKSt6vectorIN6Hinage8Renderer6VertexESaIS2_EE3endEv @3221
    _ZNKSt6vectorIN6Hinage8Renderer6VertexESaIS2_EE4sizeEv @3222
    _ZNKSt6vectorIN6Hinage8Renderer6VertexESaIS2_EE5beginEv @3223
    _ZNKSt6vectorIN6Hinage8Renderer6VertexESaIS2_EE8capacityEv @3224
    _ZNKSt6vectorIPKSt9type_infoSaIS2_EE3endEv @3225
    _ZNKSt6vectorIPKSt9type_infoSaIS2_EE4sizeEv @3226
    _ZNKSt6vectorIPKSt9type_infoSaIS2_EE5beginEv @3227
    _ZNKSt6vectorIPKSt9type_infoSaIS2_EE8capacityEv @3228
    _ZNKSt6vectorIPKSt9type_infoSaIS2_EE8max_sizeEv @3229
    _ZNKSt6vectorIPN6Hinage14PhysicalEntityESaIS2_EE3endEv @3230
    _ZNKSt6vectorIPN6Hinage14PhysicalEntityESaIS2_EE4sizeEv @3231
    _ZNKSt6vectorIPN6Hinage14PhysicalEntityESaIS2_EE5beginEv @3232
    _ZNKSt6vectorIPN6Hinage14PhysicalEntityESaIS2_EE8capacityEv @3233
    _ZNKSt6vectorIPN6Hinage14PhysicalEntityESaIS2_EEixEj @3234
    _ZNKSt6vectorIPN6Hinage15ResourceManagerINS0_4FontEE8ResourceESaIS5_EE3endEv @3235
    _ZNKSt6vectorIPN6Hinage15ResourceManagerINS0_4FontEE8ResourceESaIS5_EE4sizeEv @3236
    _ZNKSt6vectorIPN6Hinage15ResourceManagerINS0_4FontEE8ResourceESaIS5_EE5beginEv @3237
    _ZNKSt6vectorIPN6Hinage15ResourceManagerINS0_6SpriteEE8ResourceESaIS5_EE3endEv @3238
    _ZNKSt6vectorIPN6Hinage15ResourceManagerINS0_6SpriteEE8ResourceESaIS5_EE4sizeEv @3239
    _ZNKSt6vectorIPN6Hinage15ResourceManagerINS0_6SpriteEE8ResourceESaIS5_EE5beginEv @3240
    _ZNKSt6vectorIPN6Hinage15ResourceManagerINS0_7TextureEE8ResourceESaIS5_EE3endEv @3241
    _ZNKSt6vectorIPN6Hinage15ResourceManagerINS0_7TextureEE8ResourceESaIS5_EE4sizeEv @3242
    _ZNKSt6vectorIPN6Hinage15ResourceManagerINS0_7TextureEE8ResourceESaIS5_EE5beginEv @3243
    _ZNKSt6vectorIPN6Hinage15ResourceManagerINS0_7TilesetEE8ResourceESaIS5_EE3endEv @3244
    _ZNKSt6vectorIPN6Hinage15ResourceManagerINS0_7TilesetEE8ResourceESaIS5_EE4sizeEv @3245
    _ZNKSt6vectorIPN6Hinage15ResourceManagerINS0_7TilesetEE8ResourceESaIS5_EE5beginEv @3246
    _ZNKSt6vectorIPN6Hinage15SpriteAnimation5FrameESaIS3_EE3endEv @3247
    _ZNKSt6vectorIPN6Hinage15SpriteAnimation5FrameESaIS3_EE4sizeEv @3248
    _ZNKSt6vectorIPN6Hinage15SpriteAnimation5FrameESaIS3_EE5beginEv @3249
    _ZNKSt6vectorIPN6Hinage15SpriteAnimation5FrameESaIS3_EE8capacityEv @3250
    _ZNKSt6vectorIPN6Hinage15SpriteAnimationESaIS2_EE3endEv @3251
    _ZNKSt6vectorIPN6Hinage15SpriteAnimationESaIS2_EE4sizeEv @3252
    _ZNKSt6vectorIPN6Hinage15SpriteAnimationESaIS2_EE5beginEv @3253
    _ZNKSt6vectorIPN6Hinage15SpriteAnimationESaIS2_EEixEj @3254
    _ZNKSt6vectorIPN6Hinage6UIItemESaIS2_EE3endEv @3255
    _ZNKSt6vectorIPN6Hinage6UIItemESaIS2_EE4sizeEv @3256
    _ZNKSt6vectorIPN6Hinage6UIItemESaIS2_EE5beginEv @3257
    _ZNKSt6vectorIPN6Hinage9GameStateESaIS2_EE3endEv @3258
    _ZNKSt6vectorIPN6Hinage9GameStateESaIS2_EE4sizeEv @3259
    _ZNKSt6vectorIPN6Hinage9GameStateESaIS2_EE5beginEv @3260
    _ZNKSt6vectorIPN6Hinage9GameStateESaIS2_EE5emptyEv @3261
    _ZNKSt6vectorIS_IN6Hinage8Renderer12RenderObjectESaIS2_EESaIS4_EE3endEv @3262
    _ZNKSt6vectorIS_IN6Hinage8Renderer12RenderObjectESaIS2_EESaIS4_EE4sizeEv @3263
    _ZNKSt6vectorIS_IN6Hinage8Renderer12RenderObjectESaIS2_EESaIS4_EE5beginEv @3264
    _ZNKSt6vectorIS_IcSaIcEESaIS1_EE3endEv @3265
    _ZNKSt6vectorIS_IcSaIcEESaIS1_EE4sizeEv @3266
    _ZNKSt6vectorIS_IcSaIcEESaIS1_EE5beginEv @3267
    _ZNKSt6vectorISsSaISsEE3endEv @3268
    _ZNKSt6vectorISsSaISsEE4sizeEv @3269
    _ZNKSt6vectorISsSaISsEE5beginEv @3270
    _ZNKSt6vectorIcSaIcEE3endEv @3271
    _ZNKSt6vectorIcSaIcEE4sizeEv @3272
    _ZNKSt6vectorIcSaIcEE5beginEv @3273
    _ZNKSt6vectorIcSaIcEE8capacityEv @3274
    _ZNKSt8_Rb_treeISsSt4pairIKSsP10_Mix_MusicESt10_Select1stIS4_ESt4lessISsESaIS4_EE4sizeEv @3275
    _ZNKSt8_Rb_treeISsSt4pairIKSsP10_Mix_MusicESt10_Select1stIS4_ESt4lessISsESaIS4_EE8key_compEv @3276
    _ZNKSt8_Rb_treeISsSt4pairIKSsP9Mix_ChunkESt10_Select1stIS4_ESt4lessISsESaIS4_EE4sizeEv @3277
    _ZNKSt8_Rb_treeISsSt4pairIKSsP9Mix_ChunkESt10_Select1stIS4_ESt4lessISsESaIS4_EE8key_compEv @3278
    _ZNKSt8_Rb_treeISsSt4pairIKSsPFPN6Hinage14PhysicalEntityESsPNS2_4GameEEESt10_Select1stIS9_ESt4lessISsESaIS9_EE7_M_rootEv @3279
    _ZNKSt8_Rb_treeISsSt4pairIKSsPFPN6Hinage14PhysicalEntityESsPNS2_4GameEEESt10_Select1stIS9_ESt4lessISsESaIS9_EE8_M_beginEv @3280
    _ZNKSt8_Rb_treeISsSt4pairIKSsSsESt10_Select1stIS2_ESt4lessISsESaIS2_EE4sizeEv @3281
    _ZNKSt8_Rb_treeISsSt4pairIKSsSsESt10_Select1stIS2_ESt4lessISsESaIS2_EE8key_compEv @3282
    _ZNKSt9type_info4nameEv @3283
    _ZNSaIN5boost10shared_ptrIN6Hinage8ParticleEEEEC1Ev @3284
    _ZNSaIN5boost10shared_ptrIN6Hinage8ParticleEEEED1Ev @3285
    _ZNSaIN6Hinage14PhysicalEntity17TileCollisionDataEEC1Ev @3286
    _ZNSaIN6Hinage14PhysicalEntity17TileCollisionDataEEC2ERKS2_ @3287
    _ZNSaIN6Hinage14PhysicalEntity17TileCollisionDataEED1Ev @3288
    _ZNSaIN6Hinage14PhysicalEntity17TileCollisionDataEED2Ev @3289
    _ZNSaIN6Hinage8Renderer12RenderObjectEEC1ERKS2_ @3290
    _ZNSaIN6Hinage8Renderer12RenderObjectEEC1Ev @3291
    _ZNSaIN6Hinage8Renderer12RenderObjectEEC2ERKS2_ @3292
    _ZNSaIN6Hinage8Renderer12RenderObjectEED1Ev @3293
    _ZNSaIN6Hinage8Renderer12RenderObjectEED2Ev @3294
    _ZNSaIN6Hinage8Renderer6VertexEEC1ERKS2_ @3295
    _ZNSaIN6Hinage8Renderer6VertexEEC1Ev @3296
    _ZNSaIN6Hinage8Renderer6VertexEEC2ERKS2_ @3297
    _ZNSaIN6Hinage8Renderer6VertexEED1Ev @3298
    _ZNSaIN6Hinage8Renderer6VertexEED2Ev @3299
    _ZNSaIN7luabind5valueEED2Ev @3300
    _ZNSaIPKSt9type_infoEC1Ev @3301
    _ZNSaIPKSt9type_infoEC2ERKS2_ @3302
    _ZNSaIPKSt9type_infoED1Ev @3303
    _ZNSaIPKSt9type_infoED2Ev @3304
    _ZNSaIPN6Hinage14PhysicalEntityEEC1ERKS2_ @3305
    _ZNSaIPN6Hinage14PhysicalEntityEEC1Ev @3306
    _ZNSaIPN6Hinage14PhysicalEntityEEC2ERKS2_ @3307
    _ZNSaIPN6Hinage14PhysicalEntityEED1Ev @3308
    _ZNSaIPN6Hinage14PhysicalEntityEED2Ev @3309
    _ZNSaIPN6Hinage15ResourceManagerINS_4FontEE8ResourceEEC1Ev @3310
    _ZNSaIPN6Hinage15ResourceManagerINS_4FontEE8ResourceEEC2ERKS5_ @3311
    _ZNSaIPN6Hinage15ResourceManagerINS_4FontEE8ResourceEED1Ev @3312
    _ZNSaIPN6Hinage15ResourceManagerINS_4FontEE8ResourceEED2Ev @3313
    _ZNSaIPN6Hinage15ResourceManagerINS_6SpriteEE8ResourceEEC1Ev @3314
    _ZNSaIPN6Hinage15ResourceManagerINS_6SpriteEE8ResourceEEC2ERKS5_ @3315
    _ZNSaIPN6Hinage15ResourceManagerINS_6SpriteEE8ResourceEED1Ev @3316
    _ZNSaIPN6Hinage15ResourceManagerINS_6SpriteEE8ResourceEED2Ev @3317
    _ZNSaIPN6Hinage15ResourceManagerINS_7TextureEE8ResourceEEC1Ev @3318
    _ZNSaIPN6Hinage15ResourceManagerINS_7TextureEE8ResourceEEC2ERKS5_ @3319
    _ZNSaIPN6Hinage15ResourceManagerINS_7TextureEE8ResourceEED1Ev @3320
    _ZNSaIPN6Hinage15ResourceManagerINS_7TextureEE8ResourceEED2Ev @3321
    _ZNSaIPN6Hinage15ResourceManagerINS_7TilesetEE8ResourceEEC1Ev @3322
    _ZNSaIPN6Hinage15ResourceManagerINS_7TilesetEE8ResourceEEC2ERKS5_ @3323
    _ZNSaIPN6Hinage15ResourceManagerINS_7TilesetEE8ResourceEED1Ev @3324
    _ZNSaIPN6Hinage15ResourceManagerINS_7TilesetEE8ResourceEED2Ev @3325
    _ZNSaIPN6Hinage15SpriteAnimation5FrameEEC1Ev @3326
    _ZNSaIPN6Hinage15SpriteAnimation5FrameEEC2ERKS3_ @3327
    _ZNSaIPN6Hinage15SpriteAnimation5FrameEED1Ev @3328
    _ZNSaIPN6Hinage15SpriteAnimation5FrameEED2Ev @3329
    _ZNSaIPN6Hinage15SpriteAnimationEEC1ERKS2_ @3330
    _ZNSaIPN6Hinage15SpriteAnimationEEC1Ev @3331
    _ZNSaIPN6Hinage15SpriteAnimationEEC2ERKS2_ @3332
    _ZNSaIPN6Hinage15SpriteAnimationEED1Ev @3333
    _ZNSaIPN6Hinage15SpriteAnimationEED2Ev @3334
    _ZNSaIPN6Hinage6UIItemEEC1Ev @3335
    _ZNSaIPN6Hinage6UIItemEEC2ERKS2_ @3336
    _ZNSaIPN6Hinage6UIItemEED1Ev @3337
    _ZNSaIPN6Hinage6UIItemEED2Ev @3338
    _ZNSaIPN6Hinage9GameStateEEC1Ev @3339
    _ZNSaIPN6Hinage9GameStateEEC2ERKS2_ @3340
    _ZNSaIPN6Hinage9GameStateEED1Ev @3341
    _ZNSaIPN6Hinage9GameStateEED2Ev @3342
    _ZNSaISsEC1Ev @3343
    _ZNSaISsEC2ERKS_ @3344
    _ZNSaISsED1Ev @3345
    _ZNSaISsED2Ev @3346
    _ZNSaISt10_List_nodeIN5boost10shared_ptrIN6Hinage8ParticleEEEEEC1IS4_EERKSaIT_E @3347
    _ZNSaISt10_List_nodeIN5boost10shared_ptrIN6Hinage8ParticleEEEEEC2ERKS6_ @3348
    _ZNSaISt10_List_nodeIN5boost10shared_ptrIN6Hinage8ParticleEEEEED1Ev @3349
    _ZNSaISt10_List_nodeIN5boost10shared_ptrIN6Hinage8ParticleEEEEED2Ev @3350
    _ZNSaISt13_Rb_tree_nodeISt4pairIKSsP10_Mix_MusicEEEC1IS4_EERKSaIT_E @3351
    _ZNSaISt13_Rb_tree_nodeISt4pairIKSsP10_Mix_MusicEEEC2ERKS6_ @3352
    _ZNSaISt13_Rb_tree_nodeISt4pairIKSsP10_Mix_MusicEEED1Ev @3353
    _ZNSaISt13_Rb_tree_nodeISt4pairIKSsP10_Mix_MusicEEED2Ev @3354
    _ZNSaISt13_Rb_tree_nodeISt4pairIKSsP9Mix_ChunkEEEC1IS4_EERKSaIT_E @3355
    _ZNSaISt13_Rb_tree_nodeISt4pairIKSsP9Mix_ChunkEEEC2ERKS6_ @3356
    _ZNSaISt13_Rb_tree_nodeISt4pairIKSsP9Mix_ChunkEEED1Ev @3357
    _ZNSaISt13_Rb_tree_nodeISt4pairIKSsP9Mix_ChunkEEED2Ev @3358
    _ZNSaISt13_Rb_tree_nodeISt4pairIKSsPFPN6Hinage14PhysicalEntityESsPNS2_4GameEEEEEC1IS9_EERKSaIT_E @3359
    _ZNSaISt13_Rb_tree_nodeISt4pairIKSsPFPN6Hinage14PhysicalEntityESsPNS2_4GameEEEEEC2ERKSB_ @3360
    _ZNSaISt13_Rb_tree_nodeISt4pairIKSsPFPN6Hinage14PhysicalEntityESsPNS2_4GameEEEEED1Ev @3361
    _ZNSaISt13_Rb_tree_nodeISt4pairIKSsPFPN6Hinage14PhysicalEntityESsPNS2_4GameEEEEED2Ev @3362
    _ZNSaISt13_Rb_tree_nodeISt4pairIKSsSsEEEC1IS2_EERKSaIT_E @3363
    _ZNSaISt13_Rb_tree_nodeISt4pairIKSsSsEEEC2ERKS4_ @3364
    _ZNSaISt13_Rb_tree_nodeISt4pairIKSsSsEEED1Ev @3365
    _ZNSaISt13_Rb_tree_nodeISt4pairIKSsSsEEED2Ev @3366
    _ZNSaISt4pairIKSsP10_Mix_MusicEEC1Ev @3367
    _ZNSaISt4pairIKSsP10_Mix_MusicEED1Ev @3368
    _ZNSaISt4pairIKSsP9Mix_ChunkEEC1Ev @3369
    _ZNSaISt4pairIKSsP9Mix_ChunkEED1Ev @3370
    _ZNSaISt4pairIKSsPFPN6Hinage14PhysicalEntityESsPNS1_4GameEEEEC1Ev @3371
    _ZNSaISt4pairIKSsPFPN6Hinage14PhysicalEntityESsPNS1_4GameEEEED1Ev @3372
    _ZNSaISt4pairIKSsSsEEC1Ev @3373
    _ZNSaISt4pairIKSsSsEED1Ev @3374
    _ZNSaISt6vectorIN6Hinage8Renderer12RenderObjectESaIS2_EEEC1Ev @3375
    _ZNSaISt6vectorIN6Hinage8Renderer12RenderObjectESaIS2_EEEC2ERKS5_ @3376
    _ZNSaISt6vectorIN6Hinage8Renderer12RenderObjectESaIS2_EEED1Ev @3377
    _ZNSaISt6vectorIN6Hinage8Renderer12RenderObjectESaIS2_EEED2Ev @3378
    _ZNSaISt6vectorIcSaIcEEEC1Ev @3379
    _ZNSaISt6vectorIcSaIcEEEC2ERKS2_ @3380
    _ZNSaISt6vectorIcSaIcEEED1Ev @3381
    _ZNSaISt6vectorIcSaIcEEED2Ev @3382
    _ZNSt10_List_baseIN5boost10shared_ptrIN6Hinage8ParticleEEESaIS4_EE10_List_implC1ERKSaISt10_List_nodeIS4_EE @3383
    _ZNSt10_List_baseIN5boost10shared_ptrIN6Hinage8ParticleEEESaIS4_EE10_List_implD1Ev @3384
    _ZNSt10_List_baseIN5boost10shared_ptrIN6Hinage8ParticleEEESaIS4_EE11_M_get_nodeEv @3385
    _ZNSt10_List_baseIN5boost10shared_ptrIN6Hinage8ParticleEEESaIS4_EE11_M_put_nodeEPSt10_List_nodeIS4_E @3386
    _ZNSt10_List_baseIN5boost10shared_ptrIN6Hinage8ParticleEEESaIS4_EE7_M_initEv @3387
    _ZNSt10_List_baseIN5boost10shared_ptrIN6Hinage8ParticleEEESaIS4_EEC2ERKS5_ @3388
    _ZNSt12_Vector_baseIN6Hinage14PhysicalEntity17TileCollisionDataESaIS2_EE11_M_allocateEj @3389
    _ZNSt12_Vector_baseIN6Hinage14PhysicalEntity17TileCollisionDataESaIS2_EE12_Vector_implC1ERKS3_ @3390
    _ZNSt12_Vector_baseIN6Hinage14PhysicalEntity17TileCollisionDataESaIS2_EE12_Vector_implD1Ev @3391
    _ZNSt12_Vector_baseIN6Hinage14PhysicalEntity17TileCollisionDataESaIS2_EE13_M_deallocateEPS2_j @3392
    _ZNSt12_Vector_baseIN6Hinage14PhysicalEntity17TileCollisionDataESaIS2_EEC2ERKS3_ @3393
    _ZNSt12_Vector_baseIN6Hinage14PhysicalEntity17TileCollisionDataESaIS2_EED2Ev @3394
    _ZNSt12_Vector_baseIN6Hinage8Renderer12RenderObjectESaIS2_EE11_M_allocateEj @3395
    _ZNSt12_Vector_baseIN6Hinage8Renderer12RenderObjectESaIS2_EE12_Vector_implC1ERKS3_ @3396
    _ZNSt12_Vector_baseIN6Hinage8Renderer12RenderObjectESaIS2_EE12_Vector_implD1Ev @3397
    _ZNSt12_Vector_baseIN6Hinage8Renderer12RenderObjectESaIS2_EE13_M_deallocateEPS2_j @3398
    _ZNSt12_Vector_baseIN6Hinage8Renderer12RenderObjectESaIS2_EEC2ERKS3_ @3399
    _ZNSt12_Vector_baseIN6Hinage8Renderer12RenderObjectESaIS2_EEC2EjRKS3_ @3400
    _ZNSt12_Vector_baseIN6Hinage8Renderer12RenderObjectESaIS2_EED2Ev @3401
    _ZNSt12_Vector_baseIN6Hinage8Renderer6VertexESaIS2_EE11_M_allocateEj @3402
    _ZNSt12_Vector_baseIN6Hinage8Renderer6VertexESaIS2_EE12_Vector_implC1ERKS3_ @3403
    _ZNSt12_Vector_baseIN6Hinage8Renderer6VertexESaIS2_EE12_Vector_implD1Ev @3404
    _ZNSt12_Vector_baseIN6Hinage8Renderer6VertexESaIS2_EE13_M_deallocateEPS2_j @3405
    _ZNSt12_Vector_baseIN6Hinage8Renderer6VertexESaIS2_EEC2ERKS3_ @3406
    _ZNSt12_Vector_baseIN6Hinage8Renderer6VertexESaIS2_EEC2EjRKS3_ @3407
    _ZNSt12_Vector_baseIN6Hinage8Renderer6VertexESaIS2_EED2Ev @3408
    _ZNSt12_Vector_baseIN7luabind5valueESaIS1_EE12_Vector_implD1Ev @3409
    _ZNSt12_Vector_baseIN7luabind5valueESaIS1_EE13_M_deallocateEPS1_j @3410
    _ZNSt12_Vector_baseIN7luabind5valueESaIS1_EED2Ev @3411
    _ZNSt12_Vector_baseIPKSt9type_infoSaIS2_EE11_M_allocateEj @3412
    _ZNSt12_Vector_baseIPKSt9type_infoSaIS2_EE12_Vector_implC1ERKS3_ @3413
    _ZNSt12_Vector_baseIPKSt9type_infoSaIS2_EE12_Vector_implD1Ev @3414
    _ZNSt12_Vector_baseIPKSt9type_infoSaIS2_EE13_M_deallocateEPS2_j @3415
    _ZNSt12_Vector_baseIPKSt9type_infoSaIS2_EEC2ERKS3_ @3416
    _ZNSt12_Vector_baseIPKSt9type_infoSaIS2_EED2Ev @3417
    _ZNSt12_Vector_baseIPN6Hinage14PhysicalEntityESaIS2_EE11_M_allocateEj @3418
    _ZNSt12_Vector_baseIPN6Hinage14PhysicalEntityESaIS2_EE12_Vector_implC1ERKS3_ @3419
    _ZNSt12_Vector_baseIPN6Hinage14PhysicalEntityESaIS2_EE12_Vector_implD1Ev @3420
    _ZNSt12_Vector_baseIPN6Hinage14PhysicalEntityESaIS2_EE13_M_deallocateEPS2_j @3421
    _ZNSt12_Vector_baseIPN6Hinage14PhysicalEntityESaIS2_EEC2ERKS3_ @3422
    _ZNSt12_Vector_baseIPN6Hinage14PhysicalEntityESaIS2_EEC2EjRKS3_ @3423
    _ZNSt12_Vector_baseIPN6Hinage14PhysicalEntityESaIS2_EED2Ev @3424
    _ZNSt12_Vector_baseIPN6Hinage15ResourceManagerINS0_4FontEE8ResourceESaIS5_EE11_M_allocateEj @3425
    _ZNSt12_Vector_baseIPN6Hinage15ResourceManagerINS0_4FontEE8ResourceESaIS5_EE12_Vector_implC1ERKS6_ @3426
    _ZNSt12_Vector_baseIPN6Hinage15ResourceManagerINS0_4FontEE8ResourceESaIS5_EE12_Vector_implD1Ev @3427
    _ZNSt12_Vector_baseIPN6Hinage15ResourceManagerINS0_4FontEE8ResourceESaIS5_EE13_M_deallocateEPS5_j @3428
    _ZNSt12_Vector_baseIPN6Hinage15ResourceManagerINS0_4FontEE8ResourceESaIS5_EEC2ERKS6_ @3429
    _ZNSt12_Vector_baseIPN6Hinage15ResourceManagerINS0_4FontEE8ResourceESaIS5_EED2Ev @3430
    _ZNSt12_Vector_baseIPN6Hinage15ResourceManagerINS0_6SpriteEE8ResourceESaIS5_EE11_M_allocateEj @3431
    _ZNSt12_Vector_baseIPN6Hinage15ResourceManagerINS0_6SpriteEE8ResourceESaIS5_EE12_Vector_implC1ERKS6_ @3432
    _ZNSt12_Vector_baseIPN6Hinage15ResourceManagerINS0_6SpriteEE8ResourceESaIS5_EE12_Vector_implD1Ev @3433
    _ZNSt12_Vector_baseIPN6Hinage15ResourceManagerINS0_6SpriteEE8ResourceESaIS5_EE13_M_deallocateEPS5_j @3434
    _ZNSt12_Vector_baseIPN6Hinage15ResourceManagerINS0_6SpriteEE8ResourceESaIS5_EEC2ERKS6_ @3435
    _ZNSt12_Vector_baseIPN6Hinage15ResourceManagerINS0_6SpriteEE8ResourceESaIS5_EED2Ev @3436
    _ZNSt12_Vector_baseIPN6Hinage15ResourceManagerINS0_7TextureEE8ResourceESaIS5_EE11_M_allocateEj @3437
    _ZNSt12_Vector_baseIPN6Hinage15ResourceManagerINS0_7TextureEE8ResourceESaIS5_EE12_Vector_implC1ERKS6_ @3438
    _ZNSt12_Vector_baseIPN6Hinage15ResourceManagerINS0_7TextureEE8ResourceESaIS5_EE12_Vector_implD1Ev @3439
    _ZNSt12_Vector_baseIPN6Hinage15ResourceManagerINS0_7TextureEE8ResourceESaIS5_EE13_M_deallocateEPS5_j @3440
    _ZNSt12_Vector_baseIPN6Hinage15ResourceManagerINS0_7TextureEE8ResourceESaIS5_EEC2ERKS6_ @3441
    _ZNSt12_Vector_baseIPN6Hinage15ResourceManagerINS0_7TextureEE8ResourceESaIS5_EED2Ev @3442
    _ZNSt12_Vector_baseIPN6Hinage15ResourceManagerINS0_7TilesetEE8ResourceESaIS5_EE11_M_allocateEj @3443
    _ZNSt12_Vector_baseIPN6Hinage15ResourceManagerINS0_7TilesetEE8ResourceESaIS5_EE12_Vector_implC1ERKS6_ @3444
    _ZNSt12_Vector_baseIPN6Hinage15ResourceManagerINS0_7TilesetEE8ResourceESaIS5_EE12_Vector_implD1Ev @3445
    _ZNSt12_Vector_baseIPN6Hinage15ResourceManagerINS0_7TilesetEE8ResourceESaIS5_EE13_M_deallocateEPS5_j @3446
    _ZNSt12_Vector_baseIPN6Hinage15ResourceManagerINS0_7TilesetEE8ResourceESaIS5_EEC2ERKS6_ @3447
    _ZNSt12_Vector_baseIPN6Hinage15ResourceManagerINS0_7TilesetEE8ResourceESaIS5_EED2Ev @3448
    _ZNSt12_Vector_baseIPN6Hinage15SpriteAnimation5FrameESaIS3_EE11_M_allocateEj @3449
    _ZNSt12_Vector_baseIPN6Hinage15SpriteAnimation5FrameESaIS3_EE12_Vector_implC1ERKS4_ @3450
    _ZNSt12_Vector_baseIPN6Hinage15SpriteAnimation5FrameESaIS3_EE12_Vector_implD1Ev @3451
    _ZNSt12_Vector_baseIPN6Hinage15SpriteAnimation5FrameESaIS3_EE13_M_deallocateEPS3_j @3452
    _ZNSt12_Vector_baseIPN6Hinage15SpriteAnimation5FrameESaIS3_EEC2ERKS4_ @3453
    _ZNSt12_Vector_baseIPN6Hinage15SpriteAnimation5FrameESaIS3_EED2Ev @3454
    _ZNSt12_Vector_baseIPN6Hinage15SpriteAnimationESaIS2_EE11_M_allocateEj @3455
    _ZNSt12_Vector_baseIPN6Hinage15SpriteAnimationESaIS2_EE12_Vector_implC1ERKS3_ @3456
    _ZNSt12_Vector_baseIPN6Hinage15SpriteAnimationESaIS2_EE12_Vector_implD1Ev @3457
    _ZNSt12_Vector_baseIPN6Hinage15SpriteAnimationESaIS2_EE13_M_deallocateEPS2_j @3458
    _ZNSt12_Vector_baseIPN6Hinage15SpriteAnimationESaIS2_EEC2ERKS3_ @3459
    _ZNSt12_Vector_baseIPN6Hinage15SpriteAnimationESaIS2_EEC2EjRKS3_ @3460
    _ZNSt12_Vector_baseIPN6Hinage15SpriteAnimationESaIS2_EED2Ev @3461
    _ZNSt12_Vector_baseIPN6Hinage6UIItemESaIS2_EE12_Vector_implC1ERKS3_ @3462
    _ZNSt12_Vector_baseIPN6Hinage6UIItemESaIS2_EE12_Vector_implD1Ev @3463
    _ZNSt12_Vector_baseIPN6Hinage6UIItemESaIS2_EE13_M_deallocateEPS2_j @3464
    _ZNSt12_Vector_baseIPN6Hinage6UIItemESaIS2_EEC2ERKS3_ @3465
    _ZNSt12_Vector_baseIPN6Hinage6UIItemESaIS2_EED2Ev @3466
    _ZNSt12_Vector_baseIPN6Hinage9GameStateESaIS2_EE11_M_allocateEj @3467
    _ZNSt12_Vector_baseIPN6Hinage9GameStateESaIS2_EE12_Vector_implC1ERKS3_ @3468
    _ZNSt12_Vector_baseIPN6Hinage9GameStateESaIS2_EE12_Vector_implD1Ev @3469
    _ZNSt12_Vector_baseIPN6Hinage9GameStateESaIS2_EE13_M_deallocateEPS2_j @3470
    _ZNSt12_Vector_baseIPN6Hinage9GameStateESaIS2_EEC2ERKS3_ @3471
    _ZNSt12_Vector_baseIPN6Hinage9GameStateESaIS2_EED2Ev @3472
    _ZNSt12_Vector_baseISsSaISsEE11_M_allocateEj @3473
    _ZNSt12_Vector_baseISsSaISsEE12_Vector_implC1ERKS0_ @3474
    _ZNSt12_Vector_baseISsSaISsEE12_Vector_implD1Ev @3475
    _ZNSt12_Vector_baseISsSaISsEE13_M_deallocateEPSsj @3476
    _ZNSt12_Vector_baseISsSaISsEEC2ERKS0_ @3477
    _ZNSt12_Vector_baseISsSaISsEED2Ev @3478
    _ZNSt12_Vector_baseISt6vectorIN6Hinage8Renderer12RenderObjectESaIS3_EESaIS5_EE11_M_allocateEj @3479
    _ZNSt12_Vector_baseISt6vectorIN6Hinage8Renderer12RenderObjectESaIS3_EESaIS5_EE12_Vector_implC1ERKS6_ @3480
    _ZNSt12_Vector_baseISt6vectorIN6Hinage8Renderer12RenderObjectESaIS3_EESaIS5_EE12_Vector_implD1Ev @3481
    _ZNSt12_Vector_baseISt6vectorIN6Hinage8Renderer12RenderObjectESaIS3_EESaIS5_EE13_M_deallocateEPS5_j @3482
    _ZNSt12_Vector_baseISt6vectorIN6Hinage8Renderer12RenderObjectESaIS3_EESaIS5_EEC2ERKS6_ @3483
    _ZNSt12_Vector_baseISt6vectorIN6Hinage8Renderer12RenderObjectESaIS3_EESaIS5_EED2Ev @3484
    _ZNSt12_Vector_baseISt6vectorIcSaIcEESaIS2_EE11_M_allocateEj @3485
    _ZNSt12_Vector_baseISt6vectorIcSaIcEESaIS2_EE12_Vector_implC1ERKS3_ @3486
    _ZNSt12_Vector_baseISt6vectorIcSaIcEESaIS2_EE12_Vector_implD1Ev @3487
    _ZNSt12_Vector_baseISt6vectorIcSaIcEESaIS2_EE13_M_deallocateEPS2_j @3488
    _ZNSt12_Vector_baseISt6vectorIcSaIcEESaIS2_EEC2ERKS3_ @3489
    _ZNSt12_Vector_baseISt6vectorIcSaIcEESaIS2_EED2Ev @3490
    _ZNSt12_Vector_baseIcSaIcEE11_M_allocateEj @3491
    _ZNSt12_Vector_baseIcSaIcEE12_Vector_implC1ERKS0_ @3492
    _ZNSt12_Vector_baseIcSaIcEE12_Vector_implD1Ev @3493
    _ZNSt12_Vector_baseIcSaIcEE13_M_deallocateEPcj @3494
    _ZNSt12_Vector_baseIcSaIcEEC2ERKS0_ @3495
    _ZNSt12_Vector_baseIcSaIcEEC2EjRKS0_ @3496
    _ZNSt12_Vector_baseIcSaIcEED2Ev @3497
    _ZNSt13runtime_errorC2ERKS_ @3498
    _ZNSt14_List_iteratorIN5boost10shared_ptrIN6Hinage8ParticleEEEEC1EPSt15_List_node_base @3499
    _ZNSt14_List_iteratorIN5boost10shared_ptrIN6Hinage8ParticleEEEEppEv @3500
    _ZNSt17_Rb_tree_iteratorISt4pairIKSsP10_Mix_MusicEEC1EPSt13_Rb_tree_nodeIS4_E @3501
    _ZNSt17_Rb_tree_iteratorISt4pairIKSsP10_Mix_MusicEEmmEv @3502
    _ZNSt17_Rb_tree_iteratorISt4pairIKSsP9Mix_ChunkEEC1EPSt13_Rb_tree_nodeIS4_E @3503
    _ZNSt17_Rb_tree_iteratorISt4pairIKSsP9Mix_ChunkEEmmEv @3504
    _ZNSt17_Rb_tree_iteratorISt4pairIKSsSsEEC1EPSt13_Rb_tree_nodeIS2_E @3505
    _ZNSt17_Rb_tree_iteratorISt4pairIKSsSsEEC1Ev @3506
    _ZNSt17_Rb_tree_iteratorISt4pairIKSsSsEEmmEv @3507
    _ZNSt18_Rb_tree_node_base10_S_maximumEPS_ @3508
    _ZNSt18_Rb_tree_node_base10_S_minimumEPS_ @3509
    _ZNSt24__copy_backward_dispatchIPN6Hinage14PhysicalEntity17TileCollisionDataES3_12__false_typeE4copyES3_S3_S3_ @3510
    _ZNSt24__copy_backward_dispatchIPN6Hinage8Renderer12RenderObjectES3_12__false_typeE4copyES3_S3_S3_ @3511
    _ZNSt24__copy_backward_dispatchIPN6Hinage8Renderer6VertexES3_12__false_typeE4copyES3_S3_S3_ @3512
    _ZNSt24__copy_backward_dispatchIPPKSt9type_infoS3_11__true_typeE4copyEPKS2_S7_S3_ @3513
    _ZNSt24__copy_backward_dispatchIPPN6Hinage14PhysicalEntityES3_11__true_typeE4copyEPKS2_S7_S3_ @3514
    _ZNSt24__copy_backward_dispatchIPPN6Hinage15ResourceManagerINS0_4FontEE8ResourceES6_11__true_typeE4copyEPKS5_SA_S6_ @3515
    _ZNSt24__copy_backward_dispatchIPPN6Hinage15ResourceManagerINS0_6SpriteEE8ResourceES6_11__true_typeE4copyEPKS5_SA_S6_ @3516
    _ZNSt24__copy_backward_dispatchIPPN6Hinage15ResourceManagerINS0_7TextureEE8ResourceES6_11__true_typeE4copyEPKS5_SA_S6_ @3517
    _ZNSt24__copy_backward_dispatchIPPN6Hinage15ResourceManagerINS0_7TilesetEE8ResourceES6_11__true_typeE4copyEPKS5_SA_S6_ @3518
    _ZNSt24__copy_backward_dispatchIPPN6Hinage15SpriteAnimation5FrameES4_11__true_typeE4copyEPKS3_S8_S4_ @3519
    _ZNSt24__copy_backward_dispatchIPPN6Hinage15SpriteAnimationES3_11__true_typeE4copyEPKS2_S7_S3_ @3520
    _ZNSt24__copy_backward_dispatchIPPN6Hinage9GameStateES3_11__true_typeE4copyEPKS2_S7_S3_ @3521
    _ZNSt24__copy_backward_dispatchIPSsS0_12__false_typeE4copyES0_S0_S0_ @3522
    _ZNSt24__copy_backward_dispatchIPSt6vectorIN6Hinage8Renderer12RenderObjectESaIS3_EES6_12__false_typeE4copyES6_S6_S6_ @3523
    _ZNSt24__copy_backward_dispatchIPSt6vectorIcSaIcEES3_12__false_typeE4copyES3_S3_S3_ @3524
    _ZNSt24__copy_backward_dispatchIPcS0_11__true_typeE4copyEPKcS4_S0_ @3525
    _ZNSt3mapISsP10_Mix_MusicSt4lessISsESaISt4pairIKSsS1_EEE11lower_boundERS5_ @3526
    _ZNSt3mapISsP10_Mix_MusicSt4lessISsESaISt4pairIKSsS1_EEE3endEv @3527
    _ZNSt3mapISsP10_Mix_MusicSt4lessISsESaISt4pairIKSsS1_EEE6insertESt17_Rb_tree_iteratorIS6_ERKS6_ @3528
    _ZNSt3mapISsP10_Mix_MusicSt4lessISsESaISt4pairIKSsS1_EEEC1Ev @3529
    _ZNSt3mapISsP10_Mix_MusicSt4lessISsESaISt4pairIKSsS1_EEED1Ev @3530
    _ZNSt3mapISsP10_Mix_MusicSt4lessISsESaISt4pairIKSsS1_EEEixERS5_ @3531
    _ZNSt3mapISsP9Mix_ChunkSt4lessISsESaISt4pairIKSsS1_EEE11lower_boundERS5_ @3532
    _ZNSt3mapISsP9Mix_ChunkSt4lessISsESaISt4pairIKSsS1_EEE3endEv @3533
    _ZNSt3mapISsP9Mix_ChunkSt4lessISsESaISt4pairIKSsS1_EEE6insertESt17_Rb_tree_iteratorIS6_ERKS6_ @3534
    _ZNSt3mapISsP9Mix_ChunkSt4lessISsESaISt4pairIKSsS1_EEEC1Ev @3535
    _ZNSt3mapISsP9Mix_ChunkSt4lessISsESaISt4pairIKSsS1_EEED1Ev @3536
    _ZNSt3mapISsP9Mix_ChunkSt4lessISsESaISt4pairIKSsS1_EEEixERS5_ @3537
    _ZNSt3mapISsPFPN6Hinage14PhysicalEntityESsPNS0_4GameEESt4lessISsESaISt4pairIKSsS6_EEEC1Ev @3538
    _ZNSt3mapISsPFPN6Hinage14PhysicalEntityESsPNS0_4GameEESt4lessISsESaISt4pairIKSsS6_EEED1Ev @3539
    _ZNSt3mapISsPFPN6Hinage14PhysicalEntityESsPNS0_4GameEESt4lessISsESaISt4pairIKSsS6_EEEaSERKSD_ @3540
    _ZNSt3mapISsSsSt4lessISsESaISt4pairIKSsSsEEE11lower_boundERS3_ @3541
    _ZNSt3mapISsSsSt4lessISsESaISt4pairIKSsSsEEE3endEv @3542
    _ZNSt3mapISsSsSt4lessISsESaISt4pairIKSsSsEEE4findERS3_ @3543
    _ZNSt3mapISsSsSt4lessISsESaISt4pairIKSsSsEEE6insertERKS4_ @3544
    _ZNSt3mapISsSsSt4lessISsESaISt4pairIKSsSsEEE6insertESt17_Rb_tree_iteratorIS4_ERKS4_ @3545
    _ZNSt3mapISsSsSt4lessISsESaISt4pairIKSsSsEEEC1Ev @3546
    _ZNSt3mapISsSsSt4lessISsESaISt4pairIKSsSsEEED1Ev @3547
    _ZNSt3mapISsSsSt4lessISsESaISt4pairIKSsSsEEEixERS3_ @3548
    _ZNSt4listIN5boost10shared_ptrIN6Hinage8ParticleEEESaIS4_EE14_M_create_nodeERKS4_ @3549
    _ZNSt4listIN5boost10shared_ptrIN6Hinage8ParticleEEESaIS4_EE3endEv @3550
    _ZNSt4listIN5boost10shared_ptrIN6Hinage8ParticleEEESaIS4_EE5beginEv @3551
    _ZNSt4listIN5boost10shared_ptrIN6Hinage8ParticleEEESaIS4_EE5eraseESt14_List_iteratorIS4_E @3552
    _ZNSt4listIN5boost10shared_ptrIN6Hinage8ParticleEEESaIS4_EE8_M_eraseESt14_List_iteratorIS4_E @3553
    _ZNSt4listIN5boost10shared_ptrIN6Hinage8ParticleEEESaIS4_EE9_M_insertESt14_List_iteratorIS4_ERKS4_ @3554
    _ZNSt4listIN5boost10shared_ptrIN6Hinage8ParticleEEESaIS4_EE9push_backERKS4_ @3555
    _ZNSt4listIN5boost10shared_ptrIN6Hinage8ParticleEEESaIS4_EEC1ERKS5_ @3556
    _ZNSt4pairIKSsP10_Mix_MusicEC1ERKS3_ @3557
    _ZNSt4pairIKSsP10_Mix_MusicEC1ERS0_RKS2_ @3558
    _ZNSt4pairIKSsP10_Mix_MusicED1Ev @3559
    _ZNSt4pairIKSsP9Mix_ChunkEC1ERKS3_ @3560
    _ZNSt4pairIKSsP9Mix_ChunkEC1ERS0_RKS2_ @3561
    _ZNSt4pairIKSsP9Mix_ChunkED1Ev @3562
    _ZNSt4pairIKSsPFPN6Hinage14PhysicalEntityESsPNS1_4GameEEEC1ERKS8_ @3563
    _ZNSt4pairIKSsPFPN6Hinage14PhysicalEntityESsPNS1_4GameEEED1Ev @3564
    _ZNSt4pairIKSsSsEC1ERKS1_ @3565
    _ZNSt4pairIKSsSsEC1ERS0_S2_ @3566
    _ZNSt4pairIKSsSsEC1ISsSsEERKS_IT_T0_E @3567
    _ZNSt4pairIKSsSsED1Ev @3568
    _ZNSt4pairISsSsEC1ERKSsS2_ @3569
    _ZNSt4pairISsSsED1Ev @3570
    _ZNSt4pairISt17_Rb_tree_iteratorIS_IKSsP10_Mix_MusicEEbEC1ERKS5_RKb @3571
    _ZNSt4pairISt17_Rb_tree_iteratorIS_IKSsP9Mix_ChunkEEbEC1ERKS5_RKb @3572
    _ZNSt4pairISt17_Rb_tree_iteratorIS_IKSsSsEEbEC1ERKS3_RKb @3573
    _ZNSt6vectorIN6Hinage14PhysicalEntity17TileCollisionDataESaIS2_EE13_M_insert_auxEN9__gnu_cxx17__normal_iteratorIPS2_S4_EERKS2_ @3574
    _ZNSt6vectorIN6Hinage14PhysicalEntity17TileCollisionDataESaIS2_EE3endEv @3575
    _ZNSt6vectorIN6Hinage14PhysicalEntity17TileCollisionDataESaIS2_EE5beginEv @3576
    _ZNSt6vectorIN6Hinage14PhysicalEntity17TileCollisionDataESaIS2_EE5clearEv @3577
    _ZNSt6vectorIN6Hinage14PhysicalEntity17TileCollisionDataESaIS2_EE5eraseEN9__gnu_cxx17__normal_iteratorIPS2_S4_EES8_ @3578
    _ZNSt6vectorIN6Hinage14PhysicalEntity17TileCollisionDataESaIS2_EE9push_backERKS2_ @3579
    _ZNSt6vectorIN6Hinage14PhysicalEntity17TileCollisionDataESaIS2_EEC1ERKS3_ @3580
    _ZNSt6vectorIN6Hinage14PhysicalEntity17TileCollisionDataESaIS2_EED1Ev @3581
    _ZNSt6vectorIN6Hinage14PhysicalEntity17TileCollisionDataESaIS2_EEixEj @3582
    _ZNSt6vectorIN6Hinage8Renderer12RenderObjectESaIS2_EE13_M_insert_auxEN9__gnu_cxx17__normal_iteratorIPS2_S4_EERKS2_ @3583
    _ZNSt6vectorIN6Hinage8Renderer12RenderObjectESaIS2_EE20_M_allocate_and_copyIN9__gnu_cxx17__normal_iteratorIPKS2_S4_EEEEPS2_jT_SC_ @3584
    _ZNSt6vectorIN6Hinage8Renderer12RenderObjectESaIS2_EE3endEv @3585
    _ZNSt6vectorIN6Hinage8Renderer12RenderObjectESaIS2_EE5beginEv @3586
    _ZNSt6vectorIN6Hinage8Renderer12RenderObjectESaIS2_EE5clearEv @3587
    _ZNSt6vectorIN6Hinage8Renderer12RenderObjectESaIS2_EE5eraseEN9__gnu_cxx17__normal_iteratorIPS2_S4_EES8_ @3588
    _ZNSt6vectorIN6Hinage8Renderer12RenderObjectESaIS2_EE9push_backERKS2_ @3589
    _ZNSt6vectorIN6Hinage8Renderer12RenderObjectESaIS2_EEC1ERKS3_ @3590
    _ZNSt6vectorIN6Hinage8Renderer12RenderObjectESaIS2_EEC1ERKS4_ @3591
    _ZNSt6vectorIN6Hinage8Renderer12RenderObjectESaIS2_EED1Ev @3592
    _ZNSt6vectorIN6Hinage8Renderer12RenderObjectESaIS2_EEaSERKS4_ @3593
    _ZNSt6vectorIN6Hinage8Renderer12RenderObjectESaIS2_EEixEj @3594
    _ZNSt6vectorIN6Hinage8Renderer6VertexESaIS2_EE13_M_insert_auxEN9__gnu_cxx17__normal_iteratorIPS2_S4_EERKS2_ @3595
    _ZNSt6vectorIN6Hinage8Renderer6VertexESaIS2_EE20_M_allocate_and_copyIN9__gnu_cxx17__normal_iteratorIPKS2_S4_EEEEPS2_jT_SC_ @3596
    _ZNSt6vectorIN6Hinage8Renderer6VertexESaIS2_EE3endEv @3597
    _ZNSt6vectorIN6Hinage8Renderer6VertexESaIS2_EE5beginEv @3598
    _ZNSt6vectorIN6Hinage8Renderer6VertexESaIS2_EE9push_backERKS2_ @3599
    _ZNSt6vectorIN6Hinage8Renderer6VertexESaIS2_EEC1ERKS3_ @3600
    _ZNSt6vectorIN6Hinage8Renderer6VertexESaIS2_EEC1ERKS4_ @3601
    _ZNSt6vectorIN6Hinage8Renderer6VertexESaIS2_EED1Ev @3602
    _ZNSt6vectorIN6Hinage8Renderer6VertexESaIS2_EEaSERKS4_ @3603
    _ZNSt6vectorIN6Hinage8Renderer6VertexESaIS2_EEixEj @3604
    _ZNSt6vectorIN7luabind5valueESaIS1_EED2Ev @3605
    _ZNSt6vectorIPKSt9type_infoSaIS2_EE13_M_insert_auxEN9__gnu_cxx17__normal_iteratorIPS2_S4_EERKS2_ @3606
    _ZNSt6vectorIPKSt9type_infoSaIS2_EE20_M_allocate_and_copyIPS2_EES6_jT_S7_ @3607
    _ZNSt6vectorIPKSt9type_infoSaIS2_EE3endEv @3608
    _ZNSt6vectorIPKSt9type_infoSaIS2_EE5beginEv @3609
    _ZNSt6vectorIPKSt9type_infoSaIS2_EE7reserveEj @3610
    _ZNSt6vectorIPKSt9type_infoSaIS2_EE9push_backERKS2_ @3611
    _ZNSt6vectorIPKSt9type_infoSaIS2_EEC1ERKS3_ @3612
    _ZNSt6vectorIPKSt9type_infoSaIS2_EED1Ev @3613
    _ZNSt6vectorIPN6Hinage14PhysicalEntityESaIS2_EE13_M_insert_auxEN9__gnu_cxx17__normal_iteratorIPS2_S4_EERKS2_ @3614
    _ZNSt6vectorIPN6Hinage14PhysicalEntityESaIS2_EE15_M_range_insertIN9__gnu_cxx17__normal_iteratorIPS2_S4_EEEEvS9_T_SA_St20forward_iterator_tag @3615
    _ZNSt6vectorIPN6Hinage14PhysicalEntityESaIS2_EE18_M_insert_dispatchIN9__gnu_cxx17__normal_iteratorIPS2_S4_EEEEvS9_T_SA_12__false_type @3616
    _ZNSt6vectorIPN6Hinage14PhysicalEntityESaIS2_EE20_M_allocate_and_copyIN9__gnu_cxx17__normal_iteratorIPKS2_S4_EEEEPS2_jT_SC_ @3617
    _ZNSt6vectorIPN6Hinage14PhysicalEntityESaIS2_EE3endEv @3618
    _ZNSt6vectorIPN6Hinage14PhysicalEntityESaIS2_EE5beginEv @3619
    _ZNSt6vectorIPN6Hinage14PhysicalEntityESaIS2_EE5eraseEN9__gnu_cxx17__normal_iteratorIPS2_S4_EE @3620
    _ZNSt6vectorIPN6Hinage14PhysicalEntityESaIS2_EE6insertIN9__gnu_cxx17__normal_iteratorIPS2_S4_EEEEvS9_T_SA_ @3621
    _ZNSt6vectorIPN6Hinage14PhysicalEntityESaIS2_EE9push_backERKS2_ @3622
    _ZNSt6vectorIPN6Hinage14PhysicalEntityESaIS2_EEC1ERKS3_ @3623
    _ZNSt6vectorIPN6Hinage14PhysicalEntityESaIS2_EEC1ERKS4_ @3624
    _ZNSt6vectorIPN6Hinage14PhysicalEntityESaIS2_EED1Ev @3625
    _ZNSt6vectorIPN6Hinage14PhysicalEntityESaIS2_EEaSERKS4_ @3626
    _ZNSt6vectorIPN6Hinage14PhysicalEntityESaIS2_EEixEj @3627
    _ZNSt6vectorIPN6Hinage15ResourceManagerINS0_4FontEE8ResourceESaIS5_EE13_M_insert_auxEN9__gnu_cxx17__normal_iteratorIPS5_S7_EERKS5_ @3628
    _ZNSt6vectorIPN6Hinage15ResourceManagerINS0_4FontEE8ResourceESaIS5_EE3endEv @3629
    _ZNSt6vectorIPN6Hinage15ResourceManagerINS0_4FontEE8ResourceESaIS5_EE5beginEv @3630
    _ZNSt6vectorIPN6Hinage15ResourceManagerINS0_4FontEE8ResourceESaIS5_EE9push_backERKS5_ @3631
    _ZNSt6vectorIPN6Hinage15ResourceManagerINS0_4FontEE8ResourceESaIS5_EEC1ERKS6_ @3632
    _ZNSt6vectorIPN6Hinage15ResourceManagerINS0_4FontEE8ResourceESaIS5_EED1Ev @3633
    _ZNSt6vectorIPN6Hinage15ResourceManagerINS0_4FontEE8ResourceESaIS5_EEixEj @3634
    _ZNSt6vectorIPN6Hinage15ResourceManagerINS0_6SpriteEE8ResourceESaIS5_EE13_M_insert_auxEN9__gnu_cxx17__normal_iteratorIPS5_S7_EERKS5_ @3635
    _ZNSt6vectorIPN6Hinage15ResourceManagerINS0_6SpriteEE8ResourceESaIS5_EE3endEv @3636
    _ZNSt6vectorIPN6Hinage15ResourceManagerINS0_6SpriteEE8ResourceESaIS5_EE5beginEv @3637
    _ZNSt6vectorIPN6Hinage15ResourceManagerINS0_6SpriteEE8ResourceESaIS5_EE9push_backERKS5_ @3638
    _ZNSt6vectorIPN6Hinage15ResourceManagerINS0_6SpriteEE8ResourceESaIS5_EEC1ERKS6_ @3639
    _ZNSt6vectorIPN6Hinage15ResourceManagerINS0_6SpriteEE8ResourceESaIS5_EED1Ev @3640
    _ZNSt6vectorIPN6Hinage15ResourceManagerINS0_6SpriteEE8ResourceESaIS5_EEixEj @3641
    _ZNSt6vectorIPN6Hinage15ResourceManagerINS0_7TextureEE8ResourceESaIS5_EE13_M_insert_auxEN9__gnu_cxx17__normal_iteratorIPS5_S7_EERKS5_ @3642
    _ZNSt6vectorIPN6Hinage15ResourceManagerINS0_7TextureEE8ResourceESaIS5_EE3endEv @3643
    _ZNSt6vectorIPN6Hinage15ResourceManagerINS0_7TextureEE8ResourceESaIS5_EE5beginEv @3644
    _ZNSt6vectorIPN6Hinage15ResourceManagerINS0_7TextureEE8ResourceESaIS5_EE9push_backERKS5_ @3645
    _ZNSt6vectorIPN6Hinage15ResourceManagerINS0_7TextureEE8ResourceESaIS5_EEC1ERKS6_ @3646
    _ZNSt6vectorIPN6Hinage15ResourceManagerINS0_7TextureEE8ResourceESaIS5_EED1Ev @3647
    _ZNSt6vectorIPN6Hinage15ResourceManagerINS0_7TextureEE8ResourceESaIS5_EEixEj @3648
    _ZNSt6vectorIPN6Hinage15ResourceManagerINS0_7TilesetEE8ResourceESaIS5_EE13_M_insert_auxEN9__gnu_cxx17__normal_iteratorIPS5_S7_EERKS5_ @3649
    _ZNSt6vectorIPN6Hinage15ResourceManagerINS0_7TilesetEE8ResourceESaIS5_EE3endEv @3650
    _ZNSt6vectorIPN6Hinage15ResourceManagerINS0_7TilesetEE8ResourceESaIS5_EE5beginEv @3651
    _ZNSt6vectorIPN6Hinage15ResourceManagerINS0_7TilesetEE8ResourceESaIS5_EE9push_backERKS5_ @3652
    _ZNSt6vectorIPN6Hinage15ResourceManagerINS0_7TilesetEE8ResourceESaIS5_EEC1ERKS6_ @3653
    _ZNSt6vectorIPN6Hinage15ResourceManagerINS0_7TilesetEE8ResourceESaIS5_EED1Ev @3654
    _ZNSt6vectorIPN6Hinage15ResourceManagerINS0_7TilesetEE8ResourceESaIS5_EEixEj @3655
    _ZNSt6vectorIPN6Hinage15SpriteAnimation5FrameESaIS3_EE13_M_insert_auxEN9__gnu_cxx17__normal_iteratorIPS3_S5_EERKS3_ @3656
    _ZNSt6vectorIPN6Hinage15SpriteAnimation5FrameESaIS3_EE20_M_allocate_and_copyIN9__gnu_cxx17__normal_iteratorIPKS3_S5_EEEEPS3_jT_SD_ @3657
    _ZNSt6vectorIPN6Hinage15SpriteAnimation5FrameESaIS3_EE3endEv @3658
    _ZNSt6vectorIPN6Hinage15SpriteAnimation5FrameESaIS3_EE5beginEv @3659
    _ZNSt6vectorIPN6Hinage15SpriteAnimation5FrameESaIS3_EE9push_backERKS3_ @3660
    _ZNSt6vectorIPN6Hinage15SpriteAnimation5FrameESaIS3_EEC1ERKS4_ @3661
    _ZNSt6vectorIPN6Hinage15SpriteAnimation5FrameESaIS3_EED1Ev @3662
    _ZNSt6vectorIPN6Hinage15SpriteAnimation5FrameESaIS3_EEaSERKS5_ @3663
    _ZNSt6vectorIPN6Hinage15SpriteAnimation5FrameESaIS3_EEixEj @3664
    _ZNSt6vectorIPN6Hinage15SpriteAnimationESaIS2_EE13_M_insert_auxEN9__gnu_cxx17__normal_iteratorIPS2_S4_EERKS2_ @3665
    _ZNSt6vectorIPN6Hinage15SpriteAnimationESaIS2_EE3endEv @3666
    _ZNSt6vectorIPN6Hinage15SpriteAnimationESaIS2_EE5beginEv @3667
    _ZNSt6vectorIPN6Hinage15SpriteAnimationESaIS2_EE5eraseEN9__gnu_cxx17__normal_iteratorIPS2_S4_EE @3668
    _ZNSt6vectorIPN6Hinage15SpriteAnimationESaIS2_EE9push_backERKS2_ @3669
    _ZNSt6vectorIPN6Hinage15SpriteAnimationESaIS2_EEC1ERKS3_ @3670
    _ZNSt6vectorIPN6Hinage15SpriteAnimationESaIS2_EEC1ERKS4_ @3671
    _ZNSt6vectorIPN6Hinage15SpriteAnimationESaIS2_EED1Ev @3672
    _ZNSt6vectorIPN6Hinage15SpriteAnimationESaIS2_EEixEj @3673
    _ZNSt6vectorIPN6Hinage6UIItemESaIS2_EE5beginEv @3674
    _ZNSt6vectorIPN6Hinage6UIItemESaIS2_EEC1ERKS3_ @3675
    _ZNSt6vectorIPN6Hinage6UIItemESaIS2_EED1Ev @3676
    _ZNSt6vectorIPN6Hinage6UIItemESaIS2_EEixEj @3677
    _ZNSt6vectorIPN6Hinage9GameStateESaIS2_EE13_M_insert_auxEN9__gnu_cxx17__normal_iteratorIPS2_S4_EERKS2_ @3678
    _ZNSt6vectorIPN6Hinage9GameStateESaIS2_EE3endEv @3679
    _ZNSt6vectorIPN6Hinage9GameStateESaIS2_EE4backEv @3680
    _ZNSt6vectorIPN6Hinage9GameStateESaIS2_EE5beginEv @3681
    _ZNSt6vectorIPN6Hinage9GameStateESaIS2_EE5clearEv @3682
    _ZNSt6vectorIPN6Hinage9GameStateESaIS2_EE5eraseEN9__gnu_cxx17__normal_iteratorIPS2_S4_EES8_ @3683
    _ZNSt6vectorIPN6Hinage9GameStateESaIS2_EE8pop_backEv @3684
    _ZNSt6vectorIPN6Hinage9GameStateESaIS2_EE9push_backERKS2_ @3685
    _ZNSt6vectorIPN6Hinage9GameStateESaIS2_EEC1ERKS3_ @3686
    _ZNSt6vectorIPN6Hinage9GameStateESaIS2_EED1Ev @3687
    _ZNSt6vectorIPN6Hinage9GameStateESaIS2_EEixEj @3688
    _ZNSt6vectorIS_IN6Hinage8Renderer12RenderObjectESaIS2_EESaIS4_EE13_M_insert_auxEN9__gnu_cxx17__normal_iteratorIPS4_S6_EERKS4_ @3689
    _ZNSt6vectorIS_IN6Hinage8Renderer12RenderObjectESaIS2_EESaIS4_EE3endEv @3690
    _ZNSt6vectorIS_IN6Hinage8Renderer12RenderObjectESaIS2_EESaIS4_EE5beginEv @3691
    _ZNSt6vectorIS_IN6Hinage8Renderer12RenderObjectESaIS2_EESaIS4_EE9push_backERKS4_ @3692
    _ZNSt6vectorIS_IN6Hinage8Renderer12RenderObjectESaIS2_EESaIS4_EEC1ERKS5_ @3693
    _ZNSt6vectorIS_IN6Hinage8Renderer12RenderObjectESaIS2_EESaIS4_EED1Ev @3694
    _ZNSt6vectorIS_IN6Hinage8Renderer12RenderObjectESaIS2_EESaIS4_EEixEj @3695
    _ZNSt6vectorIS_IcSaIcEESaIS1_EE13_M_insert_auxEN9__gnu_cxx17__normal_iteratorIPS1_S3_EERKS1_ @3696
    _ZNSt6vectorIS_IcSaIcEESaIS1_EE3endEv @3697
    _ZNSt6vectorIS_IcSaIcEESaIS1_EE5beginEv @3698
    _ZNSt6vectorIS_IcSaIcEESaIS1_EE9push_backERKS1_ @3699
    _ZNSt6vectorIS_IcSaIcEESaIS1_EEC1ERKS2_ @3700
    _ZNSt6vectorIS_IcSaIcEESaIS1_EED1Ev @3701
    _ZNSt6vectorIS_IcSaIcEESaIS1_EEixEj @3702
    _ZNSt6vectorISsSaISsEE13_M_insert_auxEN9__gnu_cxx17__normal_iteratorIPSsS1_EERKSs @3703
    _ZNSt6vectorISsSaISsEE3endEv @3704
    _ZNSt6vectorISsSaISsEE5beginEv @3705
    _ZNSt6vectorISsSaISsEE5clearEv @3706
    _ZNSt6vectorISsSaISsEE5eraseEN9__gnu_cxx17__normal_iteratorIPSsS1_EES5_ @3707
    _ZNSt6vectorISsSaISsEE9push_backERKSs @3708
    _ZNSt6vectorISsSaISsEEC1ERKS0_ @3709
    _ZNSt6vectorISsSaISsEED1Ev @3710
    _ZNSt6vectorISsSaISsEEixEj @3711
    _ZNSt6vectorIcSaIcEE13_M_insert_auxEN9__gnu_cxx17__normal_iteratorIPcS1_EERKc @3712
    _ZNSt6vectorIcSaIcEE20_M_allocate_and_copyIN9__gnu_cxx17__normal_iteratorIPKcS1_EEEEPcjT_S9_ @3713
    _ZNSt6vectorIcSaIcEE3endEv @3714
    _ZNSt6vectorIcSaIcEE5beginEv @3715
    _ZNSt6vectorIcSaIcEE9push_backERKc @3716
    _ZNSt6vectorIcSaIcEEC1ERKS0_ @3717
    _ZNSt6vectorIcSaIcEEC1ERKS1_ @3718
    _ZNSt6vectorIcSaIcEED1Ev @3719
    _ZNSt6vectorIcSaIcEEaSERKS1_ @3720
    _ZNSt6vectorIcSaIcEEixEj @3721
    _ZNSt8_Rb_treeISsSt4pairIKSsP10_Mix_MusicESt10_Select1stIS4_ESt4lessISsESaIS4_EE11_M_get_nodeEv @3722
    _ZNSt8_Rb_treeISsSt4pairIKSsP10_Mix_MusicESt10_Select1stIS4_ESt4lessISsESaIS4_EE11_M_leftmostEv @3723
    _ZNSt8_Rb_treeISsSt4pairIKSsP10_Mix_MusicESt10_Select1stIS4_ESt4lessISsESaIS4_EE11_M_put_nodeEPSt13_Rb_tree_nodeIS4_E @3724
    _ZNSt8_Rb_treeISsSt4pairIKSsP10_Mix_MusicESt10_Select1stIS4_ESt4lessISsESaIS4_EE11lower_boundERS1_ @3725
    _ZNSt8_Rb_treeISsSt4pairIKSsP10_Mix_MusicESt10_Select1stIS4_ESt4lessISsESaIS4_EE12_M_rightmostEv @3726
    _ZNSt8_Rb_treeISsSt4pairIKSsP10_Mix_MusicESt10_Select1stIS4_ESt4lessISsESaIS4_EE12destroy_nodeEPSt13_Rb_tree_nodeIS4_E @3727
    _ZNSt8_Rb_treeISsSt4pairIKSsP10_Mix_MusicESt10_Select1stIS4_ESt4lessISsESaIS4_EE13_Rb_tree_implIS8_Lb0EEC1ERKSaISt13_Rb_tree_nodeIS4_EERKS8_ @3728
    _ZNSt8_Rb_treeISsSt4pairIKSsP10_Mix_MusicESt10_Select1stIS4_ESt4lessISsESaIS4_EE13_Rb_tree_implIS8_Lb0EED1Ev @3729
    _ZNSt8_Rb_treeISsSt4pairIKSsP10_Mix_MusicESt10_Select1stIS4_ESt4lessISsESaIS4_EE13insert_uniqueERKS4_ @3730
    _ZNSt8_Rb_treeISsSt4pairIKSsP10_Mix_MusicESt10_Select1stIS4_ESt4lessISsESaIS4_EE13insert_uniqueESt17_Rb_tree_iteratorIS4_ERKS4_ @3731
    _ZNSt8_Rb_treeISsSt4pairIKSsP10_Mix_MusicESt10_Select1stIS4_ESt4lessISsESaIS4_EE14_M_create_nodeERKS4_ @3732
    _ZNSt8_Rb_treeISsSt4pairIKSsP10_Mix_MusicESt10_Select1stIS4_ESt4lessISsESaIS4_EE3endEv @3733
    _ZNSt8_Rb_treeISsSt4pairIKSsP10_Mix_MusicESt10_Select1stIS4_ESt4lessISsESaIS4_EE5beginEv @3734
    _ZNSt8_Rb_treeISsSt4pairIKSsP10_Mix_MusicESt10_Select1stIS4_ESt4lessISsESaIS4_EE6_M_endEv @3735
    _ZNSt8_Rb_treeISsSt4pairIKSsP10_Mix_MusicESt10_Select1stIS4_ESt4lessISsESaIS4_EE6_S_keyEPKSt13_Rb_tree_nodeIS4_E @3736
    _ZNSt8_Rb_treeISsSt4pairIKSsP10_Mix_MusicESt10_Select1stIS4_ESt4lessISsESaIS4_EE6_S_keyEPKSt18_Rb_tree_node_base @3737
    _ZNSt8_Rb_treeISsSt4pairIKSsP10_Mix_MusicESt10_Select1stIS4_ESt4lessISsESaIS4_EE7_S_leftEPSt18_Rb_tree_node_base @3738
    _ZNSt8_Rb_treeISsSt4pairIKSsP10_Mix_MusicESt10_Select1stIS4_ESt4lessISsESaIS4_EE8_M_beginEv @3739
    _ZNSt8_Rb_treeISsSt4pairIKSsP10_Mix_MusicESt10_Select1stIS4_ESt4lessISsESaIS4_EE8_M_eraseEPSt13_Rb_tree_nodeIS4_E @3740
    _ZNSt8_Rb_treeISsSt4pairIKSsP10_Mix_MusicESt10_Select1stIS4_ESt4lessISsESaIS4_EE8_S_rightEPSt18_Rb_tree_node_base @3741
    _ZNSt8_Rb_treeISsSt4pairIKSsP10_Mix_MusicESt10_Select1stIS4_ESt4lessISsESaIS4_EE8_S_valueEPKSt13_Rb_tree_nodeIS4_E @3742
    _ZNSt8_Rb_treeISsSt4pairIKSsP10_Mix_MusicESt10_Select1stIS4_ESt4lessISsESaIS4_EE8_S_valueEPKSt18_Rb_tree_node_base @3743
    _ZNSt8_Rb_treeISsSt4pairIKSsP10_Mix_MusicESt10_Select1stIS4_ESt4lessISsESaIS4_EE9_M_insertEPSt18_Rb_tree_node_baseSC_RKS4_ @3744
    _ZNSt8_Rb_treeISsSt4pairIKSsP10_Mix_MusicESt10_Select1stIS4_ESt4lessISsESaIS4_EEC1ERKS8_RKS9_ @3745
    _ZNSt8_Rb_treeISsSt4pairIKSsP10_Mix_MusicESt10_Select1stIS4_ESt4lessISsESaIS4_EED1Ev @3746
    _ZNSt8_Rb_treeISsSt4pairIKSsP9Mix_ChunkESt10_Select1stIS4_ESt4lessISsESaIS4_EE11_M_get_nodeEv @3747
    _ZNSt8_Rb_treeISsSt4pairIKSsP9Mix_ChunkESt10_Select1stIS4_ESt4lessISsESaIS4_EE11_M_leftmostEv @3748
    _ZNSt8_Rb_treeISsSt4pairIKSsP9Mix_ChunkESt10_Select1stIS4_ESt4lessISsESaIS4_EE11_M_put_nodeEPSt13_Rb_tree_nodeIS4_E @3749
    _ZNSt8_Rb_treeISsSt4pairIKSsP9Mix_ChunkESt10_Select1stIS4_ESt4lessISsESaIS4_EE11lower_boundERS1_ @3750
    _ZNSt8_Rb_treeISsSt4pairIKSsP9Mix_ChunkESt10_Select1stIS4_ESt4lessISsESaIS4_EE12_M_rightmostEv @3751
    _ZNSt8_Rb_treeISsSt4pairIKSsP9Mix_ChunkESt10_Select1stIS4_ESt4lessISsESaIS4_EE12destroy_nodeEPSt13_Rb_tree_nodeIS4_E @3752
    _ZNSt8_Rb_treeISsSt4pairIKSsP9Mix_ChunkESt10_Select1stIS4_ESt4lessISsESaIS4_EE13_Rb_tree_implIS8_Lb0EEC1ERKSaISt13_Rb_tree_nodeIS4_EERKS8_ @3753
    _ZNSt8_Rb_treeISsSt4pairIKSsP9Mix_ChunkESt10_Select1stIS4_ESt4lessISsESaIS4_EE13_Rb_tree_implIS8_Lb0EED1Ev @3754
    _ZNSt8_Rb_treeISsSt4pairIKSsP9Mix_ChunkESt10_Select1stIS4_ESt4lessISsESaIS4_EE13insert_uniqueERKS4_ @3755
    _ZNSt8_Rb_treeISsSt4pairIKSsP9Mix_ChunkESt10_Select1stIS4_ESt4lessISsESaIS4_EE13insert_uniqueESt17_Rb_tree_iteratorIS4_ERKS4_ @3756
    _ZNSt8_Rb_treeISsSt4pairIKSsP9Mix_ChunkESt10_Select1stIS4_ESt4lessISsESaIS4_EE14_M_create_nodeERKS4_ @3757
    _ZNSt8_Rb_treeISsSt4pairIKSsP9Mix_ChunkESt10_Select1stIS4_ESt4lessISsESaIS4_EE3endEv @3758
    _ZNSt8_Rb_treeISsSt4pairIKSsP9Mix_ChunkESt10_Select1stIS4_ESt4lessISsESaIS4_EE5beginEv @3759
    _ZNSt8_Rb_treeISsSt4pairIKSsP9Mix_ChunkESt10_Select1stIS4_ESt4lessISsESaIS4_EE6_M_endEv @3760
    _ZNSt8_Rb_treeISsSt4pairIKSsP9Mix_ChunkESt10_Select1stIS4_ESt4lessISsESaIS4_EE6_S_keyEPKSt13_Rb_tree_nodeIS4_E @3761
    _ZNSt8_Rb_treeISsSt4pairIKSsP9Mix_ChunkESt10_Select1stIS4_ESt4lessISsESaIS4_EE6_S_keyEPKSt18_Rb_tree_node_base @3762
    _ZNSt8_Rb_treeISsSt4pairIKSsP9Mix_ChunkESt10_Select1stIS4_ESt4lessISsESaIS4_EE7_S_leftEPSt18_Rb_tree_node_base @3763
    _ZNSt8_Rb_treeISsSt4pairIKSsP9Mix_ChunkESt10_Select1stIS4_ESt4lessISsESaIS4_EE8_M_beginEv @3764
    _ZNSt8_Rb_treeISsSt4pairIKSsP9Mix_ChunkESt10_Select1stIS4_ESt4lessISsESaIS4_EE8_M_eraseEPSt13_Rb_tree_nodeIS4_E @3765
    _ZNSt8_Rb_treeISsSt4pairIKSsP9Mix_ChunkESt10_Select1stIS4_ESt4lessISsESaIS4_EE8_S_rightEPSt18_Rb_tree_node_base @3766
    _ZNSt8_Rb_treeISsSt4pairIKSsP9Mix_ChunkESt10_Select1stIS4_ESt4lessISsESaIS4_EE8_S_valueEPKSt13_Rb_tree_nodeIS4_E @3767
    _ZNSt8_Rb_treeISsSt4pairIKSsP9Mix_ChunkESt10_Select1stIS4_ESt4lessISsESaIS4_EE8_S_valueEPKSt18_Rb_tree_node_base @3768
    _ZNSt8_Rb_treeISsSt4pairIKSsP9Mix_ChunkESt10_Select1stIS4_ESt4lessISsESaIS4_EE9_M_insertEPSt18_Rb_tree_node_baseSC_RKS4_ @3769
    _ZNSt8_Rb_treeISsSt4pairIKSsP9Mix_ChunkESt10_Select1stIS4_ESt4lessISsESaIS4_EEC1ERKS8_RKS9_ @3770
    _ZNSt8_Rb_treeISsSt4pairIKSsP9Mix_ChunkESt10_Select1stIS4_ESt4lessISsESaIS4_EED1Ev @3771
    _ZNSt8_Rb_treeISsSt4pairIKSsPFPN6Hinage14PhysicalEntityESsPNS2_4GameEEESt10_Select1stIS9_ESt4lessISsESaIS9_EE10_S_maximumEPSt18_Rb_tree_node_base @3772
    _ZNSt8_Rb_treeISsSt4pairIKSsPFPN6Hinage14PhysicalEntityESsPNS2_4GameEEESt10_Select1stIS9_ESt4lessISsESaIS9_EE10_S_minimumEPSt18_Rb_tree_node_base @3773
    _ZNSt8_Rb_treeISsSt4pairIKSsPFPN6Hinage14PhysicalEntityESsPNS2_4GameEEESt10_Select1stIS9_ESt4lessISsESaIS9_EE11_M_get_nodeEv @3774
    _ZNSt8_Rb_treeISsSt4pairIKSsPFPN6Hinage14PhysicalEntityESsPNS2_4GameEEESt10_Select1stIS9_ESt4lessISsESaIS9_EE11_M_leftmostEv @3775
    _ZNSt8_Rb_treeISsSt4pairIKSsPFPN6Hinage14PhysicalEntityESsPNS2_4GameEEESt10_Select1stIS9_ESt4lessISsESaIS9_EE11_M_put_nodeEPSt13_Rb_tree_nodeIS9_E @3776
    _ZNSt8_Rb_treeISsSt4pairIKSsPFPN6Hinage14PhysicalEntityESsPNS2_4GameEEESt10_Select1stIS9_ESt4lessISsESaIS9_EE12_M_rightmostEv @3777
    _ZNSt8_Rb_treeISsSt4pairIKSsPFPN6Hinage14PhysicalEntityESsPNS2_4GameEEESt10_Select1stIS9_ESt4lessISsESaIS9_EE12destroy_nodeEPSt13_Rb_tree_nodeIS9_E @3778
    _ZNSt8_Rb_treeISsSt4pairIKSsPFPN6Hinage14PhysicalEntityESsPNS2_4GameEEESt10_Select1stIS9_ESt4lessISsESaIS9_EE13_M_clone_nodeEPKSt13_Rb_tree_nodeIS9_E @3779
    _ZNSt8_Rb_treeISsSt4pairIKSsPFPN6Hinage14PhysicalEntityESsPNS2_4GameEEESt10_Select1stIS9_ESt4lessISsESaIS9_EE13_Rb_tree_implISD_Lb0EEC1ERKSaISt13_Rb_tree_nodeIS9_EERKSD_ @3780
    _ZNSt8_Rb_treeISsSt4pairIKSsPFPN6Hinage14PhysicalEntityESsPNS2_4GameEEESt10_Select1stIS9_ESt4lessISsESaIS9_EE13_Rb_tree_implISD_Lb0EED1Ev @3781
    _ZNSt8_Rb_treeISsSt4pairIKSsPFPN6Hinage14PhysicalEntityESsPNS2_4GameEEESt10_Select1stIS9_ESt4lessISsESaIS9_EE14_M_create_nodeERKS9_ @3782
    _ZNSt8_Rb_treeISsSt4pairIKSsPFPN6Hinage14PhysicalEntityESsPNS2_4GameEEESt10_Select1stIS9_ESt4lessISsESaIS9_EE5clearEv @3783
    _ZNSt8_Rb_treeISsSt4pairIKSsPFPN6Hinage14PhysicalEntityESsPNS2_4GameEEESt10_Select1stIS9_ESt4lessISsESaIS9_EE6_M_endEv @3784
    _ZNSt8_Rb_treeISsSt4pairIKSsPFPN6Hinage14PhysicalEntityESsPNS2_4GameEEESt10_Select1stIS9_ESt4lessISsESaIS9_EE7_M_copyEPKSt13_Rb_tree_nodeIS9_EPSH_ @3785
    _ZNSt8_Rb_treeISsSt4pairIKSsPFPN6Hinage14PhysicalEntityESsPNS2_4GameEEESt10_Select1stIS9_ESt4lessISsESaIS9_EE7_M_rootEv @3786
    _ZNSt8_Rb_treeISsSt4pairIKSsPFPN6Hinage14PhysicalEntityESsPNS2_4GameEEESt10_Select1stIS9_ESt4lessISsESaIS9_EE7_S_leftEPKSt18_Rb_tree_node_base @3787
    _ZNSt8_Rb_treeISsSt4pairIKSsPFPN6Hinage14PhysicalEntityESsPNS2_4GameEEESt10_Select1stIS9_ESt4lessISsESaIS9_EE7_S_leftEPSt18_Rb_tree_node_base @3788
    _ZNSt8_Rb_treeISsSt4pairIKSsPFPN6Hinage14PhysicalEntityESsPNS2_4GameEEESt10_Select1stIS9_ESt4lessISsESaIS9_EE8_M_beginEv @3789
    _ZNSt8_Rb_treeISsSt4pairIKSsPFPN6Hinage14PhysicalEntityESsPNS2_4GameEEESt10_Select1stIS9_ESt4lessISsESaIS9_EE8_M_eraseEPSt13_Rb_tree_nodeIS9_E @3790
    _ZNSt8_Rb_treeISsSt4pairIKSsPFPN6Hinage14PhysicalEntityESsPNS2_4GameEEESt10_Select1stIS9_ESt4lessISsESaIS9_EE8_S_rightEPKSt18_Rb_tree_node_base @3791
    _ZNSt8_Rb_treeISsSt4pairIKSsPFPN6Hinage14PhysicalEntityESsPNS2_4GameEEESt10_Select1stIS9_ESt4lessISsESaIS9_EE8_S_rightEPSt18_Rb_tree_node_base @3792
    _ZNSt8_Rb_treeISsSt4pairIKSsPFPN6Hinage14PhysicalEntityESsPNS2_4GameEEESt10_Select1stIS9_ESt4lessISsESaIS9_EEC1ERKSD_RKSE_ @3793
    _ZNSt8_Rb_treeISsSt4pairIKSsPFPN6Hinage14PhysicalEntityESsPNS2_4GameEEESt10_Select1stIS9_ESt4lessISsESaIS9_EED1Ev @3794
    _ZNSt8_Rb_treeISsSt4pairIKSsPFPN6Hinage14PhysicalEntityESsPNS2_4GameEEESt10_Select1stIS9_ESt4lessISsESaIS9_EEaSERKSF_ @3795
    _ZNSt8_Rb_treeISsSt4pairIKSsSsESt10_Select1stIS2_ESt4lessISsESaIS2_EE11_M_get_nodeEv @3796
    _ZNSt8_Rb_treeISsSt4pairIKSsSsESt10_Select1stIS2_ESt4lessISsESaIS2_EE11_M_leftmostEv @3797
    _ZNSt8_Rb_treeISsSt4pairIKSsSsESt10_Select1stIS2_ESt4lessISsESaIS2_EE11_M_put_nodeEPSt13_Rb_tree_nodeIS2_E @3798
    _ZNSt8_Rb_treeISsSt4pairIKSsSsESt10_Select1stIS2_ESt4lessISsESaIS2_EE11lower_boundERS1_ @3799
    _ZNSt8_Rb_treeISsSt4pairIKSsSsESt10_Select1stIS2_ESt4lessISsESaIS2_EE12_M_rightmostEv @3800
    _ZNSt8_Rb_treeISsSt4pairIKSsSsESt10_Select1stIS2_ESt4lessISsESaIS2_EE12destroy_nodeEPSt13_Rb_tree_nodeIS2_E @3801
    _ZNSt8_Rb_treeISsSt4pairIKSsSsESt10_Select1stIS2_ESt4lessISsESaIS2_EE13_Rb_tree_implIS6_Lb0EEC1ERKSaISt13_Rb_tree_nodeIS2_EERKS6_ @3802
    _ZNSt8_Rb_treeISsSt4pairIKSsSsESt10_Select1stIS2_ESt4lessISsESaIS2_EE13_Rb_tree_implIS6_Lb0EED1Ev @3803
    _ZNSt8_Rb_treeISsSt4pairIKSsSsESt10_Select1stIS2_ESt4lessISsESaIS2_EE13insert_uniqueERKS2_ @3804
    _ZNSt8_Rb_treeISsSt4pairIKSsSsESt10_Select1stIS2_ESt4lessISsESaIS2_EE13insert_uniqueESt17_Rb_tree_iteratorIS2_ERKS2_ @3805
    _ZNSt8_Rb_treeISsSt4pairIKSsSsESt10_Select1stIS2_ESt4lessISsESaIS2_EE14_M_create_nodeERKS2_ @3806
    _ZNSt8_Rb_treeISsSt4pairIKSsSsESt10_Select1stIS2_ESt4lessISsESaIS2_EE3endEv @3807
    _ZNSt8_Rb_treeISsSt4pairIKSsSsESt10_Select1stIS2_ESt4lessISsESaIS2_EE4findERS1_ @3808
    _ZNSt8_Rb_treeISsSt4pairIKSsSsESt10_Select1stIS2_ESt4lessISsESaIS2_EE5beginEv @3809
    _ZNSt8_Rb_treeISsSt4pairIKSsSsESt10_Select1stIS2_ESt4lessISsESaIS2_EE6_M_endEv @3810
    _ZNSt8_Rb_treeISsSt4pairIKSsSsESt10_Select1stIS2_ESt4lessISsESaIS2_EE6_S_keyEPKSt13_Rb_tree_nodeIS2_E @3811
    _ZNSt8_Rb_treeISsSt4pairIKSsSsESt10_Select1stIS2_ESt4lessISsESaIS2_EE6_S_keyEPKSt18_Rb_tree_node_base @3812
    _ZNSt8_Rb_treeISsSt4pairIKSsSsESt10_Select1stIS2_ESt4lessISsESaIS2_EE7_S_leftEPSt18_Rb_tree_node_base @3813
    _ZNSt8_Rb_treeISsSt4pairIKSsSsESt10_Select1stIS2_ESt4lessISsESaIS2_EE8_M_beginEv @3814
    _ZNSt8_Rb_treeISsSt4pairIKSsSsESt10_Select1stIS2_ESt4lessISsESaIS2_EE8_M_eraseEPSt13_Rb_tree_nodeIS2_E @3815
    _ZNSt8_Rb_treeISsSt4pairIKSsSsESt10_Select1stIS2_ESt4lessISsESaIS2_EE8_S_rightEPSt18_Rb_tree_node_base @3816
    _ZNSt8_Rb_treeISsSt4pairIKSsSsESt10_Select1stIS2_ESt4lessISsESaIS2_EE8_S_valueEPKSt13_Rb_tree_nodeIS2_E @3817
    _ZNSt8_Rb_treeISsSt4pairIKSsSsESt10_Select1stIS2_ESt4lessISsESaIS2_EE8_S_valueEPKSt18_Rb_tree_node_base @3818
    _ZNSt8_Rb_treeISsSt4pairIKSsSsESt10_Select1stIS2_ESt4lessISsESaIS2_EE9_M_insertEPSt18_Rb_tree_node_baseSA_RKS2_ @3819
    _ZNSt8_Rb_treeISsSt4pairIKSsSsESt10_Select1stIS2_ESt4lessISsESaIS2_EEC1ERKS6_RKS7_ @3820
    _ZNSt8_Rb_treeISsSt4pairIKSsSsESt10_Select1stIS2_ESt4lessISsESaIS2_EED1Ev @3821
    _ZNSt9exceptionC2ERKS_ @3822
    _ZSt10_ConstructIN5boost10shared_ptrIN6Hinage8ParticleEEES4_EvPT_RKT0_ @3823
    _ZSt10_ConstructIN6Hinage14PhysicalEntity17TileCollisionDataES2_EvPT_RKT0_ @3824
    _ZSt10_ConstructIN6Hinage8Renderer12RenderObjectES2_EvPT_RKT0_ @3825
    _ZSt10_ConstructIN6Hinage8Renderer6VertexES2_EvPT_RKT0_ @3826
    _ZSt10_ConstructIPKSt9type_infoS2_EvPT_RKT0_ @3827
    _ZSt10_ConstructIPN6Hinage14PhysicalEntityES2_EvPT_RKT0_ @3828
    _ZSt10_ConstructIPN6Hinage15ResourceManagerINS0_4FontEE8ResourceES5_EvPT_RKT0_ @3829
    _ZSt10_ConstructIPN6Hinage15ResourceManagerINS0_6SpriteEE8ResourceES5_EvPT_RKT0_ @3830
    _ZSt10_ConstructIPN6Hinage15ResourceManagerINS0_7TextureEE8ResourceES5_EvPT_RKT0_ @3831
    _ZSt10_ConstructIPN6Hinage15ResourceManagerINS0_7TilesetEE8ResourceES5_EvPT_RKT0_ @3832
    _ZSt10_ConstructIPN6Hinage15SpriteAnimation5FrameES3_EvPT_RKT0_ @3833
    _ZSt10_ConstructIPN6Hinage15SpriteAnimationES2_EvPT_RKT0_ @3834
    _ZSt10_ConstructIPN6Hinage9GameStateES2_EvPT_RKT0_ @3835
    _ZSt10_ConstructISsSsEvPT_RKT0_ @3836
    _ZSt10_ConstructISt4pairIKSsP10_Mix_MusicES4_EvPT_RKT0_ @3837
    _ZSt10_ConstructISt4pairIKSsP9Mix_ChunkES4_EvPT_RKT0_ @3838
    _ZSt10_ConstructISt4pairIKSsPFPN6Hinage14PhysicalEntityESsPNS2_4GameEEES9_EvPT_RKT0_ @3839
    _ZSt10_ConstructISt4pairIKSsSsES2_EvPT_RKT0_ @3840
    _ZSt10_ConstructISt6vectorIN6Hinage8Renderer12RenderObjectESaIS3_EES5_EvPT_RKT0_ @3841
    _ZSt10_ConstructISt6vectorIcSaIcEES2_EvPT_RKT0_ @3842
    _ZSt10_ConstructIccEvPT_RKT0_ @3843
    _ZSt10__copy_ni1IN9__gnu_cxx17__normal_iteratorIPKN6Hinage8Renderer12RenderObjectESt6vectorIS4_SaIS4_EEEENS1_IPS4_S9_EEET0_T_SE_SD_11__true_type @3844
    _ZSt10__copy_ni1IN9__gnu_cxx17__normal_iteratorIPKN6Hinage8Renderer12RenderObjectESt6vectorIS4_SaIS4_EEEEPS4_ET0_T_SD_SC_11__true_type @3845
    _ZSt10__copy_ni1IN9__gnu_cxx17__normal_iteratorIPKN6Hinage8Renderer6VertexESt6vectorIS4_SaIS4_EEEENS1_IPS4_S9_EEET0_T_SE_SD_11__true_type @3846
    _ZSt10__copy_ni1IN9__gnu_cxx17__normal_iteratorIPKN6Hinage8Renderer6VertexESt6vectorIS4_SaIS4_EEEEPS4_ET0_T_SD_SC_11__true_type @3847
    _ZSt10__copy_ni1IN9__gnu_cxx17__normal_iteratorIPKPN6Hinage14PhysicalEntityESt6vectorIS4_SaIS4_EEEENS1_IPS4_S9_EEET0_T_SE_SD_11__true_type @3848
    _ZSt10__copy_ni1IN9__gnu_cxx17__normal_iteratorIPKPN6Hinage14PhysicalEntityESt6vectorIS4_SaIS4_EEEEPS4_ET0_T_SD_SC_11__true_type @3849
    _ZSt10__copy_ni1IN9__gnu_cxx17__normal_iteratorIPKPN6Hinage15SpriteAnimation5FrameESt6vectorIS5_SaIS5_EEEENS1_IPS5_SA_EEET0_T_SF_SE_11__true_type @3850
    _ZSt10__copy_ni1IN9__gnu_cxx17__normal_iteratorIPKPN6Hinage15SpriteAnimation5FrameESt6vectorIS5_SaIS5_EEEEPS5_ET0_T_SE_SD_11__true_type @3851
    _ZSt10__copy_ni1IN9__gnu_cxx17__normal_iteratorIPKPN6Hinage15SpriteAnimationESt6vectorIS4_SaIS4_EEEEPS4_ET0_T_SD_SC_11__true_type @3852
    _ZSt10__copy_ni1IN9__gnu_cxx17__normal_iteratorIPKcSt6vectorIcSaIcEEEENS1_IPcS6_EEET0_T_SB_SA_11__true_type @3853
    _ZSt10__copy_ni1IN9__gnu_cxx17__normal_iteratorIPKcSt6vectorIcSaIcEEEEPcET0_T_SA_S9_11__true_type @3854
    _ZSt10__copy_ni1IN9__gnu_cxx17__normal_iteratorIPN6Hinage14PhysicalEntity17TileCollisionDataESt6vectorIS4_SaIS4_EEEES9_ET0_T_SB_SA_11__true_type @3855
    _ZSt10__copy_ni1IN9__gnu_cxx17__normal_iteratorIPN6Hinage8Renderer12RenderObjectESt6vectorIS4_SaIS4_EEEES9_ET0_T_SB_SA_11__true_type @3856
    _ZSt10__copy_ni1IN9__gnu_cxx17__normal_iteratorIPPKSt9type_infoSt6vectorIS4_SaIS4_EEEES9_ET0_T_SB_SA_11__true_type @3857
    _ZSt10__copy_ni1IN9__gnu_cxx17__normal_iteratorIPPN6Hinage14PhysicalEntityESt6vectorIS4_SaIS4_EEEES5_ET0_T_SB_SA_11__true_type @3858
    _ZSt10__copy_ni1IN9__gnu_cxx17__normal_iteratorIPPN6Hinage14PhysicalEntityESt6vectorIS4_SaIS4_EEEES9_ET0_T_SB_SA_11__true_type @3859
    _ZSt10__copy_ni1IN9__gnu_cxx17__normal_iteratorIPPN6Hinage15ResourceManagerINS2_4FontEE8ResourceESt6vectorIS7_SaIS7_EEEESC_ET0_T_SE_SD_11__true_type @3860
    _ZSt10__copy_ni1IN9__gnu_cxx17__normal_iteratorIPPN6Hinage15ResourceManagerINS2_6SpriteEE8ResourceESt6vectorIS7_SaIS7_EEEESC_ET0_T_SE_SD_11__true_type @3861
    _ZSt10__copy_ni1IN9__gnu_cxx17__normal_iteratorIPPN6Hinage15ResourceManagerINS2_7TextureEE8ResourceESt6vectorIS7_SaIS7_EEEESC_ET0_T_SE_SD_11__true_type @3862
    _ZSt10__copy_ni1IN9__gnu_cxx17__normal_iteratorIPPN6Hinage15ResourceManagerINS2_7TilesetEE8ResourceESt6vectorIS7_SaIS7_EEEESC_ET0_T_SE_SD_11__true_type @3863
    _ZSt10__copy_ni1IN9__gnu_cxx17__normal_iteratorIPPN6Hinage15SpriteAnimation5FrameESt6vectorIS5_SaIS5_EEEESA_ET0_T_SC_SB_11__true_type @3864
    _ZSt10__copy_ni1IN9__gnu_cxx17__normal_iteratorIPPN6Hinage15SpriteAnimationESt6vectorIS4_SaIS4_EEEES9_ET0_T_SB_SA_11__true_type @3865
    _ZSt10__copy_ni1IN9__gnu_cxx17__normal_iteratorIPPN6Hinage9GameStateESt6vectorIS4_SaIS4_EEEES9_ET0_T_SB_SA_11__true_type @3866
    _ZSt10__copy_ni1IN9__gnu_cxx17__normal_iteratorIPSsSt6vectorISsSaISsEEEES6_ET0_T_S8_S7_11__true_type @3867
    _ZSt10__copy_ni1IN9__gnu_cxx17__normal_iteratorIPcSt6vectorIcSaIcEEEES6_ET0_T_S8_S7_11__true_type @3868
    _ZSt10__copy_ni1IPPKSt9type_infoS3_ET0_T_S5_S4_12__false_type @3869
    _ZSt10__copy_ni1IPPN6Hinage14PhysicalEntityES3_ET0_T_S5_S4_12__false_type @3870
    _ZSt10__copy_ni2IPKN6Hinage8Renderer12RenderObjectEN9__gnu_cxx17__normal_iteratorIPS2_St6vectorIS2_SaIS2_EEEEET0_T_SD_SC_11__true_type @3871
    _ZSt10__copy_ni2IPKN6Hinage8Renderer12RenderObjectEPS2_ET0_T_S7_S6_12__false_type @3872
    _ZSt10__copy_ni2IPKN6Hinage8Renderer6VertexEN9__gnu_cxx17__normal_iteratorIPS2_St6vectorIS2_SaIS2_EEEEET0_T_SD_SC_11__true_type @3873
    _ZSt10__copy_ni2IPKN6Hinage8Renderer6VertexEPS2_ET0_T_S7_S6_12__false_type @3874
    _ZSt10__copy_ni2IPKPN6Hinage14PhysicalEntityEN9__gnu_cxx17__normal_iteratorIPS2_St6vectorIS2_SaIS2_EEEEET0_T_SD_SC_11__true_type @3875
    _ZSt10__copy_ni2IPKPN6Hinage14PhysicalEntityEPS2_ET0_T_S7_S6_12__false_type @3876
    _ZSt10__copy_ni2IPKPN6Hinage15SpriteAnimation5FrameEN9__gnu_cxx17__normal_iteratorIPS3_St6vectorIS3_SaIS3_EEEEET0_T_SE_SD_11__true_type @3877
    _ZSt10__copy_ni2IPKPN6Hinage15SpriteAnimation5FrameEPS3_ET0_T_S8_S7_12__false_type @3878
    _ZSt10__copy_ni2IPKPN6Hinage15SpriteAnimationEPS2_ET0_T_S7_S6_12__false_type @3879
    _ZSt10__copy_ni2IPKcN9__gnu_cxx17__normal_iteratorIPcSt6vectorIcSaIcEEEEET0_T_SA_S9_11__true_type @3880
    _ZSt10__copy_ni2IPKcPcET0_T_S4_S3_12__false_type @3881
    _ZSt10__copy_ni2IPN6Hinage14PhysicalEntity17TileCollisionDataEN9__gnu_cxx17__normal_iteratorIS3_St6vectorIS2_SaIS2_EEEEET0_T_SB_SA_11__true_type @3882
    _ZSt10__copy_ni2IPN6Hinage8Renderer12RenderObjectEN9__gnu_cxx17__normal_iteratorIS3_St6vectorIS2_SaIS2_EEEEET0_T_SB_SA_11__true_type @3883
    _ZSt10__copy_ni2IPPKSt9type_infoN9__gnu_cxx17__normal_iteratorIS3_St6vectorIS2_SaIS2_EEEEET0_T_SB_SA_11__true_type @3884
    _ZSt10__copy_ni2IPPKSt9type_infoS3_ET0_T_S5_S4_12__false_type @3885
    _ZSt10__copy_ni2IPPN6Hinage14PhysicalEntityEN9__gnu_cxx17__normal_iteratorIS3_St6vectorIS2_SaIS2_EEEEET0_T_SB_SA_11__true_type @3886
    _ZSt10__copy_ni2IPPN6Hinage14PhysicalEntityES3_ET0_T_S5_S4_12__false_type @3887
    _ZSt10__copy_ni2IPPN6Hinage15ResourceManagerINS0_4FontEE8ResourceEN9__gnu_cxx17__normal_iteratorIS6_St6vectorIS5_SaIS5_EEEEET0_T_SE_SD_11__true_type @3888
    _ZSt10__copy_ni2IPPN6Hinage15ResourceManagerINS0_6SpriteEE8ResourceEN9__gnu_cxx17__normal_iteratorIS6_St6vectorIS5_SaIS5_EEEEET0_T_SE_SD_11__true_type @3889
    _ZSt10__copy_ni2IPPN6Hinage15ResourceManagerINS0_7TextureEE8ResourceEN9__gnu_cxx17__normal_iteratorIS6_St6vectorIS5_SaIS5_EEEEET0_T_SE_SD_11__true_type @3890
    _ZSt10__copy_ni2IPPN6Hinage15ResourceManagerINS0_7TilesetEE8ResourceEN9__gnu_cxx17__normal_iteratorIS6_St6vectorIS5_SaIS5_EEEEET0_T_SE_SD_11__true_type @3891
    _ZSt10__copy_ni2IPPN6Hinage15SpriteAnimation5FrameEN9__gnu_cxx17__normal_iteratorIS4_St6vectorIS3_SaIS3_EEEEET0_T_SC_SB_11__true_type @3892
    _ZSt10__copy_ni2IPPN6Hinage15SpriteAnimationEN9__gnu_cxx17__normal_iteratorIS3_St6vectorIS2_SaIS2_EEEEET0_T_SB_SA_11__true_type @3893
    _ZSt10__copy_ni2IPPN6Hinage9GameStateEN9__gnu_cxx17__normal_iteratorIS3_St6vectorIS2_SaIS2_EEEEET0_T_SB_SA_11__true_type @3894
    _ZSt10__copy_ni2IPSsN9__gnu_cxx17__normal_iteratorIS0_St6vectorISsSaISsEEEEET0_T_S8_S7_11__true_type @3895
    _ZSt10__copy_ni2IPcN9__gnu_cxx17__normal_iteratorIS0_St6vectorIcSaIcEEEEET0_T_S8_S7_11__true_type @3896
    _ZSt10__distanceIN9__gnu_cxx17__normal_iteratorIPPN6Hinage14PhysicalEntityESt6vectorIS4_SaIS4_EEEEENSt15iterator_traitsIT_E15difference_typeESB_SB_St26random_access_iterator_tag @3897
    _ZSt11__copy_aux2IPKN6Hinage8Renderer12RenderObjectEPS2_ET0_T_S7_S6_12__false_type @3898
    _ZSt11__copy_aux2IPKN6Hinage8Renderer6VertexEPS2_ET0_T_S7_S6_12__false_type @3899
    _ZSt11__copy_aux2IPKSt9type_infoEPT_S4_S4_S4_11__true_type @3900
    _ZSt11__copy_aux2IPN6Hinage14PhysicalEntity17TileCollisionDataES3_ET0_T_S5_S4_12__false_type @3901
    _ZSt11__copy_aux2IPN6Hinage14PhysicalEntityEEPT_PKS3_S6_S4_11__true_type @3902
    _ZSt11__copy_aux2IPN6Hinage14PhysicalEntityEEPT_S4_S4_S4_11__true_type @3903
    _ZSt11__copy_aux2IPN6Hinage15ResourceManagerINS0_4FontEE8ResourceEEPT_S7_S7_S7_11__true_type @3904
    _ZSt11__copy_aux2IPN6Hinage15ResourceManagerINS0_6SpriteEE8ResourceEEPT_S7_S7_S7_11__true_type @3905
    _ZSt11__copy_aux2IPN6Hinage15ResourceManagerINS0_7TextureEE8ResourceEEPT_S7_S7_S7_11__true_type @3906
    _ZSt11__copy_aux2IPN6Hinage15ResourceManagerINS0_7TilesetEE8ResourceEEPT_S7_S7_S7_11__true_type @3907
    _ZSt11__copy_aux2IPN6Hinage15SpriteAnimation5FrameEEPT_PKS4_S7_S5_11__true_type @3908
    _ZSt11__copy_aux2IPN6Hinage15SpriteAnimation5FrameEEPT_S5_S5_S5_11__true_type @3909
    _ZSt11__copy_aux2IPN6Hinage15SpriteAnimationEEPT_PKS3_S6_S4_11__true_type @3910
    _ZSt11__copy_aux2IPN6Hinage15SpriteAnimationEEPT_S4_S4_S4_11__true_type @3911
    _ZSt11__copy_aux2IPN6Hinage8Renderer12RenderObjectES3_ET0_T_S5_S4_12__false_type @3912
    _ZSt11__copy_aux2IPN6Hinage9GameStateEEPT_S4_S4_S4_11__true_type @3913
    _ZSt11__copy_aux2IPSsS0_ET0_T_S2_S1_12__false_type @3914
    _ZSt11__copy_aux2IcEPT_PKS0_S3_S1_11__true_type @3915
    _ZSt11__copy_aux2IcEPT_S1_S1_S1_11__true_type @3916
    _ZSt13__destroy_auxIN9__gnu_cxx17__normal_iteratorIPN6Hinage14PhysicalEntity17TileCollisionDataESt6vectorIS4_SaIS4_EEEEEvT_SA_12__false_type @3917
    _ZSt13__destroy_auxIN9__gnu_cxx17__normal_iteratorIPN6Hinage8Renderer12RenderObjectESt6vectorIS4_SaIS4_EEEEEvT_SA_12__false_type @3918
    _ZSt13__destroy_auxIN9__gnu_cxx17__normal_iteratorIPN6Hinage8Renderer6VertexESt6vectorIS4_SaIS4_EEEEEvT_SA_12__false_type @3919
    _ZSt13__destroy_auxIN9__gnu_cxx17__normal_iteratorIPPKSt9type_infoSt6vectorIS4_SaIS4_EEEEEvT_SA_11__true_type @3920
    _ZSt13__destroy_auxIN9__gnu_cxx17__normal_iteratorIPPN6Hinage14PhysicalEntityESt6vectorIS4_SaIS4_EEEEEvT_SA_11__true_type @3921
    _ZSt13__destroy_auxIN9__gnu_cxx17__normal_iteratorIPPN6Hinage15ResourceManagerINS2_4FontEE8ResourceESt6vectorIS7_SaIS7_EEEEEvT_SD_11__true_type @3922
    _ZSt13__destroy_auxIN9__gnu_cxx17__normal_iteratorIPPN6Hinage15ResourceManagerINS2_6SpriteEE8ResourceESt6vectorIS7_SaIS7_EEEEEvT_SD_11__true_type @3923
    _ZSt13__destroy_auxIN9__gnu_cxx17__normal_iteratorIPPN6Hinage15ResourceManagerINS2_7TextureEE8ResourceESt6vectorIS7_SaIS7_EEEEEvT_SD_11__true_type @3924
    _ZSt13__destroy_auxIN9__gnu_cxx17__normal_iteratorIPPN6Hinage15ResourceManagerINS2_7TilesetEE8ResourceESt6vectorIS7_SaIS7_EEEEEvT_SD_11__true_type @3925
    _ZSt13__destroy_auxIN9__gnu_cxx17__normal_iteratorIPPN6Hinage15SpriteAnimation5FrameESt6vectorIS5_SaIS5_EEEEEvT_SB_11__true_type @3926
    _ZSt13__destroy_auxIN9__gnu_cxx17__normal_iteratorIPPN6Hinage15SpriteAnimationESt6vectorIS4_SaIS4_EEEEEvT_SA_11__true_type @3927
    _ZSt13__destroy_auxIN9__gnu_cxx17__normal_iteratorIPPN6Hinage9GameStateESt6vectorIS4_SaIS4_EEEEEvT_SA_11__true_type @3928
    _ZSt13__destroy_auxIN9__gnu_cxx17__normal_iteratorIPSsSt6vectorISsSaISsEEEEEvT_S7_12__false_type @3929
    _ZSt13__destroy_auxIN9__gnu_cxx17__normal_iteratorIPSt6vectorIN6Hinage8Renderer12RenderObjectESaIS5_EES2_IS7_SaIS7_EEEEEvT_SC_12__false_type @3930
    _ZSt13__destroy_auxIN9__gnu_cxx17__normal_iteratorIPSt6vectorIcSaIcEES2_IS4_SaIS4_EEEEEvT_S9_12__false_type @3931
    _ZSt13__destroy_auxIN9__gnu_cxx17__normal_iteratorIPcSt6vectorIcSaIcEEEEEvT_S7_11__true_type @3932
    _ZSt13__destroy_auxIPN6Hinage14PhysicalEntity17TileCollisionDataEEvT_S4_12__false_type @3933
    _ZSt13__destroy_auxIPN6Hinage8Renderer12RenderObjectEEvT_S4_12__false_type @3934
    _ZSt13__destroy_auxIPN6Hinage8Renderer6VertexEEvT_S4_12__false_type @3935
    _ZSt13__destroy_auxIPN7luabind5valueEEvT_S3_12__false_type @3936
    _ZSt13__destroy_auxIPPKSt9type_infoEvT_S4_11__true_type @3937
    _ZSt13__destroy_auxIPPN6Hinage14PhysicalEntityEEvT_S4_11__true_type @3938
    _ZSt13__destroy_auxIPPN6Hinage15ResourceManagerINS0_4FontEE8ResourceEEvT_S7_11__true_type @3939
    _ZSt13__destroy_auxIPPN6Hinage15ResourceManagerINS0_6SpriteEE8ResourceEEvT_S7_11__true_type @3940
    _ZSt13__destroy_auxIPPN6Hinage15ResourceManagerINS0_7TextureEE8ResourceEEvT_S7_11__true_type @3941
    _ZSt13__destroy_auxIPPN6Hinage15ResourceManagerINS0_7TilesetEE8ResourceEEvT_S7_11__true_type @3942
    _ZSt13__destroy_auxIPPN6Hinage15SpriteAnimation5FrameEEvT_S5_11__true_type @3943
    _ZSt13__destroy_auxIPPN6Hinage15SpriteAnimationEEvT_S4_11__true_type @3944
    _ZSt13__destroy_auxIPPN6Hinage6UIItemEEvT_S4_11__true_type @3945
    _ZSt13__destroy_auxIPPN6Hinage9GameStateEEvT_S4_11__true_type @3946
    _ZSt13__destroy_auxIPSsEvT_S1_12__false_type @3947
    _ZSt13__destroy_auxIPSt6vectorIN6Hinage8Renderer12RenderObjectESaIS3_EEEvT_S7_12__false_type @3948
    _ZSt13__destroy_auxIPSt6vectorIcSaIcEEEvT_S4_12__false_type @3949
    _ZSt13__destroy_auxIPcEvT_S1_11__true_type @3950
    _ZSt13copy_backwardIN9__gnu_cxx17__normal_iteratorIPN6Hinage14PhysicalEntity17TileCollisionDataESt6vectorIS4_SaIS4_EEEES9_ET0_T_SB_SA_ @3951
    _ZSt13copy_backwardIN9__gnu_cxx17__normal_iteratorIPN6Hinage8Renderer12RenderObjectESt6vectorIS4_SaIS4_EEEES9_ET0_T_SB_SA_ @3952
    _ZSt13copy_backwardIN9__gnu_cxx17__normal_iteratorIPN6Hinage8Renderer6VertexESt6vectorIS4_SaIS4_EEEES9_ET0_T_SB_SA_ @3953
    _ZSt13copy_backwardIN9__gnu_cxx17__normal_iteratorIPPKSt9type_infoSt6vectorIS4_SaIS4_EEEES9_ET0_T_SB_SA_ @3954
    _ZSt13copy_backwardIN9__gnu_cxx17__normal_iteratorIPPN6Hinage14PhysicalEntityESt6vectorIS4_SaIS4_EEEES9_ET0_T_SB_SA_ @3955
    _ZSt13copy_backwardIN9__gnu_cxx17__normal_iteratorIPPN6Hinage15ResourceManagerINS2_4FontEE8ResourceESt6vectorIS7_SaIS7_EEEESC_ET0_T_SE_SD_ @3956
    _ZSt13copy_backwardIN9__gnu_cxx17__normal_iteratorIPPN6Hinage15ResourceManagerINS2_6SpriteEE8ResourceESt6vectorIS7_SaIS7_EEEESC_ET0_T_SE_SD_ @3957
    _ZSt13copy_backwardIN9__gnu_cxx17__normal_iteratorIPPN6Hinage15ResourceManagerINS2_7TextureEE8ResourceESt6vectorIS7_SaIS7_EEEESC_ET0_T_SE_SD_ @3958
    _ZSt13copy_backwardIN9__gnu_cxx17__normal_iteratorIPPN6Hinage15ResourceManagerINS2_7TilesetEE8ResourceESt6vectorIS7_SaIS7_EEEESC_ET0_T_SE_SD_ @3959
    _ZSt13copy_backwardIN9__gnu_cxx17__normal_iteratorIPPN6Hinage15SpriteAnimation5FrameESt6vectorIS5_SaIS5_EEEESA_ET0_T_SC_SB_ @3960
    _ZSt13copy_backwardIN9__gnu_cxx17__normal_iteratorIPPN6Hinage15SpriteAnimationESt6vectorIS4_SaIS4_EEEES9_ET0_T_SB_SA_ @3961
    _ZSt13copy_backwardIN9__gnu_cxx17__normal_iteratorIPPN6Hinage9GameStateESt6vectorIS4_SaIS4_EEEES9_ET0_T_SB_SA_ @3962
    _ZSt13copy_backwardIN9__gnu_cxx17__normal_iteratorIPSsSt6vectorISsSaISsEEEES6_ET0_T_S8_S7_ @3963
    _ZSt13copy_backwardIN9__gnu_cxx17__normal_iteratorIPSt6vectorIN6Hinage8Renderer12RenderObjectESaIS5_EES2_IS7_SaIS7_EEEESB_ET0_T_SD_SC_ @3964
    _ZSt13copy_backwardIN9__gnu_cxx17__normal_iteratorIPSt6vectorIcSaIcEES2_IS4_SaIS4_EEEES8_ET0_T_SA_S9_ @3965
    _ZSt13copy_backwardIN9__gnu_cxx17__normal_iteratorIPcSt6vectorIcSaIcEEEES6_ET0_T_S8_S7_ @3966
    _ZSt14__copy_trivialIPKSt9type_infoEPT_PKS3_S6_S4_ @3967
    _ZSt14__copy_trivialIPN6Hinage14PhysicalEntityEEPT_PKS3_S6_S4_ @3968
    _ZSt14__copy_trivialIPN6Hinage15ResourceManagerINS0_4FontEE8ResourceEEPT_PKS6_S9_S7_ @3969
    _ZSt14__copy_trivialIPN6Hinage15ResourceManagerINS0_6SpriteEE8ResourceEEPT_PKS6_S9_S7_ @3970
    _ZSt14__copy_trivialIPN6Hinage15ResourceManagerINS0_7TextureEE8ResourceEEPT_PKS6_S9_S7_ @3971
    _ZSt14__copy_trivialIPN6Hinage15ResourceManagerINS0_7TilesetEE8ResourceEEPT_PKS6_S9_S7_ @3972
    _ZSt14__copy_trivialIPN6Hinage15SpriteAnimation5FrameEEPT_PKS4_S7_S5_ @3973
    _ZSt14__copy_trivialIPN6Hinage15SpriteAnimationEEPT_PKS3_S6_S4_ @3974
    _ZSt14__copy_trivialIPN6Hinage9GameStateEEPT_PKS3_S6_S4_ @3975
    _ZSt14__copy_trivialIcEPT_PKS0_S3_S1_ @3976
    _ZSt15__copy_backwardIPN6Hinage14PhysicalEntity17TileCollisionDataES3_ET0_T_S5_S4_St26random_access_iterator_tag @3977
    _ZSt15__copy_backwardIPN6Hinage8Renderer12RenderObjectES3_ET0_T_S5_S4_St26random_access_iterator_tag @3978
    _ZSt15__copy_backwardIPN6Hinage8Renderer6VertexES3_ET0_T_S5_S4_St26random_access_iterator_tag @3979
    _ZSt15__copy_backwardIPSsS0_ET0_T_S2_S1_St26random_access_iterator_tag @3980
    _ZSt15__copy_backwardIPSt6vectorIN6Hinage8Renderer12RenderObjectESaIS3_EES6_ET0_T_S8_S7_St26random_access_iterator_tag @3981
    _ZSt15__copy_backwardIPSt6vectorIcSaIcEES3_ET0_T_S5_S4_St26random_access_iterator_tag @3982
    _ZSt18uninitialized_copyIN9__gnu_cxx17__normal_iteratorIPKN6Hinage8Renderer12RenderObjectESt6vectorIS4_SaIS4_EEEEPS4_ET0_T_SD_SC_ @3983
    _ZSt18uninitialized_copyIN9__gnu_cxx17__normal_iteratorIPKN6Hinage8Renderer6VertexESt6vectorIS4_SaIS4_EEEEPS4_ET0_T_SD_SC_ @3984
    _ZSt18uninitialized_copyIN9__gnu_cxx17__normal_iteratorIPKPN6Hinage14PhysicalEntityESt6vectorIS4_SaIS4_EEEEPS4_ET0_T_SD_SC_ @3985
    _ZSt18uninitialized_copyIN9__gnu_cxx17__normal_iteratorIPKPN6Hinage15SpriteAnimation5FrameESt6vectorIS5_SaIS5_EEEEPS5_ET0_T_SE_SD_ @3986
    _ZSt18uninitialized_copyIN9__gnu_cxx17__normal_iteratorIPKPN6Hinage15SpriteAnimationESt6vectorIS4_SaIS4_EEEEPS4_ET0_T_SD_SC_ @3987
    _ZSt18uninitialized_copyIN9__gnu_cxx17__normal_iteratorIPKcSt6vectorIcSaIcEEEEPcET0_T_SA_S9_ @3988
    _ZSt18uninitialized_copyIN9__gnu_cxx17__normal_iteratorIPN6Hinage14PhysicalEntity17TileCollisionDataESt6vectorIS4_SaIS4_EEEES9_ET0_T_SB_SA_ @3989
    _ZSt18uninitialized_copyIN9__gnu_cxx17__normal_iteratorIPN6Hinage8Renderer12RenderObjectESt6vectorIS4_SaIS4_EEEES9_ET0_T_SB_SA_ @3990
    _ZSt18uninitialized_copyIN9__gnu_cxx17__normal_iteratorIPN6Hinage8Renderer6VertexESt6vectorIS4_SaIS4_EEEES9_ET0_T_SB_SA_ @3991
    _ZSt18uninitialized_copyIN9__gnu_cxx17__normal_iteratorIPPKSt9type_infoSt6vectorIS4_SaIS4_EEEES9_ET0_T_SB_SA_ @3992
    _ZSt18uninitialized_copyIN9__gnu_cxx17__normal_iteratorIPPN6Hinage14PhysicalEntityESt6vectorIS4_SaIS4_EEEES5_ET0_T_SB_SA_ @3993
    _ZSt18uninitialized_copyIN9__gnu_cxx17__normal_iteratorIPPN6Hinage14PhysicalEntityESt6vectorIS4_SaIS4_EEEES9_ET0_T_SB_SA_ @3994
    _ZSt18uninitialized_copyIN9__gnu_cxx17__normal_iteratorIPPN6Hinage15ResourceManagerINS2_4FontEE8ResourceESt6vectorIS7_SaIS7_EEEESC_ET0_T_SE_SD_ @3995
    _ZSt18uninitialized_copyIN9__gnu_cxx17__normal_iteratorIPPN6Hinage15ResourceManagerINS2_6SpriteEE8ResourceESt6vectorIS7_SaIS7_EEEESC_ET0_T_SE_SD_ @3996
    _ZSt18uninitialized_copyIN9__gnu_cxx17__normal_iteratorIPPN6Hinage15ResourceManagerINS2_7TextureEE8ResourceESt6vectorIS7_SaIS7_EEEESC_ET0_T_SE_SD_ @3997
    _ZSt18uninitialized_copyIN9__gnu_cxx17__normal_iteratorIPPN6Hinage15ResourceManagerINS2_7TilesetEE8ResourceESt6vectorIS7_SaIS7_EEEESC_ET0_T_SE_SD_ @3998
    _ZSt18uninitialized_copyIN9__gnu_cxx17__normal_iteratorIPPN6Hinage15SpriteAnimation5FrameESt6vectorIS5_SaIS5_EEEESA_ET0_T_SC_SB_ @3999
    _ZSt18uninitialized_copyIN9__gnu_cxx17__normal_iteratorIPPN6Hinage15SpriteAnimationESt6vectorIS4_SaIS4_EEEES9_ET0_T_SB_SA_ @4000
    _ZSt18uninitialized_copyIN9__gnu_cxx17__normal_iteratorIPPN6Hinage9GameStateESt6vectorIS4_SaIS4_EEEES9_ET0_T_SB_SA_ @4001
    _ZSt18uninitialized_copyIN9__gnu_cxx17__normal_iteratorIPSsSt6vectorISsSaISsEEEES6_ET0_T_S8_S7_ @4002
    _ZSt18uninitialized_copyIN9__gnu_cxx17__normal_iteratorIPSt6vectorIN6Hinage8Renderer12RenderObjectESaIS5_EES2_IS7_SaIS7_EEEESB_ET0_T_SD_SC_ @4003
    _ZSt18uninitialized_copyIN9__gnu_cxx17__normal_iteratorIPSt6vectorIcSaIcEES2_IS4_SaIS4_EEEES8_ET0_T_SA_S9_ @4004
    _ZSt18uninitialized_copyIN9__gnu_cxx17__normal_iteratorIPcSt6vectorIcSaIcEEEES6_ET0_T_S8_S7_ @4005
    _ZSt18uninitialized_copyIPPKSt9type_infoS3_ET0_T_S5_S4_ @4006
    _ZSt18uninitialized_copyIPPN6Hinage14PhysicalEntityES3_ET0_T_S5_S4_ @4007
    _ZSt19__copy_backward_auxIPN6Hinage14PhysicalEntity17TileCollisionDataES3_ET0_T_S5_S4_ @4008
    _ZSt19__copy_backward_auxIPN6Hinage8Renderer12RenderObjectES3_ET0_T_S5_S4_ @4009
    _ZSt19__copy_backward_auxIPN6Hinage8Renderer6VertexES3_ET0_T_S5_S4_ @4010
    _ZSt19__copy_backward_auxIPPKSt9type_infoS3_ET0_T_S5_S4_ @4011
    _ZSt19__copy_backward_auxIPPN6Hinage14PhysicalEntityES3_ET0_T_S5_S4_ @4012
    _ZSt19__copy_backward_auxIPPN6Hinage15ResourceManagerINS0_4FontEE8ResourceES6_ET0_T_S8_S7_ @4013
    _ZSt19__copy_backward_auxIPPN6Hinage15ResourceManagerINS0_6SpriteEE8ResourceES6_ET0_T_S8_S7_ @4014
    _ZSt19__copy_backward_auxIPPN6Hinage15ResourceManagerINS0_7TextureEE8ResourceES6_ET0_T_S8_S7_ @4015
    _ZSt19__copy_backward_auxIPPN6Hinage15ResourceManagerINS0_7TilesetEE8ResourceES6_ET0_T_S8_S7_ @4016
    _ZSt19__copy_backward_auxIPPN6Hinage15SpriteAnimation5FrameES4_ET0_T_S6_S5_ @4017
    _ZSt19__copy_backward_auxIPPN6Hinage15SpriteAnimationES3_ET0_T_S5_S4_ @4018
    _ZSt19__copy_backward_auxIPPN6Hinage9GameStateES3_ET0_T_S5_S4_ @4019
    _ZSt19__copy_backward_auxIPSsS0_ET0_T_S2_S1_ @4020
    _ZSt19__copy_backward_auxIPSt6vectorIN6Hinage8Renderer12RenderObjectESaIS3_EES6_ET0_T_S8_S7_ @4021
    _ZSt19__copy_backward_auxIPSt6vectorIcSaIcEES3_ET0_T_S5_S4_ @4022
    _ZSt19__copy_backward_auxIPcS0_ET0_T_S2_S1_ @4023
    _ZSt19__iterator_categoryIN9__gnu_cxx17__normal_iteratorIPPN6Hinage14PhysicalEntityESt6vectorIS4_SaIS4_EEEEENSt15iterator_traitsIT_E17iterator_categoryERKSB_ @4024
    _ZSt19__iterator_categoryIPKN6Hinage8Renderer12RenderObjectEENSt15iterator_traitsIT_E17iterator_categoryERKS6_ @4025
    _ZSt19__iterator_categoryIPKN6Hinage8Renderer6VertexEENSt15iterator_traitsIT_E17iterator_categoryERKS6_ @4026
    _ZSt19__iterator_categoryIPN6Hinage14PhysicalEntity17TileCollisionDataEENSt15iterator_traitsIT_E17iterator_categoryERKS5_ @4027
    _ZSt19__iterator_categoryIPN6Hinage8Renderer12RenderObjectEENSt15iterator_traitsIT_E17iterator_categoryERKS5_ @4028
    _ZSt19__iterator_categoryIPN6Hinage8Renderer6VertexEENSt15iterator_traitsIT_E17iterator_categoryERKS5_ @4029
    _ZSt19__iterator_categoryIPSsENSt15iterator_traitsIT_E17iterator_categoryERKS2_ @4030
    _ZSt19__iterator_categoryIPSt6vectorIN6Hinage8Renderer12RenderObjectESaIS3_EEENSt15iterator_traitsIT_E17iterator_categoryERKS8_ @4031
    _ZSt19__iterator_categoryIPSt6vectorIcSaIcEEENSt15iterator_traitsIT_E17iterator_categoryERKS5_ @4032
    _ZSt24__uninitialized_copy_auxIN9__gnu_cxx17__normal_iteratorIPKN6Hinage8Renderer12RenderObjectESt6vectorIS4_SaIS4_EEEEPS4_ET0_T_SD_SC_12__false_type @4033
    _ZSt24__uninitialized_copy_auxIN9__gnu_cxx17__normal_iteratorIPKN6Hinage8Renderer6VertexESt6vectorIS4_SaIS4_EEEEPS4_ET0_T_SD_SC_12__false_type @4034
    _ZSt24__uninitialized_copy_auxIN9__gnu_cxx17__normal_iteratorIPKPN6Hinage14PhysicalEntityESt6vectorIS4_SaIS4_EEEEPS4_ET0_T_SD_SC_11__true_type @4035
    _ZSt24__uninitialized_copy_auxIN9__gnu_cxx17__normal_iteratorIPKPN6Hinage15SpriteAnimation5FrameESt6vectorIS5_SaIS5_EEEEPS5_ET0_T_SE_SD_11__true_type @4036
    _ZSt24__uninitialized_copy_auxIN9__gnu_cxx17__normal_iteratorIPKPN6Hinage15SpriteAnimationESt6vectorIS4_SaIS4_EEEEPS4_ET0_T_SD_SC_11__true_type @4037
    _ZSt24__uninitialized_copy_auxIN9__gnu_cxx17__normal_iteratorIPKcSt6vectorIcSaIcEEEEPcET0_T_SA_S9_11__true_type @4038
    _ZSt24__uninitialized_copy_auxIN9__gnu_cxx17__normal_iteratorIPN6Hinage14PhysicalEntity17TileCollisionDataESt6vectorIS4_SaIS4_EEEES9_ET0_T_SB_SA_12__false_type @4039
    _ZSt24__uninitialized_copy_auxIN9__gnu_cxx17__normal_iteratorIPN6Hinage8Renderer12RenderObjectESt6vectorIS4_SaIS4_EEEES9_ET0_T_SB_SA_12__false_type @4040
    _ZSt24__uninitialized_copy_auxIN9__gnu_cxx17__normal_iteratorIPN6Hinage8Renderer6VertexESt6vectorIS4_SaIS4_EEEES9_ET0_T_SB_SA_12__false_type @4041
    _ZSt24__uninitialized_copy_auxIN9__gnu_cxx17__normal_iteratorIPPKSt9type_infoSt6vectorIS4_SaIS4_EEEES9_ET0_T_SB_SA_11__true_type @4042
    _ZSt24__uninitialized_copy_auxIN9__gnu_cxx17__normal_iteratorIPPN6Hinage14PhysicalEntityESt6vectorIS4_SaIS4_EEEES5_ET0_T_SB_SA_11__true_type @4043
    _ZSt24__uninitialized_copy_auxIN9__gnu_cxx17__normal_iteratorIPPN6Hinage14PhysicalEntityESt6vectorIS4_SaIS4_EEEES9_ET0_T_SB_SA_11__true_type @4044
    _ZSt24__uninitialized_copy_auxIN9__gnu_cxx17__normal_iteratorIPPN6Hinage15ResourceManagerINS2_4FontEE8ResourceESt6vectorIS7_SaIS7_EEEESC_ET0_T_SE_SD_11__true_type @4045
    _ZSt24__uninitialized_copy_auxIN9__gnu_cxx17__normal_iteratorIPPN6Hinage15ResourceManagerINS2_6SpriteEE8ResourceESt6vectorIS7_SaIS7_EEEESC_ET0_T_SE_SD_11__true_type @4046
    _ZSt24__uninitialized_copy_auxIN9__gnu_cxx17__normal_iteratorIPPN6Hinage15ResourceManagerINS2_7TextureEE8ResourceESt6vectorIS7_SaIS7_EEEESC_ET0_T_SE_SD_11__true_type @4047
    _ZSt24__uninitialized_copy_auxIN9__gnu_cxx17__normal_iteratorIPPN6Hinage15ResourceManagerINS2_7TilesetEE8ResourceESt6vectorIS7_SaIS7_EEEESC_ET0_T_SE_SD_11__true_type @4048
    _ZSt24__uninitialized_copy_auxIN9__gnu_cxx17__normal_iteratorIPPN6Hinage15SpriteAnimation5FrameESt6vectorIS5_SaIS5_EEEESA_ET0_T_SC_SB_11__true_type @4049
    _ZSt24__uninitialized_copy_auxIN9__gnu_cxx17__normal_iteratorIPPN6Hinage15SpriteAnimationESt6vectorIS4_SaIS4_EEEES9_ET0_T_SB_SA_11__true_type @4050
    _ZSt24__uninitialized_copy_auxIN9__gnu_cxx17__normal_iteratorIPPN6Hinage9GameStateESt6vectorIS4_SaIS4_EEEES9_ET0_T_SB_SA_11__true_type @4051
    _ZSt24__uninitialized_copy_auxIN9__gnu_cxx17__normal_iteratorIPSsSt6vectorISsSaISsEEEES6_ET0_T_S8_S7_12__false_type @4052
    _ZSt24__uninitialized_copy_auxIN9__gnu_cxx17__normal_iteratorIPSt6vectorIN6Hinage8Renderer12RenderObjectESaIS5_EES2_IS7_SaIS7_EEEESB_ET0_T_SD_SC_12__false_type @4053
    _ZSt24__uninitialized_copy_auxIN9__gnu_cxx17__normal_iteratorIPSt6vectorIcSaIcEES2_IS4_SaIS4_EEEES8_ET0_T_SA_S9_12__false_type @4054
    _ZSt24__uninitialized_copy_auxIN9__gnu_cxx17__normal_iteratorIPcSt6vectorIcSaIcEEEES6_ET0_T_S8_S7_11__true_type @4055
    _ZSt24__uninitialized_copy_auxIPPKSt9type_infoS3_ET0_T_S5_S4_11__true_type @4056
    _ZSt24__uninitialized_copy_auxIPPN6Hinage14PhysicalEntityES3_ET0_T_S5_S4_11__true_type @4057
    _ZSt37__copy_backward_input_normal_iteratorIN9__gnu_cxx17__normal_iteratorIPN6Hinage14PhysicalEntity17TileCollisionDataESt6vectorIS4_SaIS4_EEEES9_ET0_T_SB_SA_11__true_type @4058
    _ZSt37__copy_backward_input_normal_iteratorIN9__gnu_cxx17__normal_iteratorIPN6Hinage8Renderer12RenderObjectESt6vectorIS4_SaIS4_EEEES9_ET0_T_SB_SA_11__true_type @4059
    _ZSt37__copy_backward_input_normal_iteratorIN9__gnu_cxx17__normal_iteratorIPN6Hinage8Renderer6VertexESt6vectorIS4_SaIS4_EEEES9_ET0_T_SB_SA_11__true_type @4060
    _ZSt37__copy_backward_input_normal_iteratorIN9__gnu_cxx17__normal_iteratorIPPKSt9type_infoSt6vectorIS4_SaIS4_EEEES9_ET0_T_SB_SA_11__true_type @4061
    _ZSt37__copy_backward_input_normal_iteratorIN9__gnu_cxx17__normal_iteratorIPPN6Hinage14PhysicalEntityESt6vectorIS4_SaIS4_EEEES9_ET0_T_SB_SA_11__true_type @4062
    _ZSt37__copy_backward_input_normal_iteratorIN9__gnu_cxx17__normal_iteratorIPPN6Hinage15ResourceManagerINS2_4FontEE8ResourceESt6vectorIS7_SaIS7_EEEESC_ET0_T_SE_SD_11__true_type @4063
    _ZSt37__copy_backward_input_normal_iteratorIN9__gnu_cxx17__normal_iteratorIPPN6Hinage15ResourceManagerINS2_6SpriteEE8ResourceESt6vectorIS7_SaIS7_EEEESC_ET0_T_SE_SD_11__true_type @4064
    _ZSt37__copy_backward_input_normal_iteratorIN9__gnu_cxx17__normal_iteratorIPPN6Hinage15ResourceManagerINS2_7TextureEE8ResourceESt6vectorIS7_SaIS7_EEEESC_ET0_T_SE_SD_11__true_type @4065
    _ZSt37__copy_backward_input_normal_iteratorIN9__gnu_cxx17__normal_iteratorIPPN6Hinage15ResourceManagerINS2_7TilesetEE8ResourceESt6vectorIS7_SaIS7_EEEESC_ET0_T_SE_SD_11__true_type @4066
    _ZSt37__copy_backward_input_normal_iteratorIN9__gnu_cxx17__normal_iteratorIPPN6Hinage15SpriteAnimation5FrameESt6vectorIS5_SaIS5_EEEESA_ET0_T_SC_SB_11__true_type @4067
    _ZSt37__copy_backward_input_normal_iteratorIN9__gnu_cxx17__normal_iteratorIPPN6Hinage15SpriteAnimationESt6vectorIS4_SaIS4_EEEES9_ET0_T_SB_SA_11__true_type @4068
    _ZSt37__copy_backward_input_normal_iteratorIN9__gnu_cxx17__normal_iteratorIPPN6Hinage9GameStateESt6vectorIS4_SaIS4_EEEES9_ET0_T_SB_SA_11__true_type @4069
    _ZSt37__copy_backward_input_normal_iteratorIN9__gnu_cxx17__normal_iteratorIPSsSt6vectorISsSaISsEEEES6_ET0_T_S8_S7_11__true_type @4070
    _ZSt37__copy_backward_input_normal_iteratorIN9__gnu_cxx17__normal_iteratorIPSt6vectorIN6Hinage8Renderer12RenderObjectESaIS5_EES2_IS7_SaIS7_EEEESB_ET0_T_SD_SC_11__true_type @4071
    _ZSt37__copy_backward_input_normal_iteratorIN9__gnu_cxx17__normal_iteratorIPSt6vectorIcSaIcEES2_IS4_SaIS4_EEEES8_ET0_T_SA_S9_11__true_type @4072
    _ZSt37__copy_backward_input_normal_iteratorIN9__gnu_cxx17__normal_iteratorIPcSt6vectorIcSaIcEEEES6_ET0_T_S8_S7_11__true_type @4073
    _ZSt38__copy_backward_output_normal_iteratorIPN6Hinage14PhysicalEntity17TileCollisionDataEN9__gnu_cxx17__normal_iteratorIS3_St6vectorIS2_SaIS2_EEEEET0_T_SB_SA_11__true_type @4074
    _ZSt38__copy_backward_output_normal_iteratorIPN6Hinage8Renderer12RenderObjectEN9__gnu_cxx17__normal_iteratorIS3_St6vectorIS2_SaIS2_EEEEET0_T_SB_SA_11__true_type @4075
    _ZSt38__copy_backward_output_normal_iteratorIPN6Hinage8Renderer6VertexEN9__gnu_cxx17__normal_iteratorIS3_St6vectorIS2_SaIS2_EEEEET0_T_SB_SA_11__true_type @4076
    _ZSt38__copy_backward_output_normal_iteratorIPPKSt9type_infoN9__gnu_cxx17__normal_iteratorIS3_St6vectorIS2_SaIS2_EEEEET0_T_SB_SA_11__true_type @4077
    _ZSt38__copy_backward_output_normal_iteratorIPPN6Hinage14PhysicalEntityEN9__gnu_cxx17__normal_iteratorIS3_St6vectorIS2_SaIS2_EEEEET0_T_SB_SA_11__true_type @4078
    _ZSt38__copy_backward_output_normal_iteratorIPPN6Hinage15ResourceManagerINS0_4FontEE8ResourceEN9__gnu_cxx17__normal_iteratorIS6_St6vectorIS5_SaIS5_EEEEET0_T_SE_SD_11__true_type @4079
    _ZSt38__copy_backward_output_normal_iteratorIPPN6Hinage15ResourceManagerINS0_6SpriteEE8ResourceEN9__gnu_cxx17__normal_iteratorIS6_St6vectorIS5_SaIS5_EEEEET0_T_SE_SD_11__true_type @4080
    _ZSt38__copy_backward_output_normal_iteratorIPPN6Hinage15ResourceManagerINS0_7TextureEE8ResourceEN9__gnu_cxx17__normal_iteratorIS6_St6vectorIS5_SaIS5_EEEEET0_T_SE_SD_11__true_type @4081
    _ZSt38__copy_backward_output_normal_iteratorIPPN6Hinage15ResourceManagerINS0_7TilesetEE8ResourceEN9__gnu_cxx17__normal_iteratorIS6_St6vectorIS5_SaIS5_EEEEET0_T_SE_SD_11__true_type @4082
    _ZSt38__copy_backward_output_normal_iteratorIPPN6Hinage15SpriteAnimation5FrameEN9__gnu_cxx17__normal_iteratorIS4_St6vectorIS3_SaIS3_EEEEET0_T_SC_SB_11__true_type @4083
    _ZSt38__copy_backward_output_normal_iteratorIPPN6Hinage15SpriteAnimationEN9__gnu_cxx17__normal_iteratorIS3_St6vectorIS2_SaIS2_EEEEET0_T_SB_SA_11__true_type @4084
    _ZSt38__copy_backward_output_normal_iteratorIPPN6Hinage9GameStateEN9__gnu_cxx17__normal_iteratorIS3_St6vectorIS2_SaIS2_EEEEET0_T_SB_SA_11__true_type @4085
    _ZSt38__copy_backward_output_normal_iteratorIPSsN9__gnu_cxx17__normal_iteratorIS0_St6vectorISsSaISsEEEEET0_T_S8_S7_11__true_type @4086
    _ZSt38__copy_backward_output_normal_iteratorIPSt6vectorIN6Hinage8Renderer12RenderObjectESaIS3_EEN9__gnu_cxx17__normal_iteratorIS6_S0_IS5_SaIS5_EEEEET0_T_SD_SC_11__true_type @4087
    _ZSt38__copy_backward_output_normal_iteratorIPSt6vectorIcSaIcEEN9__gnu_cxx17__normal_iteratorIS3_S0_IS2_SaIS2_EEEEET0_T_SA_S9_11__true_type @4088
    _ZSt38__copy_backward_output_normal_iteratorIPcN9__gnu_cxx17__normal_iteratorIS0_St6vectorIcSaIcEEEEET0_T_S8_S7_11__true_type @4089
    _ZSt3maxIjERKT_S2_S2_ @4090
    _ZSt3minIjERKT_S2_S2_ @4091
    _ZSt4copyIN9__gnu_cxx17__normal_iteratorIPKN6Hinage8Renderer12RenderObjectESt6vectorIS4_SaIS4_EEEENS1_IPS4_S9_EEET0_T_SE_SD_ @4092
    _ZSt4copyIN9__gnu_cxx17__normal_iteratorIPKN6Hinage8Renderer12RenderObjectESt6vectorIS4_SaIS4_EEEEPS4_ET0_T_SD_SC_ @4093
    _ZSt4copyIN9__gnu_cxx17__normal_iteratorIPKN6Hinage8Renderer6VertexESt6vectorIS4_SaIS4_EEEENS1_IPS4_S9_EEET0_T_SE_SD_ @4094
    _ZSt4copyIN9__gnu_cxx17__normal_iteratorIPKN6Hinage8Renderer6VertexESt6vectorIS4_SaIS4_EEEEPS4_ET0_T_SD_SC_ @4095
    _ZSt4copyIN9__gnu_cxx17__normal_iteratorIPKPN6Hinage14PhysicalEntityESt6vectorIS4_SaIS4_EEEENS1_IPS4_S9_EEET0_T_SE_SD_ @4096
    _ZSt4copyIN9__gnu_cxx17__normal_iteratorIPKPN6Hinage14PhysicalEntityESt6vectorIS4_SaIS4_EEEEPS4_ET0_T_SD_SC_ @4097
    _ZSt4copyIN9__gnu_cxx17__normal_iteratorIPKPN6Hinage15SpriteAnimation5FrameESt6vectorIS5_SaIS5_EEEENS1_IPS5_SA_EEET0_T_SF_SE_ @4098
    _ZSt4copyIN9__gnu_cxx17__normal_iteratorIPKPN6Hinage15SpriteAnimation5FrameESt6vectorIS5_SaIS5_EEEEPS5_ET0_T_SE_SD_ @4099
    _ZSt4copyIN9__gnu_cxx17__normal_iteratorIPKPN6Hinage15SpriteAnimationESt6vectorIS4_SaIS4_EEEEPS4_ET0_T_SD_SC_ @4100
    _ZSt4copyIN9__gnu_cxx17__normal_iteratorIPKcSt6vectorIcSaIcEEEENS1_IPcS6_EEET0_T_SB_SA_ @4101
    _ZSt4copyIN9__gnu_cxx17__normal_iteratorIPKcSt6vectorIcSaIcEEEEPcET0_T_SA_S9_ @4102
    _ZSt4copyIN9__gnu_cxx17__normal_iteratorIPN6Hinage14PhysicalEntity17TileCollisionDataESt6vectorIS4_SaIS4_EEEES9_ET0_T_SB_SA_ @4103
    _ZSt4copyIN9__gnu_cxx17__normal_iteratorIPN6Hinage8Renderer12RenderObjectESt6vectorIS4_SaIS4_EEEES9_ET0_T_SB_SA_ @4104
    _ZSt4copyIN9__gnu_cxx17__normal_iteratorIPPKSt9type_infoSt6vectorIS4_SaIS4_EEEES9_ET0_T_SB_SA_ @4105
    _ZSt4copyIN9__gnu_cxx17__normal_iteratorIPPN6Hinage14PhysicalEntityESt6vectorIS4_SaIS4_EEEES5_ET0_T_SB_SA_ @4106
    _ZSt4copyIN9__gnu_cxx17__normal_iteratorIPPN6Hinage14PhysicalEntityESt6vectorIS4_SaIS4_EEEES9_ET0_T_SB_SA_ @4107
    _ZSt4copyIN9__gnu_cxx17__normal_iteratorIPPN6Hinage15ResourceManagerINS2_4FontEE8ResourceESt6vectorIS7_SaIS7_EEEESC_ET0_T_SE_SD_ @4108
    _ZSt4copyIN9__gnu_cxx17__normal_iteratorIPPN6Hinage15ResourceManagerINS2_6SpriteEE8ResourceESt6vectorIS7_SaIS7_EEEESC_ET0_T_SE_SD_ @4109
    _ZSt4copyIN9__gnu_cxx17__normal_iteratorIPPN6Hinage15ResourceManagerINS2_7TextureEE8ResourceESt6vectorIS7_SaIS7_EEEESC_ET0_T_SE_SD_ @4110
    _ZSt4copyIN9__gnu_cxx17__normal_iteratorIPPN6Hinage15ResourceManagerINS2_7TilesetEE8ResourceESt6vectorIS7_SaIS7_EEEESC_ET0_T_SE_SD_ @4111
    _ZSt4copyIN9__gnu_cxx17__normal_iteratorIPPN6Hinage15SpriteAnimation5FrameESt6vectorIS5_SaIS5_EEEESA_ET0_T_SC_SB_ @4112
    _ZSt4copyIN9__gnu_cxx17__normal_iteratorIPPN6Hinage15SpriteAnimationESt6vectorIS4_SaIS4_EEEES9_ET0_T_SB_SA_ @4113
    _ZSt4copyIN9__gnu_cxx17__normal_iteratorIPPN6Hinage9GameStateESt6vectorIS4_SaIS4_EEEES9_ET0_T_SB_SA_ @4114
    _ZSt4copyIN9__gnu_cxx17__normal_iteratorIPSsSt6vectorISsSaISsEEEES6_ET0_T_S8_S7_ @4115
    _ZSt4copyIN9__gnu_cxx17__normal_iteratorIPcSt6vectorIcSaIcEEEES6_ET0_T_S8_S7_ @4116
    _ZSt4copyIPPKSt9type_infoS3_ET0_T_S5_S4_ @4117
    _ZSt4copyIPPN6Hinage14PhysicalEntityES3_ET0_T_S5_S4_ @4118
    _ZSt4swapIPN5boost10filesystem22basic_filesystem_errorINS1_10basic_pathISsNS1_11path_traitsEEEE5m_impEEvRT_SA_ @4119
    _ZSt4swapIPN5boost10filesystem6detail11dir_itr_impINS1_10basic_pathISsNS1_11path_traitsEEEEEEvRT_SA_ @4120
    _ZSt6__copyIPKN6Hinage8Renderer12RenderObjectEPS2_ET0_T_S7_S6_St26random_access_iterator_tag @4121
    _ZSt6__copyIPKN6Hinage8Renderer6VertexEPS2_ET0_T_S7_S6_St26random_access_iterator_tag @4122
    _ZSt6__copyIPN6Hinage14PhysicalEntity17TileCollisionDataES3_ET0_T_S5_S4_St26random_access_iterator_tag @4123
    _ZSt6__copyIPN6Hinage8Renderer12RenderObjectES3_ET0_T_S5_S4_St26random_access_iterator_tag @4124
    _ZSt6__copyIPSsS0_ET0_T_S2_S1_St26random_access_iterator_tag @4125
    _ZSt7advanceIN9__gnu_cxx17__normal_iteratorIPPN6Hinage14PhysicalEntityESt6vectorIS4_SaIS4_EEEEjEvRT_T0_ @4126
    _ZSt8_DestroyIN5boost10shared_ptrIN6Hinage8ParticleEEEEvPT_ @4127
    _ZSt8_DestroyIN6Hinage14PhysicalEntity17TileCollisionDataEEvPT_ @4128
    _ZSt8_DestroyIN6Hinage8Renderer12RenderObjectEEvPT_ @4129
    _ZSt8_DestroyIN6Hinage8Renderer6VertexEEvPT_ @4130
    _ZSt8_DestroyIN7luabind5valueEEvPT_ @4131
    _ZSt8_DestroyIN9__gnu_cxx17__normal_iteratorIPN6Hinage14PhysicalEntity17TileCollisionDataESt6vectorIS4_SaIS4_EEEEEvT_SA_ @4132
    _ZSt8_DestroyIN9__gnu_cxx17__normal_iteratorIPN6Hinage8Renderer12RenderObjectESt6vectorIS4_SaIS4_EEEEEvT_SA_ @4133
    _ZSt8_DestroyIN9__gnu_cxx17__normal_iteratorIPN6Hinage8Renderer6VertexESt6vectorIS4_SaIS4_EEEEEvT_SA_ @4134
    _ZSt8_DestroyIN9__gnu_cxx17__normal_iteratorIPPKSt9type_infoSt6vectorIS4_SaIS4_EEEEEvT_SA_ @4135
    _ZSt8_DestroyIN9__gnu_cxx17__normal_iteratorIPPN6Hinage14PhysicalEntityESt6vectorIS4_SaIS4_EEEEEvT_SA_ @4136
    _ZSt8_DestroyIN9__gnu_cxx17__normal_iteratorIPPN6Hinage15ResourceManagerINS2_4FontEE8ResourceESt6vectorIS7_SaIS7_EEEEEvT_SD_ @4137
    _ZSt8_DestroyIN9__gnu_cxx17__normal_iteratorIPPN6Hinage15ResourceManagerINS2_6SpriteEE8ResourceESt6vectorIS7_SaIS7_EEEEEvT_SD_ @4138
    _ZSt8_DestroyIN9__gnu_cxx17__normal_iteratorIPPN6Hinage15ResourceManagerINS2_7TextureEE8ResourceESt6vectorIS7_SaIS7_EEEEEvT_SD_ @4139
    _ZSt8_DestroyIN9__gnu_cxx17__normal_iteratorIPPN6Hinage15ResourceManagerINS2_7TilesetEE8ResourceESt6vectorIS7_SaIS7_EEEEEvT_SD_ @4140
    _ZSt8_DestroyIN9__gnu_cxx17__normal_iteratorIPPN6Hinage15SpriteAnimation5FrameESt6vectorIS5_SaIS5_EEEEEvT_SB_ @4141
    _ZSt8_DestroyIN9__gnu_cxx17__normal_iteratorIPPN6Hinage15SpriteAnimationESt6vectorIS4_SaIS4_EEEEEvT_SA_ @4142
    _ZSt8_DestroyIN9__gnu_cxx17__normal_iteratorIPPN6Hinage9GameStateESt6vectorIS4_SaIS4_EEEEEvT_SA_ @4143
    _ZSt8_DestroyIN9__gnu_cxx17__normal_iteratorIPSsSt6vectorISsSaISsEEEEEvT_S7_ @4144
    _ZSt8_DestroyIN9__gnu_cxx17__normal_iteratorIPSt6vectorIN6Hinage8Renderer12RenderObjectESaIS5_EES2_IS7_SaIS7_EEEEEvT_SC_ @4145
    _ZSt8_DestroyIN9__gnu_cxx17__normal_iteratorIPSt6vectorIcSaIcEES2_IS4_SaIS4_EEEEEvT_S9_ @4146
    _ZSt8_DestroyIN9__gnu_cxx17__normal_iteratorIPcSt6vectorIcSaIcEEEEEvT_S7_ @4147
    _ZSt8_DestroyIPN6Hinage14PhysicalEntity17TileCollisionDataEEvT_S4_ @4148
    _ZSt8_DestroyIPN6Hinage14PhysicalEntityEEvPT_ @4149
    _ZSt8_DestroyIPN6Hinage15SpriteAnimationEEvPT_ @4150
    _ZSt8_DestroyIPN6Hinage8Renderer12RenderObjectEEvT_S4_ @4151
    _ZSt8_DestroyIPN6Hinage8Renderer6VertexEEvT_S4_ @4152
    _ZSt8_DestroyIPN6Hinage9GameStateEEvPT_ @4153
    _ZSt8_DestroyIPN7luabind5valueEEvT_S3_ @4154
    _ZSt8_DestroyIPPKSt9type_infoEvT_S4_ @4155
    _ZSt8_DestroyIPPN6Hinage14PhysicalEntityEEvT_S4_ @4156
    _ZSt8_DestroyIPPN6Hinage15ResourceManagerINS0_4FontEE8ResourceEEvT_S7_ @4157
    _ZSt8_DestroyIPPN6Hinage15ResourceManagerINS0_6SpriteEE8ResourceEEvT_S7_ @4158
    _ZSt8_DestroyIPPN6Hinage15ResourceManagerINS0_7TextureEE8ResourceEEvT_S7_ @4159
    _ZSt8_DestroyIPPN6Hinage15ResourceManagerINS0_7TilesetEE8ResourceEEvT_S7_ @4160
    _ZSt8_DestroyIPPN6Hinage15SpriteAnimation5FrameEEvT_S5_ @4161
    _ZSt8_DestroyIPPN6Hinage15SpriteAnimationEEvT_S4_ @4162
    _ZSt8_DestroyIPPN6Hinage6UIItemEEvT_S4_ @4163
    _ZSt8_DestroyIPPN6Hinage9GameStateEEvT_S4_ @4164
    _ZSt8_DestroyIPSsEvT_S1_ @4165
    _ZSt8_DestroyIPSt6vectorIN6Hinage8Renderer12RenderObjectESaIS3_EEEvT_S7_ @4166
    _ZSt8_DestroyIPSt6vectorIcSaIcEEEvT_S4_ @4167
    _ZSt8_DestroyIPcEvT_S1_ @4168
    _ZSt8_DestroyISsEvPT_ @4169
    _ZSt8_DestroyISt4pairIKSsP10_Mix_MusicEEvPT_ @4170
    _ZSt8_DestroyISt4pairIKSsP9Mix_ChunkEEvPT_ @4171
    _ZSt8_DestroyISt4pairIKSsPFPN6Hinage14PhysicalEntityESsPNS2_4GameEEEEvPT_ @4172
    _ZSt8_DestroyISt4pairIKSsSsEEvPT_ @4173
    _ZSt8_DestroyISt6vectorIN6Hinage8Renderer12RenderObjectESaIS3_EEEvPT_ @4174
    _ZSt8_DestroyISt6vectorIcSaIcEEEvPT_ @4175
    _ZSt8distanceIN9__gnu_cxx17__normal_iteratorIPPN6Hinage14PhysicalEntityESt6vectorIS4_SaIS4_EEEEENSt15iterator_traitsIT_E15difference_typeESB_SB_ @4176
    _ZSt9__advanceIN9__gnu_cxx17__normal_iteratorIPPN6Hinage14PhysicalEntityESt6vectorIS4_SaIS4_EEEEjEvRT_T0_St26random_access_iterator_tag @4177
    _ZStltIcSt11char_traitsIcESaIcEEbRKSbIT_T0_T1_ES8_ @4178
    _ZStorSt13_Ios_OpenmodeS_ @4179
    _ZStplIcSt11char_traitsIcESaIcEESbIT_T0_T1_ERKS6_PKS3_ @4180
    _ZStplIcSt11char_traitsIcESaIcEESbIT_T0_T1_ERKS6_S8_ @4181
    _ZTI12AudioManager @4182 DATA
    _ZTI12TiXmlComment @4183 DATA
    _ZTI12TiXmlElement @4184 DATA
    _ZTI12TiXmlPrinter @4185 DATA
    _ZTI12TiXmlUnknown @4186 DATA
    _ZTI12TiXmlVisitor @4187 DATA
    _ZTI13TiXmlDocument @4188 DATA
    _ZTI14TiXmlAttribute @4189 DATA
    _ZTI16TiXmlDeclaration @4190 DATA
    _ZTI9TiXmlBase @4191 DATA
    _ZTI9TiXmlNode @4192 DATA
    _ZTI9TiXmlText @4193 DATA
    _ZTIFiP9lua_StateE @4194 DATA
    _ZTIN5boost10filesystem16filesystem_errorE @4195 DATA
    _ZTIN5boost10filesystem22basic_filesystem_errorINS0_10basic_pathISsNS0_11path_traitsEEEEE @4196 DATA
    _ZTIN5boost3_bi6bind_tIiN7luabind6detail8auto_getIN6Hinage14PhysicalEntityEbNS3_9null_typeEEENS0_5list3IPFNS_3argILi1EEEvEPFNSA_ILi2EEEvENS0_5valueIMS6_bEEEEEE @4197 DATA
    _ZTIN5boost6detail15sp_counted_baseE @4198 DATA
    _ZTIN5boost6detail17sp_counted_impl_pIN6Hinage8ParticleEEE @4199 DATA
    _ZTIN5boost6detail17sp_counted_impl_pINS_10filesystem22basic_filesystem_errorINS2_10basic_pathISsNS2_11path_traitsEEEE5m_impEEE @4200 DATA
    _ZTIN5boost6detail17sp_counted_impl_pINS_10filesystem6detail11dir_itr_impINS2_10basic_pathISsNS2_11path_traitsEEEEEEE @4201 DATA
    _ZTIN6Hinage10EntityBaseE @4202 DATA
    _ZTIN6Hinage11IOExceptionE @4203 DATA
    _ZTIN6Hinage12InputManagerE @4204 DATA
    _ZTIN6Hinage13MovableEntityE @4205 DATA
    _ZTIN6Hinage14FatalExceptionE @4206 DATA
    _ZTIN6Hinage14PhysicalEntityE @4207 DATA
    _ZTIN6Hinage15ResourceManagerINS_4FontEEE @4208 DATA
    _ZTIN6Hinage15ResourceManagerINS_6SpriteEEE @4209 DATA
    _ZTIN6Hinage15ResourceManagerINS_7TextureEEE @4210 DATA
    _ZTIN6Hinage15ResourceManagerINS_7TilesetEEE @4211 DATA
    _ZTIN6Hinage16RenderableEntityE @4212 DATA
    _ZTIN6Hinage3MapE @4213 DATA
    _ZTIN6Hinage4FontE @4214 DATA
    _ZTIN6Hinage4GameE @4215 DATA
    _ZTIN6Hinage5TimerE @4216 DATA
    _ZTIN6Hinage7DisplayE @4217 DATA
    _ZTIN6Hinage7Vector2IdEE @4218 DATA
    _ZTIN6Hinage8MapStateE @4219 DATA
    _ZTIN6Hinage9ExceptionE @4220 DATA
    _ZTIN6Hinage9GameStateE @4221 DATA
    _ZTIN7luabind12value_vectorE @4222 DATA
    _ZTIN7luabind6detail14mem_fn_matcherIM12AudioManagerFvSsES2_NS0_9null_typeEEE @4223 DATA
    _ZTIN7luabind6detail14mem_fn_matcherIM12AudioManagerFvSsbES2_NS0_9null_typeEEE @4224 DATA
    _ZTIN7luabind6detail14mem_fn_matcherIM12AudioManagerFvvES2_NS0_9null_typeEEE @4225 DATA
    _ZTIN7luabind6detail14mem_fn_matcherIMN6Hinage12InputManagerEFbiES3_NS0_9null_typeEEE @4226 DATA
    _ZTIN7luabind6detail14mem_fn_matcherIMN6Hinage14PhysicalEntityEFSsvES3_NS0_9null_typeEEE @4227 DATA
    _ZTIN7luabind6detail14mem_fn_matcherIMN6Hinage14PhysicalEntityEFbSsbdES3_NS0_9null_typeEEE @4228 DATA
    _ZTIN7luabind6detail14mem_fn_matcherIMN6Hinage14PhysicalEntityEFdvES3_NS0_9null_typeEEE @4229 DATA
    _ZTIN7luabind6detail14mem_fn_matcherIMN6Hinage14PhysicalEntityEFivES3_NS0_9null_typeEEE @4230 DATA
    _ZTIN7luabind6detail14mem_fn_matcherIMN6Hinage14PhysicalEntityEFvbES3_NS0_9null_typeEEE @4231 DATA
    _ZTIN7luabind6detail14mem_fn_matcherIMN6Hinage14PhysicalEntityEFvdES3_NS0_9null_typeEEE @4232 DATA
    _ZTIN7luabind6detail14mem_fn_matcherIMN6Hinage14PhysicalEntityEFvddES3_NS0_9null_typeEEE @4233 DATA
    _ZTIN7luabind6detail14mem_fn_matcherIMN6Hinage14PhysicalEntityEFvdddES3_NS0_9null_typeEEE @4234 DATA
    _ZTIN7luabind6detail14mem_fn_matcherIMN6Hinage3MapEFRNS2_14PhysicalEntityESsddES3_NS0_9null_typeEEE @4235 DATA
    _ZTIN7luabind6detail14mem_fn_matcherIMN6Hinage3MapEFRNS2_14PhysicalEntityEiES3_NS0_9null_typeEEE @4236 DATA
    _ZTIN7luabind6detail14mem_fn_matcherIMN6Hinage3MapEFivES3_NS0_9null_typeEEE @4237 DATA
    _ZTIN7luabind6detail14mem_fn_matcherIMN6Hinage3MapEFvSsES3_NS0_9null_typeEEE @4238 DATA
    _ZTIN7luabind6detail14mem_fn_matcherIMN6Hinage3MapEFvSsbES3_NS0_9null_typeEEE @4239 DATA
    _ZTIN7luabind6detail14mem_fn_matcherIMN6Hinage3MapEFviES3_NS0_9null_typeEEE @4240 DATA
    _ZTIN7luabind6detail14mem_fn_matcherIMN6Hinage3MapEFvvES3_NS0_9null_typeEEE @4241 DATA
    _ZTIN7luabind6detail14mem_fn_matcherIMN6Hinage3MapEKFivES3_NS0_9null_typeEEE @4242 DATA
    _ZTIN7luabind6detail14mem_fn_matcherIMN6Hinage4GameEFRNS2_4FontESsES3_NS0_9null_typeEEE @4243 DATA
    _ZTIN7luabind6detail14mem_fn_matcherIMN6Hinage4GameEFdvES3_NS0_9null_typeEEE @4244 DATA
    _ZTIN7luabind6detail14mem_fn_matcherIMN6Hinage4GameEFvRNS2_4FontESsddddES3_NS0_9null_typeEEE @4245 DATA
    _ZTIN7luabind6detail14mem_fn_matcherIMN6Hinage4GameEFvdES3_NS0_9null_typeEEE @4246 DATA
    _ZTIN7luabind6detail14mem_fn_matcherIMN6Hinage4GameEFvvES3_NS0_9null_typeEEE @4247 DATA
    _ZTIN7luabind6detail14mem_fn_matcherIMN6Hinage5TimerEFbdES3_NS0_9null_typeEEE @4248 DATA
    _ZTIN7luabind6detail14mem_fn_matcherIMN6Hinage5TimerEFdvES3_NS0_9null_typeEEE @4249 DATA
    _ZTIN7luabind6detail14mem_fn_matcherIMN6Hinage5TimerEFvvES3_NS0_9null_typeEEE @4250 DATA
    _ZTIN7luabind6detail14mem_fn_matcherIMN6Hinage7DisplayEFdvES3_NS0_9null_typeEEE @4251 DATA
    _ZTIN7luabind6detail14mem_fn_matcherIMN6Hinage7DisplayEFfvES3_NS0_9null_typeEEE @4252 DATA
    _ZTIN7luabind6detail14mem_fn_matcherIMN6Hinage7DisplayEFvdES3_NS0_9null_typeEEE @4253 DATA
    _ZTIN7luabind6detail14mem_fn_matcherIMN6Hinage7DisplayEFvffES3_NS0_9null_typeEEE @4254 DATA
    _ZTIN7luabind6detail14mem_fn_matcherIMN6Hinage7Vector2IdEEFvdES4_NS0_9null_typeEEE @4255 DATA
    _ZTIN7luabind6detail14mem_fn_matcherIMN6Hinage7Vector2IdEEFvddES4_NS0_9null_typeEEE @4256 DATA
    _ZTIN7luabind6detail14mem_fn_matcherIMN6Hinage7Vector2IdEEKFdvES4_NS0_9null_typeEEE @4257 DATA
    _ZTIN7luabind6detail15mem_fn_callbackIM12AudioManagerFvSsES2_NS0_9null_typeEEE @4258 DATA
    _ZTIN7luabind6detail15mem_fn_callbackIM12AudioManagerFvSsbES2_NS0_9null_typeEEE @4259 DATA
    _ZTIN7luabind6detail15mem_fn_callbackIM12AudioManagerFvvES2_NS0_9null_typeEEE @4260 DATA
    _ZTIN7luabind6detail15mem_fn_callbackIMN6Hinage12InputManagerEFbiES3_NS0_9null_typeEEE @4261 DATA
    _ZTIN7luabind6detail15mem_fn_callbackIMN6Hinage14PhysicalEntityEFSsvES3_NS0_9null_typeEEE @4262 DATA
    _ZTIN7luabind6detail15mem_fn_callbackIMN6Hinage14PhysicalEntityEFbSsbdES3_NS0_9null_typeEEE @4263 DATA
    _ZTIN7luabind6detail15mem_fn_callbackIMN6Hinage14PhysicalEntityEFdvES3_NS0_9null_typeEEE @4264 DATA
    _ZTIN7luabind6detail15mem_fn_callbackIMN6Hinage14PhysicalEntityEFivES3_NS0_9null_typeEEE @4265 DATA
    _ZTIN7luabind6detail15mem_fn_callbackIMN6Hinage14PhysicalEntityEFvbES3_NS0_9null_typeEEE @4266 DATA
    _ZTIN7luabind6detail15mem_fn_callbackIMN6Hinage14PhysicalEntityEFvdES3_NS0_9null_typeEEE @4267 DATA
    _ZTIN7luabind6detail15mem_fn_callbackIMN6Hinage14PhysicalEntityEFvddES3_NS0_9null_typeEEE @4268 DATA
    _ZTIN7luabind6detail15mem_fn_callbackIMN6Hinage14PhysicalEntityEFvdddES3_NS0_9null_typeEEE @4269 DATA
    _ZTIN7luabind6detail15mem_fn_callbackIMN6Hinage3MapEFRNS2_14PhysicalEntityESsddES3_NS0_9null_typeEEE @4270 DATA
    _ZTIN7luabind6detail15mem_fn_callbackIMN6Hinage3MapEFRNS2_14PhysicalEntityEiES3_NS0_9null_typeEEE @4271 DATA
    _ZTIN7luabind6detail15mem_fn_callbackIMN6Hinage3MapEFivES3_NS0_9null_typeEEE @4272 DATA
    _ZTIN7luabind6detail15mem_fn_callbackIMN6Hinage3MapEFvSsES3_NS0_9null_typeEEE @4273 DATA
    _ZTIN7luabind6detail15mem_fn_callbackIMN6Hinage3MapEFvSsbES3_NS0_9null_typeEEE @4274 DATA
    _ZTIN7luabind6detail15mem_fn_callbackIMN6Hinage3MapEFviES3_NS0_9null_typeEEE @4275 DATA
    _ZTIN7luabind6detail15mem_fn_callbackIMN6Hinage3MapEFvvES3_NS0_9null_typeEEE @4276 DATA
    _ZTIN7luabind6detail15mem_fn_callbackIMN6Hinage3MapEKFivES3_NS0_9null_typeEEE @4277 DATA
    _ZTIN7luabind6detail15mem_fn_callbackIMN6Hinage4GameEFRNS2_4FontESsES3_NS0_9null_typeEEE @4278 DATA
    _ZTIN7luabind6detail15mem_fn_callbackIMN6Hinage4GameEFdvES3_NS0_9null_typeEEE @4279 DATA
    _ZTIN7luabind6detail15mem_fn_callbackIMN6Hinage4GameEFvRNS2_4FontESsddddES3_NS0_9null_typeEEE @4280 DATA
    _ZTIN7luabind6detail15mem_fn_callbackIMN6Hinage4GameEFvdES3_NS0_9null_typeEEE @4281 DATA
    _ZTIN7luabind6detail15mem_fn_callbackIMN6Hinage4GameEFvvES3_NS0_9null_typeEEE @4282 DATA
    _ZTIN7luabind6detail15mem_fn_callbackIMN6Hinage5TimerEFbdES3_NS0_9null_typeEEE @4283 DATA
    _ZTIN7luabind6detail15mem_fn_callbackIMN6Hinage5TimerEFdvES3_NS0_9null_typeEEE @4284 DATA
    _ZTIN7luabind6detail15mem_fn_callbackIMN6Hinage5TimerEFvvES3_NS0_9null_typeEEE @4285 DATA
    _ZTIN7luabind6detail15mem_fn_callbackIMN6Hinage7DisplayEFdvES3_NS0_9null_typeEEE @4286 DATA
    _ZTIN7luabind6detail15mem_fn_callbackIMN6Hinage7DisplayEFfvES3_NS0_9null_typeEEE @4287 DATA
    _ZTIN7luabind6detail15mem_fn_callbackIMN6Hinage7DisplayEFvdES3_NS0_9null_typeEEE @4288 DATA
    _ZTIN7luabind6detail15mem_fn_callbackIMN6Hinage7DisplayEFvffES3_NS0_9null_typeEEE @4289 DATA
    _ZTIN7luabind6detail15mem_fn_callbackIMN6Hinage7Vector2IdEEFvdES4_NS0_9null_typeEEE @4290 DATA
    _ZTIN7luabind6detail15mem_fn_callbackIMN6Hinage7Vector2IdEEFvddES4_NS0_9null_typeEEE @4291 DATA
    _ZTIN7luabind6detail15mem_fn_callbackIMN6Hinage7Vector2IdEEKFdvES4_NS0_9null_typeEEE @4292 DATA
    _ZTIN7luabind6detail65you_need_to_define_a_get_const_holder_function_for_your_smart_ptrE @4293 DATA
    _ZTIN7luabind6detail9null_typeE @4294 DATA
    _ZTIN7luabind9wrap_baseE @4295 DATA
    _ZTIPFiP9lua_StateE @4296 DATA
    _ZTISs @4297 DATA
    _ZTISt12_Vector_baseIN7luabind5valueESaIS1_EE @4298 DATA
    _ZTISt13runtime_error @4299 DATA
    _ZTISt6vectorIN7luabind5valueESaIS1_EE @4300 DATA
    _ZTISt9exception @4301 DATA
    _ZTS12AudioManager @4302 DATA
    _ZTS12TiXmlComment @4303 DATA
    _ZTS12TiXmlElement @4304 DATA
    _ZTS12TiXmlPrinter @4305 DATA
    _ZTS12TiXmlUnknown @4306 DATA
    _ZTS12TiXmlVisitor @4307 DATA
    _ZTS13TiXmlDocument @4308 DATA
    _ZTS14TiXmlAttribute @4309 DATA
    _ZTS16TiXmlDeclaration @4310 DATA
    _ZTS9TiXmlBase @4311 DATA
    _ZTS9TiXmlNode @4312 DATA
